LIBRARY gtkmm
EXPORTS
    ?aboutdialog_class_@AboutDialog@Gtk@@0VAboutDialog_Class@2@A
    ?__empty_global_delete@@YAXPEAX@Z
    ?__empty_global_delete@@YAXPEAX_K@Z
    ??2@YAPEAX_KPEAX@Z
    ??3@YAXPEAX0@Z
    ?length@?$char_traits@D@std@@SA_KPEBD@Z
    ?copy@?$char_traits@D@std@@SAPEADPEADPEBD_K@Z
    ?move@?$char_traits@D@std@@SAPEADPEADPEBD_K@Z
    ?assign@?$char_traits@D@std@@SAXAEADAEBD@Z
    ??0_Container_proxy@std@@QEAA@XZ
    ??0_Container_base12@std@@QEAA@XZ
    ??1_Container_base12@std@@QEAA@XZ
    ?_Orphan_all@_Container_base12@std@@QEAAXXZ
    ??0_Iterator_base12@std@@QEAA@XZ
    ??1_Iterator_base12@std@@QEAA@XZ
    ?_Adopt@_Iterator_base12@std@@QEAAXPEBU_Container_base12@2@@Z
    ?_Getcont@_Iterator_base12@std@@QEBAPEBU_Container_base12@2@XZ
    ?_Orphan_me@_Iterator_base12@std@@QEAAXXZ
    ?_Allocate@std@@YAPEAX_K0_N@Z
    ?_Deallocate@std@@YAXPEAX_K1@Z
    ??0?$allocator@D@std@@QEAA@XZ
    ??0?$allocator@D@std@@QEAA@AEBV01@@Z
    ?deallocate@?$allocator@D@std@@QEAAXPEAD_K@Z
    ?allocate@?$allocator@D@std@@QEAAPEAD_K@Z
    ?max_size@?$allocator@D@std@@QEBA_KXZ
    ?max_size@?$allocator_traits@V?$allocator@D@std@@@std@@SA_KAEBV?$allocator@D@2@@Z
    ??0?$_Wrap_alloc@V?$allocator@D@std@@@std@@QEAA@XZ
    ??0?$_Wrap_alloc@V?$allocator@D@std@@@std@@QEAA@$$QEAU01@@Z
    ?allocate@?$_Wrap_alloc@V?$allocator@D@std@@@std@@QEAAPEAD_K@Z
    ?deallocate@?$_Wrap_alloc@V?$allocator@D@std@@@std@@QEAAXPEAD_K@Z
    ?max_size@?$_Wrap_alloc@V?$allocator@D@std@@@std@@QEBA_KU_Nil@2@@Z
    ??0?$_String_val@U?$_Simple_types@D@std@@@std@@QEAA@XZ
    ?_Myptr@?$_String_val@U?$_Simple_types@D@std@@@std@@QEAAPEADXZ
    ?_Myptr@?$_String_val@U?$_Simple_types@D@std@@@std@@QEBAPEBDXZ
    ??1?$_String_val@U?$_Simple_types@D@std@@@std@@QEAA@XZ
    ?_Myptr@?$_String_alloc@U?$_String_base_types@DV?$allocator@D@std@@@std@@@std@@QEAAPEADXZ
    ?_Myptr@?$_String_alloc@U?$_String_base_types@DV?$allocator@D@std@@@std@@@std@@QEBAPEBDXZ
    ??0?$_String_alloc@U?$_String_base_types@DV?$allocator@D@std@@@std@@@std@@QEAA@XZ
    ??1?$_String_alloc@U?$_String_base_types@DV?$allocator@D@std@@@std@@@std@@QEAA@XZ
    ?_Alloc_proxy@?$_String_alloc@U?$_String_base_types@DV?$allocator@D@std@@@std@@@std@@QEAAXXZ
    ?_Free_proxy@?$_String_alloc@U?$_String_base_types@DV?$allocator@D@std@@@std@@@std@@QEAAXXZ
    ?_Myproxy@?$_String_alloc@U?$_String_base_types@DV?$allocator@D@std@@@std@@@std@@QEAAAEAPEAU_Container_proxy@2@XZ
    ?_Orphan_all@?$_String_alloc@U?$_String_base_types@DV?$allocator@D@std@@@std@@@std@@QEAAXXZ
    ?_Getal@?$_String_alloc@U?$_String_base_types@DV?$allocator@D@std@@@std@@@std@@QEAAAEAU?$_Wrap_alloc@V?$allocator@D@std@@@2@XZ
    ?_Getal@?$_String_alloc@U?$_String_base_types@DV?$allocator@D@std@@@std@@@std@@QEBAAEBU?$_Wrap_alloc@V?$allocator@D@std@@@2@XZ
    ?_Get_data@?$_String_alloc@U?$_String_base_types@DV?$allocator@D@std@@@std@@@std@@QEAAAEAV?$_String_val@U?$_Simple_types@D@std@@@2@XZ
    ?_Get_data@?$_String_alloc@U?$_String_base_types@DV?$allocator@D@std@@@std@@@std@@QEBAAEBV?$_String_val@U?$_Simple_types@D@std@@@2@XZ
    ?_Bx@?$_String_alloc@U?$_String_base_types@DV?$allocator@D@std@@@std@@@std@@QEAAAEAT_Bxty@?$_String_val@U?$_Simple_types@D@std@@@2@XZ
    ?_Mysize@?$_String_alloc@U?$_String_base_types@DV?$allocator@D@std@@@std@@@std@@QEAAAEA_KXZ
    ?_Mysize@?$_String_alloc@U?$_String_base_types@DV?$allocator@D@std@@@std@@@std@@QEBAAEB_KXZ
    ?_Myres@?$_String_alloc@U?$_String_base_types@DV?$allocator@D@std@@@std@@@std@@QEAAAEA_KXZ
    ?_Get_first@?$_Compressed_pair@U?$_Wrap_alloc@V?$allocator@D@std@@@std@@V?$_String_val@U?$_Simple_types@D@std@@@2@$00@std@@QEAAAEAU?$_Wrap_alloc@V?$allocator@D@std@@@2@XZ
    ?_Get_first@?$_Compressed_pair@U?$_Wrap_alloc@V?$allocator@D@std@@@std@@V?$_String_val@U?$_Simple_types@D@std@@@2@$00@std@@QEBAAEBU?$_Wrap_alloc@V?$allocator@D@std@@@2@XZ
    ?_Get_second@?$_Compressed_pair@U?$_Wrap_alloc@V?$allocator@D@std@@@std@@V?$_String_val@U?$_Simple_types@D@std@@@2@$00@std@@QEAAAEAV?$_String_val@U?$_Simple_types@D@std@@@2@XZ
    ?_Get_second@?$_Compressed_pair@U?$_Wrap_alloc@V?$allocator@D@std@@@std@@V?$_String_val@U?$_Simple_types@D@std@@@2@$00@std@@QEBAAEBV?$_String_val@U?$_Simple_types@D@std@@@2@XZ
    ??1?$_Compressed_pair@U?$_Wrap_alloc@V?$allocator@D@std@@@std@@V?$_String_val@U?$_Simple_types@D@std@@@2@$00@std@@QEAA@XZ
    ??0?$basic_string@DU?$char_traits@D@std@@V?$allocator@D@2@@std@@QEAA@XZ
    ??0?$basic_string@DU?$char_traits@D@std@@V?$allocator@D@2@@std@@QEAA@PEBD@Z
    ??0?$basic_string@DU?$char_traits@D@std@@V?$allocator@D@2@@std@@QEAA@$$QEAV01@@Z
    ?_Assign_rv@?$basic_string@DU?$char_traits@D@std@@V?$allocator@D@2@@std@@QEAAX$$QEAV12@@Z
    ??1?$basic_string@DU?$char_traits@D@std@@V?$allocator@D@2@@std@@QEAA@XZ
    ?assign@?$basic_string@DU?$char_traits@D@std@@V?$allocator@D@2@@std@@QEAAAEAV12@AEBV12@_K1@Z
    ?assign@?$basic_string@DU?$char_traits@D@std@@V?$allocator@D@2@@std@@QEAAAEAV12@PEBD_K@Z
    ?assign@?$basic_string@DU?$char_traits@D@std@@V?$allocator@D@2@@std@@QEAAAEAV12@PEBD@Z
    ?erase@?$basic_string@DU?$char_traits@D@std@@V?$allocator@D@2@@std@@QEAAAEAV12@_K@Z
    ?erase@?$basic_string@DU?$char_traits@D@std@@V?$allocator@D@2@@std@@QEAAAEAV12@_K0@Z
    ?c_str@?$basic_string@DU?$char_traits@D@std@@V?$allocator@D@2@@std@@QEBAPEBDXZ
    ?max_size@?$basic_string@DU?$char_traits@D@std@@V?$allocator@D@2@@std@@QEBA_KXZ
    ?_Clamp_suffix_size@?$basic_string@DU?$char_traits@D@std@@V?$allocator@D@2@@std@@QEBA_K_K0@Z
    ?_Copy@?$basic_string@DU?$char_traits@D@std@@V?$allocator@D@2@@std@@QEAAX_K0@Z
    ?_Eos@?$basic_string@DU?$char_traits@D@std@@V?$allocator@D@2@@std@@QEAAX_K@Z
    ?_Grow@?$basic_string@DU?$char_traits@D@std@@V?$allocator@D@2@@std@@QEAA_N_K_N@Z
    ?_Inside@?$basic_string@DU?$char_traits@D@std@@V?$allocator@D@2@@std@@QEAA_NPEBD@Z
    ?_Tidy@?$basic_string@DU?$char_traits@D@std@@V?$allocator@D@2@@std@@QEAAX_N_K@Z
    ?_Xlen@?$basic_string@DU?$char_traits@D@std@@V?$allocator@D@2@@std@@QEBAXXZ
    ?_Check_offset@?$basic_string@DU?$char_traits@D@std@@V?$allocator@D@2@@std@@QEBAX_K@Z
    ?_Xran@?$basic_string@DU?$char_traits@D@std@@V?$allocator@D@2@@std@@QEBAXXZ
    ?get_type@Class@Glib@@QEBA_KXZ
    ?data_to_slot@SignalProxyBase@Glib@@SAPEAVslot_base@sigc@@PEAX@Z
    ?to_c_type@?$TypeTraits@Vustring@Glib@@@Container_Helpers@Glib@@SAPEBDAEBVustring@3@@Z
    ?to_cpp_type@?$TypeTraits@Vustring@Glib@@@Container_Helpers@Glib@@SA?AVustring@3@PEBD@Z
    ?release_c_type@?$TypeTraits@Vustring@Glib@@@Container_Helpers@Glib@@SAXPEBD@Z
    ?convert_const_gchar_ptr_to_ustring@Glib@@YA?AVustring@1@PEBD@Z
    ?convert_const_gchar_ptr_to_stdstring@Glib@@YA?AV?$basic_string@DU?$char_traits@D@std@@V?$allocator@D@2@@std@@PEBD@Z
    ?gobj@Pixbuf@Gdk@@QEAAPEAU_GdkPixbuf@@XZ
    ?value_type@?$Value@W4License@Gtk@@@Glib@@SA_KXZ
    ??1AboutDialog@Gtk@@UEAA@XZ
    ??0AboutDialog@Gtk@@IEAA@AEBVConstructParams@Glib@@@Z
    ??0AboutDialog@Gtk@@IEAA@PEAU_GtkAboutDialog@@@Z
    ?get_type@AboutDialog@Gtk@@SA_KXZ
    ?get_base_type@AboutDialog@Gtk@@SA_KXZ
    ?gobj@AboutDialog@Gtk@@QEAAPEAU_GtkAboutDialog@@XZ
    ?gobj@AboutDialog@Gtk@@QEBAPEBU_GtkAboutDialog@@XZ
    ?on_activate_link@AboutDialog@Gtk@@MEAA_NAEBV?$basic_string@DU?$char_traits@D@std@@V?$allocator@D@2@@std@@@Z
    ??0AboutDialog@Gtk@@QEAA@XZ
    ?get_program_name@AboutDialog@Gtk@@QEBA?AVustring@Glib@@XZ
    ?set_program_name@AboutDialog@Gtk@@QEAAXAEBVustring@Glib@@@Z
    ?get_version@AboutDialog@Gtk@@QEBA?AVustring@Glib@@XZ
    ?set_version@AboutDialog@Gtk@@QEAAXAEBVustring@Glib@@@Z
    ?get_copyright@AboutDialog@Gtk@@QEBA?AVustring@Glib@@XZ
    ?set_copyright@AboutDialog@Gtk@@QEAAXAEBVustring@Glib@@@Z
    ?get_comments@AboutDialog@Gtk@@QEBA?AVustring@Glib@@XZ
    ?set_comments@AboutDialog@Gtk@@QEAAXAEBVustring@Glib@@@Z
    ?get_license@AboutDialog@Gtk@@QEBA?AVustring@Glib@@XZ
    ?set_license@AboutDialog@Gtk@@QEAAXAEBVustring@Glib@@@Z
    ?unset_license@AboutDialog@Gtk@@QEAAXXZ
    ?get_license_type@AboutDialog@Gtk@@QEBA?AW4License@2@XZ
    ?set_license_type@AboutDialog@Gtk@@QEAAXW4License@2@@Z
    ?get_website@AboutDialog@Gtk@@QEBA?AVustring@Glib@@XZ
    ?set_website@AboutDialog@Gtk@@QEAAXAEBVustring@Glib@@@Z
    ?get_website_label@AboutDialog@Gtk@@QEBA?AVustring@Glib@@XZ
    ?set_website_label@AboutDialog@Gtk@@QEAAXAEBVustring@Glib@@@Z
    ?get_authors@AboutDialog@Gtk@@QEBA?AV?$vector@Vustring@Glib@@V?$allocator@Vustring@Glib@@@std@@@std@@XZ
    ?set_authors@AboutDialog@Gtk@@QEBAXAEBV?$vector@Vustring@Glib@@V?$allocator@Vustring@Glib@@@std@@@std@@@Z
    ?get_documenters@AboutDialog@Gtk@@QEBA?AV?$vector@Vustring@Glib@@V?$allocator@Vustring@Glib@@@std@@@std@@XZ
    ?set_documenters@AboutDialog@Gtk@@QEAAXAEBV?$vector@Vustring@Glib@@V?$allocator@Vustring@Glib@@@std@@@std@@@Z
    ?get_artists@AboutDialog@Gtk@@QEBA?AV?$vector@Vustring@Glib@@V?$allocator@Vustring@Glib@@@std@@@std@@XZ
    ?set_artists@AboutDialog@Gtk@@QEAAXAEBV?$vector@Vustring@Glib@@V?$allocator@Vustring@Glib@@@std@@@std@@@Z
    ?get_translator_credits@AboutDialog@Gtk@@QEBA?AVustring@Glib@@XZ
    ?set_translator_credits@AboutDialog@Gtk@@QEAAXAEBVustring@Glib@@@Z
    ?get_logo@AboutDialog@Gtk@@QEAA?AV?$RefPtr@VPixbuf@Gdk@@@Glib@@XZ
    ?get_logo@AboutDialog@Gtk@@QEBA?AV?$RefPtr@$$CBVPixbuf@Gdk@@@Glib@@XZ
    ?set_logo@AboutDialog@Gtk@@QEAAXAEBV?$RefPtr@VPixbuf@Gdk@@@Glib@@@Z
    ?set_logo_default@AboutDialog@Gtk@@QEAAXXZ
    ?get_logo_icon_name@AboutDialog@Gtk@@QEBA?AVustring@Glib@@XZ
    ?set_logo_icon_name@AboutDialog@Gtk@@QEAAXAEBVustring@Glib@@@Z
    ?get_wrap_license@AboutDialog@Gtk@@QEBA_NXZ
    ?set_wrap_license@AboutDialog@Gtk@@QEAAX_N@Z
    ?add_credit_section@AboutDialog@Gtk@@QEAAXAEBVustring@Glib@@AEBV?$vector@Vustring@Glib@@V?$allocator@Vustring@Glib@@@std@@@std@@@Z
    ?property_program_name@AboutDialog@Gtk@@QEAA?AV?$PropertyProxy@Vustring@Glib@@@Glib@@XZ
    ?property_program_name@AboutDialog@Gtk@@QEBA?AV?$PropertyProxy_ReadOnly@Vustring@Glib@@@Glib@@XZ
    ?property_version@AboutDialog@Gtk@@QEAA?AV?$PropertyProxy@Vustring@Glib@@@Glib@@XZ
    ?property_version@AboutDialog@Gtk@@QEBA?AV?$PropertyProxy_ReadOnly@Vustring@Glib@@@Glib@@XZ
    ?property_copyright@AboutDialog@Gtk@@QEAA?AV?$PropertyProxy@Vustring@Glib@@@Glib@@XZ
    ?property_copyright@AboutDialog@Gtk@@QEBA?AV?$PropertyProxy_ReadOnly@Vustring@Glib@@@Glib@@XZ
    ?property_comments@AboutDialog@Gtk@@QEAA?AV?$PropertyProxy@Vustring@Glib@@@Glib@@XZ
    ?property_comments@AboutDialog@Gtk@@QEBA?AV?$PropertyProxy_ReadOnly@Vustring@Glib@@@Glib@@XZ
    ?property_website@AboutDialog@Gtk@@QEAA?AV?$PropertyProxy@Vustring@Glib@@@Glib@@XZ
    ?property_website@AboutDialog@Gtk@@QEBA?AV?$PropertyProxy_ReadOnly@Vustring@Glib@@@Glib@@XZ
    ?property_website_label@AboutDialog@Gtk@@QEAA?AV?$PropertyProxy@Vustring@Glib@@@Glib@@XZ
    ?property_website_label@AboutDialog@Gtk@@QEBA?AV?$PropertyProxy_ReadOnly@Vustring@Glib@@@Glib@@XZ
    ?property_license@AboutDialog@Gtk@@QEAA?AV?$PropertyProxy@Vustring@Glib@@@Glib@@XZ
    ?property_license@AboutDialog@Gtk@@QEBA?AV?$PropertyProxy_ReadOnly@Vustring@Glib@@@Glib@@XZ
    ?property_license_type@AboutDialog@Gtk@@QEAA?AV?$PropertyProxy@W4License@Gtk@@@Glib@@XZ
    ?property_license_type@AboutDialog@Gtk@@QEBA?AV?$PropertyProxy_ReadOnly@W4License@Gtk@@@Glib@@XZ
    ?property_authors@AboutDialog@Gtk@@QEAA?AV?$PropertyProxy@V?$vector@Vustring@Glib@@V?$allocator@Vustring@Glib@@@std@@@std@@@Glib@@XZ
    ?property_authors@AboutDialog@Gtk@@QEBA?AV?$PropertyProxy_ReadOnly@V?$vector@Vustring@Glib@@V?$allocator@Vustring@Glib@@@std@@@std@@@Glib@@XZ
    ?property_documenters@AboutDialog@Gtk@@QEAA?AV?$PropertyProxy@V?$vector@Vustring@Glib@@V?$allocator@Vustring@Glib@@@std@@@std@@@Glib@@XZ
    ?property_documenters@AboutDialog@Gtk@@QEBA?AV?$PropertyProxy_ReadOnly@V?$vector@Vustring@Glib@@V?$allocator@Vustring@Glib@@@std@@@std@@@Glib@@XZ
    ?property_translator_credits@AboutDialog@Gtk@@QEAA?AV?$PropertyProxy@V?$vector@Vustring@Glib@@V?$allocator@Vustring@Glib@@@std@@@std@@@Glib@@XZ
    ?property_translator_credits@AboutDialog@Gtk@@QEBA?AV?$PropertyProxy_ReadOnly@V?$vector@Vustring@Glib@@V?$allocator@Vustring@Glib@@@std@@@std@@@Glib@@XZ
    ?property_artists@AboutDialog@Gtk@@QEAA?AV?$PropertyProxy@V?$vector@Vustring@Glib@@V?$allocator@Vustring@Glib@@@std@@@std@@@Glib@@XZ
    ?property_artists@AboutDialog@Gtk@@QEBA?AV?$PropertyProxy_ReadOnly@V?$vector@Vustring@Glib@@V?$allocator@Vustring@Glib@@@std@@@std@@@Glib@@XZ
    ?property_logo@AboutDialog@Gtk@@QEAA?AV?$PropertyProxy@V?$RefPtr@VPixbuf@Gdk@@@Glib@@@Glib@@XZ
    ?property_logo@AboutDialog@Gtk@@QEBA?AV?$PropertyProxy_ReadOnly@V?$RefPtr@VPixbuf@Gdk@@@Glib@@@Glib@@XZ
    ?property_logo_icon_name@AboutDialog@Gtk@@QEAA?AV?$PropertyProxy@Vustring@Glib@@@Glib@@XZ
    ?property_logo_icon_name@AboutDialog@Gtk@@QEBA?AV?$PropertyProxy_ReadOnly@Vustring@Glib@@@Glib@@XZ
    ?property_wrap_license@AboutDialog@Gtk@@QEAA?AV?$PropertyProxy@_N@Glib@@XZ
    ?property_wrap_license@AboutDialog@Gtk@@QEBA?AV?$PropertyProxy_ReadOnly@_N@Glib@@XZ
    ?signal_activate_link@AboutDialog@Gtk@@QEAA?AV?$SignalProxy1@_NAEBV?$basic_string@DU?$char_traits@D@std@@V?$allocator@D@2@@std@@@Glib@@XZ
    ??_DAboutDialog@Gtk@@QEAAXXZ
    ?wrap@Glib@@YAPEAVAboutDialog@Gtk@@PEAU_GtkAboutDialog@@_N@Z
    ?init@AboutDialog_Class@Gtk@@QEAAAEBVClass@Glib@@XZ
    ?class_init_function@AboutDialog_Class@Gtk@@SAXPEAX0@Z
    ?wrap_new@AboutDialog_Class@Gtk@@SAPEAVObjectBase@Glib@@PEAU_GObject@@@Z
    ?activate_link_callback@AboutDialog_Class@Gtk@@KAHPEAU_GtkAboutDialog@@PEBD@Z
    ??R?$slot1@_NAEBV?$basic_string@DU?$char_traits@D@std@@V?$allocator@D@2@@std@@@sigc@@QEBA_NAEBV?$basic_string@DU?$char_traits@D@std@@V?$allocator@D@2@@std@@@Z
    ??R?$slot1@XAEBV?$basic_string@DU?$char_traits@D@std@@V?$allocator@D@2@@std@@@sigc@@QEBAXAEBV?$basic_string@DU?$char_traits@D@std@@V?$allocator@D@2@@std@@@Z
    ??0?$allocator@Vustring@Glib@@@std@@QEAA@XZ
    ?deallocate@?$allocator@Vustring@Glib@@@std@@QEAAXPEAVustring@Glib@@_K@Z
    ?allocate@?$allocator@Vustring@Glib@@@std@@QEAAPEAVustring@Glib@@_K@Z
    ?max_size@?$allocator@Vustring@Glib@@@std@@QEBA_KXZ
    ?max_size@?$allocator_traits@V?$allocator@Vustring@Glib@@@std@@@std@@SA_KAEBV?$allocator@Vustring@Glib@@@2@@Z
    ??0?$_Wrap_alloc@V?$allocator@Vustring@Glib@@@std@@@std@@QEAA@XZ
    ?allocate@?$_Wrap_alloc@V?$allocator@Vustring@Glib@@@std@@@std@@QEAAPEAVustring@Glib@@_K@Z
    ?deallocate@?$_Wrap_alloc@V?$allocator@Vustring@Glib@@@std@@@std@@QEAAXPEAVustring@Glib@@_K@Z
    ?max_size@?$_Wrap_alloc@V?$allocator@Vustring@Glib@@@std@@@std@@QEBA_KU_Nil@2@@Z
    ??0?$_Vector_alloc@U?$_Vec_base_types@Vustring@Glib@@V?$allocator@Vustring@Glib@@@std@@@std@@@std@@QEAA@XZ
    ??1?$_Vector_alloc@U?$_Vec_base_types@Vustring@Glib@@V?$allocator@Vustring@Glib@@@std@@@std@@@std@@QEAA@XZ
    ?_Alloc_proxy@?$_Vector_alloc@U?$_Vec_base_types@Vustring@Glib@@V?$allocator@Vustring@Glib@@@std@@@std@@@std@@QEAAXXZ
    ?_Free_proxy@?$_Vector_alloc@U?$_Vec_base_types@Vustring@Glib@@V?$allocator@Vustring@Glib@@@std@@@std@@@std@@QEAAXXZ
    ?_Myproxy@?$_Vector_alloc@U?$_Vec_base_types@Vustring@Glib@@V?$allocator@Vustring@Glib@@@std@@@std@@@std@@QEAAAEAPEAU_Container_proxy@2@XZ
    ?_Orphan_all@?$_Vector_alloc@U?$_Vec_base_types@Vustring@Glib@@V?$allocator@Vustring@Glib@@@std@@@std@@@std@@QEAAXXZ
    ?_Getal@?$_Vector_alloc@U?$_Vec_base_types@Vustring@Glib@@V?$allocator@Vustring@Glib@@@std@@@std@@@std@@QEAAAEAU?$_Wrap_alloc@V?$allocator@Vustring@Glib@@@std@@@2@XZ
    ?_Getal@?$_Vector_alloc@U?$_Vec_base_types@Vustring@Glib@@V?$allocator@Vustring@Glib@@@std@@@std@@@std@@QEBAAEBU?$_Wrap_alloc@V?$allocator@Vustring@Glib@@@std@@@2@XZ
    ?_Get_data@?$_Vector_alloc@U?$_Vec_base_types@Vustring@Glib@@V?$allocator@Vustring@Glib@@@std@@@std@@@std@@QEAAAEAV?$_Vector_val@U?$_Simple_types@Vustring@Glib@@@std@@@2@XZ
    ?_Get_data@?$_Vector_alloc@U?$_Vec_base_types@Vustring@Glib@@V?$allocator@Vustring@Glib@@@std@@@std@@@std@@QEBAAEBV?$_Vector_val@U?$_Simple_types@Vustring@Glib@@@std@@@2@XZ
    ?_Myfirst@?$_Vector_alloc@U?$_Vec_base_types@Vustring@Glib@@V?$allocator@Vustring@Glib@@@std@@@std@@@std@@QEAAAEAPEAVustring@Glib@@XZ
    ?_Myfirst@?$_Vector_alloc@U?$_Vec_base_types@Vustring@Glib@@V?$allocator@Vustring@Glib@@@std@@@std@@@std@@QEBAAEBQEAVustring@Glib@@XZ
    ?_Mylast@?$_Vector_alloc@U?$_Vec_base_types@Vustring@Glib@@V?$allocator@Vustring@Glib@@@std@@@std@@@std@@QEAAAEAPEAVustring@Glib@@XZ
    ?_Mylast@?$_Vector_alloc@U?$_Vec_base_types@Vustring@Glib@@V?$allocator@Vustring@Glib@@@std@@@std@@@std@@QEBAAEBQEAVustring@Glib@@XZ
    ?_Myend@?$_Vector_alloc@U?$_Vec_base_types@Vustring@Glib@@V?$allocator@Vustring@Glib@@@std@@@std@@@std@@QEAAAEAPEAVustring@Glib@@XZ
    ??0?$_Vector_val@U?$_Simple_types@Vustring@Glib@@@std@@@std@@QEAA@XZ
    ??1?$_Vector_val@U?$_Simple_types@Vustring@Glib@@@std@@@std@@QEAA@XZ
    ?_Get_first@?$_Compressed_pair@U?$_Wrap_alloc@V?$allocator@Vustring@Glib@@@std@@@std@@V?$_Vector_val@U?$_Simple_types@Vustring@Glib@@@std@@@2@$00@std@@QEAAAEAU?$_Wrap_alloc@V?$allocator@Vustring@Glib@@@std@@@2@XZ
    ?_Get_first@?$_Compressed_pair@U?$_Wrap_alloc@V?$allocator@Vustring@Glib@@@std@@@std@@V?$_Vector_val@U?$_Simple_types@Vustring@Glib@@@std@@@2@$00@std@@QEBAAEBU?$_Wrap_alloc@V?$allocator@Vustring@Glib@@@std@@@2@XZ
    ?_Get_second@?$_Compressed_pair@U?$_Wrap_alloc@V?$allocator@Vustring@Glib@@@std@@@std@@V?$_Vector_val@U?$_Simple_types@Vustring@Glib@@@std@@@2@$00@std@@QEAAAEAV?$_Vector_val@U?$_Simple_types@Vustring@Glib@@@std@@@2@XZ
    ?_Get_second@?$_Compressed_pair@U?$_Wrap_alloc@V?$allocator@Vustring@Glib@@@std@@@std@@V?$_Vector_val@U?$_Simple_types@Vustring@Glib@@@std@@@2@$00@std@@QEBAAEBV?$_Vector_val@U?$_Simple_types@Vustring@Glib@@@std@@@2@XZ
    ??1?$_Compressed_pair@U?$_Wrap_alloc@V?$allocator@Vustring@Glib@@@std@@@std@@V?$_Vector_val@U?$_Simple_types@Vustring@Glib@@@std@@@2@$00@std@@QEAA@XZ
    ??0?$vector@Vustring@Glib@@V?$allocator@Vustring@Glib@@@std@@@std@@QEAA@XZ
    ?begin@?$vector@Vustring@Glib@@V?$allocator@Vustring@Glib@@@std@@@std@@QEBA?AV?$_Vector_const_iterator@V?$_Vector_val@U?$_Simple_types@Vustring@Glib@@@std@@@std@@@2@XZ
    ?size@?$vector@Vustring@Glib@@V?$allocator@Vustring@Glib@@@std@@@std@@QEBA_KXZ
    ?max_size@?$vector@Vustring@Glib@@V?$allocator@Vustring@Glib@@@std@@@std@@QEBA_KXZ
    ?_Buy@?$vector@Vustring@Glib@@V?$allocator@Vustring@Glib@@@std@@@std@@IEAA_N_K@Z
    ?_Destroy@?$vector@Vustring@Glib@@V?$allocator@Vustring@Glib@@@std@@@std@@IEAAXPEAVustring@Glib@@0@Z
    ?_Tidy@?$vector@Vustring@Glib@@V?$allocator@Vustring@Glib@@@std@@@std@@IEAAXXZ
    ?_Xlen@?$vector@Vustring@Glib@@V?$allocator@Vustring@Glib@@@std@@@std@@IEBAXXZ
    ?array_to_vector@?$ArrayHandler@Vustring@Glib@@U?$TypeTraits@Vustring@Glib@@@Container_Helpers@2@@Glib@@SA?AV?$vector@Vustring@Glib@@V?$allocator@Vustring@Glib@@@std@@@std@@PEBQEBD_KW4OwnershipType@2@@Z
    ?array_to_vector@?$ArrayHandler@Vustring@Glib@@U?$TypeTraits@Vustring@Glib@@@Container_Helpers@2@@Glib@@SA?AV?$vector@Vustring@Glib@@V?$allocator@Vustring@Glib@@@std@@@std@@PEBQEBDW4OwnershipType@2@@Z
    ?vector_to_array@?$ArrayHandler@Vustring@Glib@@U?$TypeTraits@Vustring@Glib@@@Container_Helpers@2@@Glib@@SA?AV?$ArrayKeeper@U?$TypeTraits@Vustring@Glib@@@Container_Helpers@Glib@@@Container_Helpers@2@AEBV?$vector@Vustring@Glib@@V?$allocator@Vustring@Glib@@@std@@@std@@@Z
    ??0?$ArrayKeeper@U?$TypeTraits@Vustring@Glib@@@Container_Helpers@Glib@@@Container_Helpers@Glib@@QEAA@PEBQEBD_KW4OwnershipType@2@@Z
    ??1?$ArrayKeeper@U?$TypeTraits@Vustring@Glib@@@Container_Helpers@Glib@@@Container_Helpers@Glib@@QEAA@XZ
    ?data@?$ArrayKeeper@U?$TypeTraits@Vustring@Glib@@@Container_Helpers@Glib@@@Container_Helpers@Glib@@QEBAPEAPEBDXZ
    ??1?$RefPtr@VPixbuf@Gdk@@@Glib@@QEAA@XZ
    ??C?$RefPtr@VPixbuf@Gdk@@@Glib@@QEBAPEAVPixbuf@Gdk@@XZ
    ??B?$RefPtr@VPixbuf@Gdk@@@Glib@@QEBA_NXZ
    ?release@?$RefPtr@VPixbuf@Gdk@@@Glib@@QEAAPEAVPixbuf@Gdk@@XZ
    ??$?0VPixbuf@Gdk@@@?$RefPtr@$$CBVPixbuf@Gdk@@@Glib@@QEAA@$$QEAV?$RefPtr@VPixbuf@Gdk@@@1@@Z
    ??$unwrap@VPixbuf@Gdk@@@Glib@@YAPEAU_GdkPixbuf@@AEBV?$RefPtr@VPixbuf@Gdk@@@0@@Z
    ??0?$SignalProxy1@_NAEBV?$basic_string@DU?$char_traits@D@std@@V?$allocator@D@2@@std@@@Glib@@QEAA@PEAVObjectBase@1@PEBUSignalProxyInfo@1@@Z
    ??0?$PropertyProxy@Vustring@Glib@@@Glib@@QEAA@PEAVObjectBase@1@PEBD@Z
    ??0?$PropertyProxy_ReadOnly@Vustring@Glib@@@Glib@@QEAA@PEBVObjectBase@1@PEBD@Z
    ??0?$PropertyProxy@W4License@Gtk@@@Glib@@QEAA@PEAVObjectBase@1@PEBD@Z
    ??0?$PropertyProxy_ReadOnly@W4License@Gtk@@@Glib@@QEAA@PEBVObjectBase@1@PEBD@Z
    ??0?$PropertyProxy@V?$vector@Vustring@Glib@@V?$allocator@Vustring@Glib@@@std@@@std@@@Glib@@QEAA@PEAVObjectBase@1@PEBD@Z
    ??0?$PropertyProxy_ReadOnly@V?$vector@Vustring@Glib@@V?$allocator@Vustring@Glib@@@std@@@std@@@Glib@@QEAA@PEBVObjectBase@1@PEBD@Z
    ??0?$PropertyProxy@V?$RefPtr@VPixbuf@Gdk@@@Glib@@@Glib@@QEAA@PEAVObjectBase@1@PEBD@Z
    ??0?$PropertyProxy_ReadOnly@V?$RefPtr@VPixbuf@Gdk@@@Glib@@@Glib@@QEAA@PEBVObjectBase@1@PEBD@Z
    ??0?$PropertyProxy@_N@Glib@@QEAA@PEAVObjectBase@1@PEBD@Z
    ??0?$PropertyProxy_ReadOnly@_N@Glib@@QEAA@PEBVObjectBase@1@PEBD@Z
    ??$_Debug_pointer@$$CBD@std@@YAXPEBDPEB_WI@Z
    ??$move@AEAU?$_Wrap_alloc@V?$allocator@D@std@@@std@@@std@@YA$$QEAU?$_Wrap_alloc@V?$allocator@D@std@@@0@AEAU10@@Z
    ??$?0U?$_Wrap_alloc@V?$allocator@D@std@@@std@@X@?$_String_alloc@U?$_String_base_types@DV?$allocator@D@std@@@std@@@std@@QEAA@$$QEAU?$_Wrap_alloc@V?$allocator@D@std@@@1@@Z
    ??$forward@V?$basic_string@DU?$char_traits@D@std@@V?$allocator@D@2@@std@@@std@@YA$$QEAV?$basic_string@DU?$char_traits@D@std@@V?$allocator@D@2@@0@AEAV10@@Z
    ??$?0$$V@?$_Compressed_pair@U?$_Wrap_alloc@V?$allocator@D@std@@@std@@V?$_String_val@U?$_Simple_types@D@std@@@2@$00@std@@QEAA@U_Zero_then_variadic_args_t@1@@Z
    ??$destroy@PEAD@?$_Wrap_alloc@V?$allocator@D@std@@@std@@QEAAXPEAPEAD@Z
    ??$addressof@D@std@@YAPEADAEAD@Z
    ??$_Debug_pointer_if@$$CBD@std@@YAX_NPEBDPEB_WI@Z
    ??$construct@PEADAEAPEAD@?$_Wrap_alloc@V?$allocator@D@std@@@std@@QEAAXPEAPEADAEAPEAD@Z
    ?deallocate@?$allocator@U_Container_proxy@std@@@std@@QEAAXPEAU_Container_proxy@2@_K@Z
    ?allocate@?$allocator@U_Container_proxy@std@@@std@@QEAAPEAU_Container_proxy@2@_K@Z
    ?allocate@?$_Wrap_alloc@V?$allocator@U_Container_proxy@std@@@std@@@std@@QEAAPEAU_Container_proxy@2@_K@Z
    ?deallocate@?$_Wrap_alloc@V?$allocator@U_Container_proxy@std@@@std@@@std@@QEAAXPEAU_Container_proxy@2@_K@Z
    ??$?0AEAU?$_Wrap_alloc@V?$allocator@Vustring@Glib@@@std@@@std@@@?$_Wrap_alloc@V?$allocator@U_Container_proxy@std@@@std@@@std@@QEAA@AEAU?$_Wrap_alloc@V?$allocator@Vustring@Glib@@@std@@@1@@Z
    ??$destroy@U_Container_proxy@std@@@?$_Wrap_alloc@V?$allocator@U_Container_proxy@std@@@std@@@std@@QEAAXPEAU_Container_proxy@1@@Z
    ??$_Destroy_range@U?$_Wrap_alloc@V?$allocator@Vustring@Glib@@@std@@@std@@@std@@YAXPEAVustring@Glib@@0AEAU?$_Wrap_alloc@V?$allocator@Vustring@Glib@@@std@@@0@@Z
    ??$construct@U_Container_proxy@std@@U12@@?$_Wrap_alloc@V?$allocator@U_Container_proxy@std@@@std@@@std@@QEAAXPEAU_Container_proxy@1@$$QEAU21@@Z
    ??$?0AEAU?$_Wrap_alloc@V?$allocator@D@std@@@std@@@?$_Wrap_alloc@V?$allocator@U_Container_proxy@std@@@std@@@std@@QEAA@AEAU?$_Wrap_alloc@V?$allocator@D@std@@@1@@Z
    ??$compute_array_size2@PEBD@Container_Helpers@Glib@@YA_KPEBQEBD@Z
    ??0?$_Iterator012@Urandom_access_iterator_tag@std@@Vustring@Glib@@_JPEBV34@AEBV34@U_Iterator_base12@2@@std@@QEAA@XZ
    ??1?$_Iterator012@Urandom_access_iterator_tag@std@@Vustring@Glib@@_JPEBV34@AEBV34@U_Iterator_base12@2@@std@@QEAA@XZ
    ??0?$_Vector_const_iterator@V?$_Vector_val@U?$_Simple_types@Vustring@Glib@@@std@@@std@@@std@@QEAA@PEAVustring@Glib@@PEBU_Container_base12@1@@Z
    ??D?$_Vector_const_iterator@V?$_Vector_val@U?$_Simple_types@Vustring@Glib@@@std@@@std@@@std@@QEBAAEBVustring@Glib@@XZ
    ??E?$_Vector_const_iterator@V?$_Vector_val@U?$_Simple_types@Vustring@Glib@@@std@@@std@@@std@@QEAAAEAV01@XZ
    ??1?$_Vector_const_iterator@V?$_Vector_val@U?$_Simple_types@Vustring@Glib@@@std@@@std@@@std@@QEAA@XZ
    ??$create_array@U?$TypeTraits@Vustring@Glib@@@Container_Helpers@Glib@@@Container_Helpers@Glib@@YAPEAPEBDV?$_Vector_const_iterator@V?$_Vector_val@U?$_Simple_types@Vustring@Glib@@@std@@@std@@@std@@_K@Z
    ??$forward@U?$_Wrap_alloc@V?$allocator@D@std@@@std@@@std@@YA$$QEAU?$_Wrap_alloc@V?$allocator@D@std@@@0@AEAU10@@Z
    ??$?0U?$_Wrap_alloc@V?$allocator@D@std@@@std@@$$V@?$_Compressed_pair@U?$_Wrap_alloc@V?$allocator@D@std@@@std@@V?$_String_val@U?$_Simple_types@D@std@@@2@$00@std@@QEAA@U_One_then_variadic_args_t@1@$$QEAU?$_Wrap_alloc@V?$allocator@D@std@@@1@@Z
    ??$destroy@PEAD@?$allocator_traits@V?$allocator@D@std@@@std@@SAXAEAV?$allocator@D@1@PEAPEAD@Z
    ??$_Addressof@D@std@@YAPEADAEADU?$integral_constant@_N$0A@@0@@Z
    ??$forward@AEAPEAD@std@@YAAEAPEADAEAPEAD@Z
    ??$construct@PEADAEAPEAD@?$allocator_traits@V?$allocator@D@std@@@std@@SAXAEAV?$allocator@D@1@PEAPEADAEAPEAD@Z
    ??$forward@AEAU?$_Wrap_alloc@V?$allocator@Vustring@Glib@@@std@@@std@@@std@@YAAEAU?$_Wrap_alloc@V?$allocator@Vustring@Glib@@@std@@@0@AEAU10@@Z
    ??$?0Vustring@Glib@@@?$allocator@U_Container_proxy@std@@@std@@QEAA@AEBV?$allocator@Vustring@Glib@@@1@@Z
    ??$destroy@U_Container_proxy@std@@@?$allocator_traits@V?$allocator@U_Container_proxy@std@@@std@@@std@@SAXAEAV?$allocator@U_Container_proxy@std@@@1@PEAU_Container_proxy@1@@Z
    ??$addressof@Vustring@Glib@@@std@@YAPEAVustring@Glib@@AEAV12@@Z
    ??$destroy@Vustring@Glib@@@?$_Wrap_alloc@V?$allocator@Vustring@Glib@@@std@@@std@@QEAAXPEAVustring@Glib@@@Z
    ??$forward@U_Container_proxy@std@@@std@@YA$$QEAU_Container_proxy@0@AEAU10@@Z
    ??$construct@U_Container_proxy@std@@U12@@?$allocator_traits@V?$allocator@U_Container_proxy@std@@@std@@@std@@SAXAEAV?$allocator@U_Container_proxy@std@@@1@PEAU_Container_proxy@1@$$QEAU31@@Z
    ??$forward@AEAU?$_Wrap_alloc@V?$allocator@D@std@@@std@@@std@@YAAEAU?$_Wrap_alloc@V?$allocator@D@std@@@0@AEAU10@@Z
    ??$?0D@?$allocator@U_Container_proxy@std@@@std@@QEAA@AEBV?$allocator@D@1@@Z
    ??0?$ArrayIterator@U?$TypeTraits@Vustring@Glib@@@Container_Helpers@Glib@@@Container_Helpers@Glib@@QEAA@PEBQEBD@Z
    ??D?$ArrayIterator@U?$TypeTraits@Vustring@Glib@@@Container_Helpers@Glib@@@Container_Helpers@Glib@@QEBA?AVustring@2@XZ
    ??E?$ArrayIterator@U?$TypeTraits@Vustring@Glib@@@Container_Helpers@Glib@@@Container_Helpers@Glib@@QEAAAEAV012@XZ
    ??G?$ArrayIterator@U?$TypeTraits@Vustring@Glib@@@Container_Helpers@Glib@@@Container_Helpers@Glib@@QEBA_JAEBV012@@Z
    ??9?$ArrayIterator@U?$TypeTraits@Vustring@Glib@@@Container_Helpers@Glib@@@Container_Helpers@Glib@@QEBA_NAEBV012@@Z
    ??$?0V?$ArrayIterator@U?$TypeTraits@Vustring@Glib@@@Container_Helpers@Glib@@@Container_Helpers@Glib@@X@?$vector@Vustring@Glib@@V?$allocator@Vustring@Glib@@@std@@@std@@QEAA@V?$ArrayIterator@U?$TypeTraits@Vustring@Glib@@@Container_Helpers@Glib@@@Container_Helpers@Glib@@0@Z
    ??$destroy@PEAD@?$allocator@D@std@@QEAAXPEAPEAD@Z
    ??$construct@PEADAEAPEAD@?$allocator@D@std@@QEAAXPEAPEADAEAPEAD@Z
    ??$destroy@U_Container_proxy@std@@@?$allocator@U_Container_proxy@std@@@std@@QEAAXPEAU_Container_proxy@1@@Z
    ??$_Addressof@Vustring@Glib@@@std@@YAPEAVustring@Glib@@AEAV12@U?$integral_constant@_N$0A@@0@@Z
    ??$destroy@Vustring@Glib@@@?$allocator_traits@V?$allocator@Vustring@Glib@@@std@@@std@@SAXAEAV?$allocator@Vustring@Glib@@@1@PEAVustring@Glib@@@Z
    ??$construct@U_Container_proxy@std@@U12@@?$allocator@U_Container_proxy@std@@@std@@QEAAXPEAU_Container_proxy@1@$$QEAU21@@Z
    ??$?0$$V@?$_Compressed_pair@U?$_Wrap_alloc@V?$allocator@Vustring@Glib@@@std@@@std@@V?$_Vector_val@U?$_Simple_types@Vustring@Glib@@@std@@@2@$00@std@@QEAA@U_Zero_then_variadic_args_t@1@@Z
    ??$_Construct@V?$ArrayIterator@U?$TypeTraits@Vustring@Glib@@@Container_Helpers@Glib@@@Container_Helpers@Glib@@@?$vector@Vustring@Glib@@V?$allocator@Vustring@Glib@@@std@@@std@@QEAAXV?$ArrayIterator@U?$TypeTraits@Vustring@Glib@@@Container_Helpers@Glib@@@Container_Helpers@Glib@@0@Z
    ??$destroy@Vustring@Glib@@@?$allocator@Vustring@Glib@@@std@@QEAAXPEAVustring@Glib@@@Z
    ??$_Iter_cat@V?$ArrayIterator@U?$TypeTraits@Vustring@Glib@@@Container_Helpers@Glib@@@Container_Helpers@Glib@@@std@@YA?AUrandom_access_iterator_tag@0@AEBV?$ArrayIterator@U?$TypeTraits@Vustring@Glib@@@Container_Helpers@Glib@@@Container_Helpers@Glib@@@Z
    ??$_Construct@V?$ArrayIterator@U?$TypeTraits@Vustring@Glib@@@Container_Helpers@Glib@@@Container_Helpers@Glib@@@?$vector@Vustring@Glib@@V?$allocator@Vustring@Glib@@@std@@@std@@QEAAXV?$ArrayIterator@U?$TypeTraits@Vustring@Glib@@@Container_Helpers@Glib@@@Container_Helpers@Glib@@0Uforward_iterator_tag@1@@Z
    ??$distance@V?$ArrayIterator@U?$TypeTraits@Vustring@Glib@@@Container_Helpers@Glib@@@Container_Helpers@Glib@@@std@@YA_JV?$ArrayIterator@U?$TypeTraits@Vustring@Glib@@@Container_Helpers@Glib@@@Container_Helpers@Glib@@0@Z
    ??$_Ucopy@V?$ArrayIterator@U?$TypeTraits@Vustring@Glib@@@Container_Helpers@Glib@@@Container_Helpers@Glib@@@?$vector@Vustring@Glib@@V?$allocator@Vustring@Glib@@@std@@@std@@IEAAPEAVustring@Glib@@V?$ArrayIterator@U?$TypeTraits@Vustring@Glib@@@Container_Helpers@Glib@@@Container_Helpers@3@0PEAV23@@Z
    ??$_Distance2@V?$ArrayIterator@U?$TypeTraits@Vustring@Glib@@@Container_Helpers@Glib@@@Container_Helpers@Glib@@_J@std@@YAXV?$ArrayIterator@U?$TypeTraits@Vustring@Glib@@@Container_Helpers@Glib@@@Container_Helpers@Glib@@0AEA_JUrandom_access_iterator_tag@0@@Z
    ??$_Uninitialized_copy@V?$ArrayIterator@U?$TypeTraits@Vustring@Glib@@@Container_Helpers@Glib@@@Container_Helpers@Glib@@PEAVustring@3@U?$_Wrap_alloc@V?$allocator@Vustring@Glib@@@std@@@std@@@std@@YAPEAVustring@Glib@@V?$ArrayIterator@U?$TypeTraits@Vustring@Glib@@@Container_Helpers@Glib@@@Container_Helpers@2@0PEAV12@AEAU?$_Wrap_alloc@V?$allocator@Vustring@Glib@@@std@@@0@@Z
    ??$_Debug_pointer@V?$ArrayIterator@U?$TypeTraits@Vustring@Glib@@@Container_Helpers@Glib@@@Container_Helpers@Glib@@@std@@YAXAEAV?$ArrayIterator@U?$TypeTraits@Vustring@Glib@@@Container_Helpers@Glib@@@Container_Helpers@Glib@@PEB_WI@Z
    ??$_Unchecked@V?$ArrayIterator@U?$TypeTraits@Vustring@Glib@@@Container_Helpers@Glib@@@Container_Helpers@Glib@@@std@@YA?AV?$ArrayIterator@U?$TypeTraits@Vustring@Glib@@@Container_Helpers@Glib@@@Container_Helpers@Glib@@V123@@Z
    ??$_Unchecked@PEAVustring@Glib@@@std@@YAPEAVustring@Glib@@PEAV12@@Z
    ??$_Uninitialized_copy_al_unchecked@V?$ArrayIterator@U?$TypeTraits@Vustring@Glib@@@Container_Helpers@Glib@@@Container_Helpers@Glib@@PEAVustring@3@U?$_Wrap_alloc@V?$allocator@Vustring@Glib@@@std@@@std@@@std@@YAPEAVustring@Glib@@V?$ArrayIterator@U?$TypeTraits@Vustring@Glib@@@Container_Helpers@Glib@@@Container_Helpers@2@0PEAV12@AEAU?$_Wrap_alloc@V?$allocator@Vustring@Glib@@@std@@@0@@Z
    ??$_Rechecked@PEAVustring@Glib@@PEAV12@@std@@YAAEAPEAVustring@Glib@@AEAPEAV12@PEAV12@@Z
    ??$_Ptr_copy_cat@V?$ArrayIterator@U?$TypeTraits@Vustring@Glib@@@Container_Helpers@Glib@@@Container_Helpers@Glib@@PEAVustring@3@@std@@YA?AU_General_ptr_iterator_tag@0@AEBV?$ArrayIterator@U?$TypeTraits@Vustring@Glib@@@Container_Helpers@Glib@@@Container_Helpers@Glib@@AEBQEAVustring@4@@Z
    ??$_Uninitialized_copy_al_unchecked1@V?$ArrayIterator@U?$TypeTraits@Vustring@Glib@@@Container_Helpers@Glib@@@Container_Helpers@Glib@@PEAVustring@3@V?$allocator@Vustring@Glib@@@std@@@std@@YAPEAVustring@Glib@@V?$ArrayIterator@U?$TypeTraits@Vustring@Glib@@@Container_Helpers@Glib@@@Container_Helpers@2@0PEAV12@AEAU?$_Wrap_alloc@V?$allocator@Vustring@Glib@@@std@@@0@U_General_ptr_iterator_tag@0@@Z
    ??$construct@Vustring@Glib@@V12@@?$_Wrap_alloc@V?$allocator@Vustring@Glib@@@std@@@std@@QEAAXPEAVustring@Glib@@$$QEAV23@@Z
    ??$forward@Vustring@Glib@@@std@@YA$$QEAVustring@Glib@@AEAV12@@Z
    ??$construct@Vustring@Glib@@V12@@?$allocator_traits@V?$allocator@Vustring@Glib@@@std@@@std@@SAXAEAV?$allocator@Vustring@Glib@@@1@PEAVustring@Glib@@$$QEAV34@@Z
    ??$construct@Vustring@Glib@@V12@@?$allocator@Vustring@Glib@@@std@@QEAAXPEAVustring@Glib@@$$QEAV23@@Z
    ?destroy_notify_@Object@Gtk@@$2PPPPPPPM@BA@EAAXXZ
    ?set_manage@Window@Gtk@@$4PPPPPPPM@A@EAAXXZ
    ??_C@_1GG@JLKIFLPB@?$AAD?$AA?3?$AA?2?$AAG?$AAi?$AAt?$AAH?$AAu?$AAb?$AA?2?$AAI?$AAn?$AAs?$AAt?$AAa?$AAl?$AAl?$AA?2?$AAV?$AAi?$AAs?$AAu?$AAa?$AAl?$AAS?$AAt?$AAu?$AAd?$AAi?$AAo?$AA?2?$AAV@
    ??_C@_1DC@POOIKBAO@?$AAI?$AAT?$AAE?$AAR?$AAA?$AAT?$AAO?$AAR?$AA?5?$AAL?$AAI?$AAS?$AAT?$AA?5?$AAC?$AAO?$AAR?$AAR?$AAU?$AAP?$AAT?$AAE?$AAD?$AA?$CB?$AA?$AA@
    ??_C@_0BE@LMNLACIC@_Ptr_container?5?$CB?$DN?50?$AA@
    ??_C@_1DG@HGDKEBPG@?$AA?$CC?$AA_?$AAP?$AAt?$AAr?$AA_?$AAc?$AAo?$AAn?$AAt?$AAa?$AAi?$AAn?$AAe?$AAr?$AA?5?$AA?$CB?$AA?$DN?$AA?5?$AA0?$AA?$CC?$AA?5?$AA?$CG?$AA?$CG?$AA?5?$AA0?$AA?$AA@
    ??_C@_17CNPHIMPH@?$AA?$CF?$AAl?$AAs?$AA?$AA@
    ??_C@_1GG@GGEDIOFC@?$AAD?$AA?3?$AA?2?$AAG?$AAi?$AAt?$AAH?$AAu?$AAb?$AA?2?$AAI?$AAn?$AAs?$AAt?$AAa?$AAl?$AAl?$AA?2?$AAV?$AAi?$AAs?$AAu?$AAa?$AAl?$AAS?$AAt?$AAu?$AAd?$AAi?$AAo?$AA?2?$AAV@
    ??_C@_1BO@NKFMJPA@?$AAs?$AAt?$AAd?$AA?3?$AA?3?$AA_?$AAA?$AAl?$AAl?$AAo?$AAc?$AAa?$AAt?$AAe?$AA?$AA@
    ??_C@_1CG@JNLFBNGN@?$AA?$CC?$AAi?$AAn?$AAv?$AAa?$AAl?$AAi?$AAd?$AA?5?$AAa?$AAr?$AAg?$AAu?$AAm?$AAe?$AAn?$AAt?$AA?$CC?$AA?$AA@
    ??_C@_09GLJCAGLP@_Ptr?5?$CB?$DN?50?$AA@
    ??_C@_1CC@GKJLLHIM@?$AA?$CC?$AA_?$AAP?$AAt?$AAr?$AA?5?$AA?$CB?$AA?$DN?$AA?5?$AA0?$AA?$CC?$AA?5?$AA?$CG?$AA?$CG?$AA?5?$AA0?$AA?$AA@
    ??_C@_0BN@HMCJOMKN@_Count?5?$DM?$DN?5?$CIsize_t?$CJ?$CI?91?$CJ?5?1?5_Sz?$AA@
    ??_C@_1EI@MLOBABC@?$AA?$CC?$AA_?$AAC?$AAo?$AAu?$AAn?$AAt?$AA?5?$AA?$DM?$AA?$DN?$AA?5?$AA?$CI?$AAs?$AAi?$AAz?$AAe?$AA_?$AAt?$AA?$CJ?$AA?$CI?$AA?9?$AA1?$AA?$CJ?$AA?5?$AA?1?$AA?5?$AA_?$AAS?$AAz?$AA?$CC?$AA?5?$AA?$CG@
    ??_C@_1CC@LOFJFFDB@?$AAs?$AAt?$AAd?$AA?3?$AA?3?$AA_?$AAD?$AAe?$AAa?$AAl?$AAl?$AAo?$AAc?$AAa?$AAt?$AAe?$AA?$AA@
    ??_C@_0DD@GBGGGKGG@?$CI_Ptr_user?5?$CG?5?$CI_BIG_ALLOCATION_AL@
    ??_C@_1HE@CDMBFOKC@?$AA?$CC?$AA?$CI?$AA_?$AAP?$AAt?$AAr?$AA_?$AAu?$AAs?$AAe?$AAr?$AA?5?$AA?$CG?$AA?5?$AA?$CI?$AA_?$AAB?$AAI?$AAG?$AA_?$AAA?$AAL?$AAL?$AAO?$AAC?$AAA?$AAT?$AAI?$AAO?$AAN?$AA_?$AAA@
    ??_C@_0EI@NOJHEJCJ@reinterpret_cast?$DMuintptr_t?5?$CK?$DO?$CI_P@
    ??_C@_1JO@EKLKIEHP@?$AA?$CC?$AAr?$AAe?$AAi?$AAn?$AAt?$AAe?$AAr?$AAp?$AAr?$AAe?$AAt?$AA_?$AAc?$AAa?$AAs?$AAt?$AA?$DM?$AAu?$AAi?$AAn?$AAt?$AAp?$AAt?$AAr?$AA_?$AAt?$AA?5?$AA?$CK?$AA?$DO?$AA?$CI?$AA_@
    ??_C@_0BL@OCKMEJON@_Ptr_container?5?$DM?5_Ptr_user?$AA@
    ??_C@_1EE@PDHAHDDC@?$AA?$CC?$AA_?$AAP?$AAt?$AAr?$AA_?$AAc?$AAo?$AAn?$AAt?$AAa?$AAi?$AAn?$AAe?$AAr?$AA?5?$AA?$DM?$AA?5?$AA_?$AAP?$AAt?$AAr?$AA_?$AAu?$AAs?$AAe?$AAr?$AA?$CC?$AA?5?$AA?$CG?$AA?$CG?$AA?5@
    ??_C@_0DB@GLFJLNCE@2?5?$CK?5sizeof?$CIvoid?5?$CK?$CJ?5?$DM?$DN?5_Ptr_user?5@
    ??_C@_1HA@NAPGMHAO@?$AA?$CC?$AA2?$AA?5?$AA?$CK?$AA?5?$AAs?$AAi?$AAz?$AAe?$AAo?$AAf?$AA?$CI?$AAv?$AAo?$AAi?$AAd?$AA?5?$AA?$CK?$AA?$CJ?$AA?5?$AA?$DM?$AA?$DN?$AA?5?$AA_?$AAP?$AAt?$AAr?$AA_?$AAu?$AAs?$AAe?$AAr@
    ??_C@_0CN@BLHJCAL@_Ptr_user?5?9?5_Ptr_container?5?$DM?$DN?5_N@
    ??_C@_1GI@DHJGPFNI@?$AA?$CC?$AA_?$AAP?$AAt?$AAr?$AA_?$AAu?$AAs?$AAe?$AAr?$AA?5?$AA?9?$AA?5?$AA_?$AAP?$AAt?$AAr?$AA_?$AAc?$AAo?$AAn?$AAt?$AAa?$AAi?$AAn?$AAe?$AAr?$AA?5?$AA?$DM?$AA?$DN?$AA?5?$AA_@
    ??_7AboutDialog@Gtk@@6BImplementor@Atk@@@
    ??_7AboutDialog@Gtk@@6B@
    ??_8AboutDialog@Gtk@@7BObject@Glib@@@
    ??_8AboutDialog@Gtk@@7BInterface@Glib@@Buildable@1@@
    ??_8AboutDialog@Gtk@@7BInterface@Glib@@Implementor@Atk@@@
    ??_8AboutDialog@Gtk@@7BObjectBase@Glib@@@
    ??_R0?AVObjectBase@Glib@@@8
    ??_R0?AVAboutDialog@Gtk@@@8
    ??_C@_0CE@OFMIGAMM@Standard?5C?$CL?$CL?5Libraries?5Out?5of?5Ra@
    ??_C@_1FG@IBPIFFN@?$AA?$CC?$AAS?$AAt?$AAa?$AAn?$AAd?$AAa?$AAr?$AAd?$AA?5?$AAC?$AA?$CL?$AA?$CL?$AA?5?$AAL?$AAi?$AAb?$AAr?$AAa?$AAr?$AAi?$AAe?$AAs?$AA?5?$AAO?$AAu?$AAt?$AA?5?$AAo?$AAf?$AA?5?$AAR@
    ??_C@_1BO@MEPPHOO@?$AA?$CC?$AAo?$AAu?$AAt?$AA?5?$AAo?$AAf?$AA?5?$AAr?$AAa?$AAn?$AAg?$AAe?$AA?$CC?$AA?$AA@
    ??_C@_1GE@FLAOGAAP@?$AAD?$AA?3?$AA?2?$AAG?$AAi?$AAt?$AAH?$AAu?$AAb?$AA?2?$AAI?$AAn?$AAs?$AAt?$AAa?$AAl?$AAl?$AA?2?$AAV?$AAi?$AAs?$AAu?$AAa?$AAl?$AAS?$AAt?$AAu?$AAd?$AAi?$AAo?$AA?2?$AAV@
    ??_C@_0BA@JFNIOLAK@string?5too?5long?$AA@
    ??_C@_0BI@CFPLBAOH@invalid?5string?5position?$AA@
    ??_C@_1CK@EOPGIILJ@?$AAi?$AAn?$AAv?$AAa?$AAl?$AAi?$AAd?$AA?5?$AAn?$AAu?$AAl?$AAl?$AA?5?$AAp?$AAo?$AAi?$AAn?$AAt?$AAe?$AAr?$AA?$AA@
    ??_C@_1GC@GDINDADF@?$AAD?$AA?3?$AA?2?$AAG?$AAi?$AAt?$AAH?$AAu?$AAb?$AA?2?$AAI?$AAn?$AAs?$AAt?$AAa?$AAl?$AAl?$AA?2?$AAV?$AAi?$AAs?$AAu?$AAa?$AAl?$AAS?$AAt?$AAu?$AAd?$AAi?$AAo?$AA?2?$AAV@
    ??_C@_1EE@EJDKCLKB@?$AAv?$AAe?$AAc?$AAt?$AAo?$AAr?$AA?5?$AAi?$AAt?$AAe?$AAr?$AAa?$AAt?$AAo?$AAr?$AA?5?$AAn?$AAo?$AAt?$AA?5?$AAi?$AAn?$AAc?$AAr?$AAe?$AAm?$AAe?$AAn?$AAt?$AAa?$AAb?$AAl@
    ??_C@_1OG@NIJLJENJ@?$AAs?$AAt?$AAd?$AA?3?$AA?3?$AA_?$AAV?$AAe?$AAc?$AAt?$AAo?$AAr?$AA_?$AAc?$AAo?$AAn?$AAs?$AAt?$AA_?$AAi?$AAt?$AAe?$AAr?$AAa?$AAt?$AAo?$AAr?$AA?$DM?$AAc?$AAl?$AAa?$AAs@
    ??_C@_1EG@FOHJJHAC@?$AAv?$AAe?$AAc?$AAt?$AAo?$AAr?$AA?5?$AAi?$AAt?$AAe?$AAr?$AAa?$AAt?$AAo?$AAr?$AA?5?$AAn?$AAo?$AAt?$AA?5?$AAd?$AAe?$AAr?$AAe?$AAf?$AAe?$AAr?$AAe?$AAn?$AAc?$AAa?$AAb@
    ??_C@_1OE@HIGHLMEG@?$AAs?$AAt?$AAd?$AA?3?$AA?3?$AA_?$AAV?$AAe?$AAc?$AAt?$AAo?$AAr?$AA_?$AAc?$AAo?$AAn?$AAs?$AAt?$AA_?$AAi?$AAt?$AAe?$AAr?$AAa?$AAt?$AAo?$AAr?$AA?$DM?$AAc?$AAl?$AAa?$AAs@
    ??_C@_0BD@OLBABOEK@vector?$DMT?$DO?5too?5long?$AA@
    ??_R4AboutDialog@Gtk@@6BImplementor@Atk@@@
    ??_R3AboutDialog@Gtk@@8
    ??_R2AboutDialog@Gtk@@8
    ??_R1A@?0A@EA@AboutDialog@Gtk@@8
    ??_R1A@?0A@EA@Dialog@Gtk@@8
    ??_R0?AVDialog@Gtk@@@8
    ??_R3Dialog@Gtk@@8
    ??_R2Dialog@Gtk@@8
    ??_R1A@?0A@EA@Window@Gtk@@8
    ??_R0?AVWindow@Gtk@@@8
    ??_R3Window@Gtk@@8
    ??_R2Window@Gtk@@8
    ??_R1A@?0A@EA@Bin@Gtk@@8
    ??_R0?AVBin@Gtk@@@8
    ??_R3Bin@Gtk@@8
    ??_R2Bin@Gtk@@8
    ??_R1A@?0A@EA@Container@Gtk@@8
    ??_R0?AVContainer@Gtk@@@8
    ??_R3Container@Gtk@@8
    ??_R2Container@Gtk@@8
    ??_R1A@?0A@EA@Widget@Gtk@@8
    ??_R0?AVWidget@Gtk@@@8
    ??_R3Widget@Gtk@@8
    ??_R2Widget@Gtk@@8
    ??_R1BA@?0A@EA@Object@Gtk@@8
    ??_R0?AVObject@Gtk@@@8
    ??_R3Object@Gtk@@8
    ??_R2Object@Gtk@@8
    ??_R1A@?0A@EA@Object@Gtk@@8
    ??_R1A@?0A@EA@Object@Glib@@8
    ??_R0?AVObject@Glib@@@8
    ??_R3Object@Glib@@8
    ??_R2Object@Glib@@8
    ??_R1A@A@7FA@ObjectBase@Glib@@8
    ??_R3ObjectBase@Glib@@8
    ??_R2ObjectBase@Glib@@8
    ??_R1A@?0A@EA@ObjectBase@Glib@@8
    ??_R1A@73FA@trackable@sigc@@8
    ??_R0?AUtrackable@sigc@@@8
    ??_R3trackable@sigc@@8
    ??_R2trackable@sigc@@8
    ??_R1A@?0A@EA@trackable@sigc@@8
    ??_R1A@A@3FA@trackable@sigc@@8
    ??_R1BA@?0A@EA@Object@Glib@@8
    ??_R1A@BA@7FA@ObjectBase@Glib@@8
    ??_R1A@BA@3FA@trackable@sigc@@8
    ??_R1CA@?0A@EA@Buildable@Gtk@@8
    ??_R0?AVBuildable@Gtk@@@8
    ??_R3Buildable@Gtk@@8
    ??_R2Buildable@Gtk@@8
    ??_R1A@?0A@EA@Buildable@Gtk@@8
    ??_R1A@?0A@EA@Interface@Glib@@8
    ??_R0?AVInterface@Glib@@@8
    ??_R3Interface@Glib@@8
    ??_R2Interface@Glib@@8
    ??_R1CA@?0A@EC@Interface@Glib@@8
    ??_R1A@?0A@EA@Implementor@Atk@@8
    ??_R0?AVImplementor@Atk@@@8
    ??_R3Implementor@Atk@@8
    ??_R2Implementor@Atk@@8
    ??_R17?0A@EA@Interface@Glib@@8
    ??_R1A@77FA@ObjectBase@Glib@@8
    ??_R17?0A@EC@Interface@Glib@@8
    ??_R4AboutDialog@Gtk@@6B@
    ?accelgroup_class_@AccelGroup@Gtk@@0VAccelGroup_Class@2@A
    ?__empty_global_delete@@YAXPEAX@Z
    ?__empty_global_delete@@YAXPEAX_K@Z
    ?get_type@Class@Glib@@QEBA_KXZ
    ?data_to_slot@SignalProxyBase@Glib@@SAPEAVslot_base@sigc@@PEAX@Z
    ?convert_return_gchar_ptr_to_ustring@Glib@@YA?AVustring@1@PEAD@Z
    ??0?$ScopedPtr@D@Glib@@QEAA@PEAD@Z
    ??1?$ScopedPtr@D@Glib@@QEAA@XZ
    ?get@?$ScopedPtr@D@Glib@@QEBAPEADXZ
    ??0AccelGroup@Gtk@@IEAA@AEBVConstructParams@Glib@@@Z
    ??0AccelGroup@Gtk@@IEAA@PEAU_GtkAccelGroup@@@Z
    ??1AccelGroup@Gtk@@UEAA@XZ
    ?get_type@AccelGroup@Gtk@@SA_KXZ
    ?get_base_type@AccelGroup@Gtk@@SA_KXZ
    ?gobj@AccelGroup@Gtk@@QEAAPEAU_GtkAccelGroup@@XZ
    ?gobj@AccelGroup@Gtk@@QEBAPEBU_GtkAccelGroup@@XZ
    ?gobj_copy@AccelGroup@Gtk@@QEAAPEAU_GtkAccelGroup@@XZ
    ??0AccelGroup@Gtk@@IEAA@XZ
    ?create@AccelGroup@Gtk@@SA?AV?$RefPtr@VAccelGroup@Gtk@@@Glib@@XZ
    ?get_is_locked@AccelGroup@Gtk@@QEBA_NXZ
    ?get_modifier_mask@AccelGroup@Gtk@@QEBA?AW4ModifierType@Gdk@@XZ
    ?lock@AccelGroup@Gtk@@QEAAXXZ
    ?unlock@AccelGroup@Gtk@@QEAAXXZ
    ?disconnect_key@AccelGroup@Gtk@@QEAA_NIW4ModifierType@Gdk@@@Z
    ?valid@AccelGroup@Gtk@@SA_NIW4ModifierType@Gdk@@@Z
    ?parse@AccelGroup@Gtk@@SAXAEBVustring@Glib@@AEAIAEAW4ModifierType@Gdk@@@Z
    ?name@AccelGroup@Gtk@@SA?AVustring@Glib@@IW4ModifierType@Gdk@@@Z
    ?get_label@AccelGroup@Gtk@@SA?AVustring@Glib@@IW4ModifierType@Gdk@@@Z
    ?set_default_mod_mask@AccelGroup@Gtk@@SAXW4ModifierType@Gdk@@@Z
    ?get_default_mod_mask@AccelGroup@Gtk@@SA?AW4ModifierType@Gdk@@XZ
    ?activate@AccelGroup@Gtk@@QEAA_NIAEBV?$RefPtr@VObject@Glib@@@Glib@@IW4ModifierType@Gdk@@@Z
    ?signal_accel_activate@AccelGroup@Gtk@@QEAA?AV?$SignalProxy3@_NAEBV?$RefPtr@VObject@Glib@@@Glib@@IW4ModifierType@Gdk@@@Glib@@XZ
    ?signal_accel_changed@AccelGroup@Gtk@@QEAA?AV?$SignalProxy3@XIW4ModifierType@Gdk@@PEAU_GClosure@@@Glib@@XZ
    ?property_is_locked@AccelGroup@Gtk@@QEBA?AV?$PropertyProxy_ReadOnly@_N@Glib@@XZ
    ?property_modifier_mask@AccelGroup@Gtk@@QEBA?AV?$PropertyProxy_ReadOnly@W4ModifierType@Gdk@@@Glib@@XZ
    ??_DAccelGroup@Gtk@@QEAAXXZ
    ?wrap@Glib@@YA?AV?$RefPtr@VAccelGroup@Gtk@@@1@PEAU_GtkAccelGroup@@_N@Z
    ?init@AccelGroup_Class@Gtk@@QEAAAEBVClass@Glib@@XZ
    ?class_init_function@AccelGroup_Class@Gtk@@SAXPEAX0@Z
    ?wrap_new@AccelGroup_Class@Gtk@@SAPEAVObjectBase@Glib@@PEAU_GObject@@@Z
    ??R?$slot3@_NAEBV?$RefPtr@VObject@Glib@@@Glib@@IW4ModifierType@Gdk@@@sigc@@QEBA_NAEBV?$RefPtr@VObject@Glib@@@Glib@@AEBIAEBW4ModifierType@Gdk@@@Z
    ??1?$RefPtr@VObject@Glib@@@Glib@@QEAA@XZ
    ??C?$RefPtr@VObject@Glib@@@Glib@@QEBAPEAVObject@1@XZ
    ??B?$RefPtr@VObject@Glib@@@Glib@@QEBA_NXZ
    ??R?$slot3@XAEBV?$RefPtr@VObject@Glib@@@Glib@@IW4ModifierType@Gdk@@@sigc@@QEBAXAEBV?$RefPtr@VObject@Glib@@@Glib@@AEBIAEBW4ModifierType@Gdk@@@Z
    ??R?$slot3@XIW4ModifierType@Gdk@@PEAU_GClosure@@@sigc@@QEBAXAEBIAEBW4ModifierType@Gdk@@AEBQEAU_GClosure@@@Z
    ??0?$RefPtr@VAccelGroup@Gtk@@@Glib@@QEAA@PEAVAccelGroup@Gtk@@@Z
    ??$unwrap@VObject@Glib@@@Glib@@YAPEAU_GObject@@AEBV?$RefPtr@VObject@Glib@@@0@@Z
    ??0?$SignalProxy3@_NAEBV?$RefPtr@VObject@Glib@@@Glib@@IW4ModifierType@Gdk@@@Glib@@QEAA@PEAVObjectBase@1@PEBUSignalProxyInfo@1@@Z
    ??0?$SignalProxy3@XIW4ModifierType@Gdk@@PEAU_GClosure@@@Glib@@QEAA@PEAVObjectBase@1@PEBUSignalProxyInfo@1@@Z
    ??0?$PropertyProxy_ReadOnly@_N@Glib@@QEAA@PEBVObjectBase@1@PEBD@Z
    ??0?$PropertyProxy_ReadOnly@W4ModifierType@Gdk@@@Glib@@QEAA@PEBVObjectBase@1@PEBD@Z
    ??_7AccelGroup@Gtk@@6B@
    ??_8AccelGroup@Gtk@@7BObject@Glib@@@
    ??_8AccelGroup@Gtk@@7BObjectBase@Glib@@@
    ??_R0?AVObjectBase@Glib@@@8
    ??_R0?AVAccelGroup@Gtk@@@8
    ??_R4AccelGroup@Gtk@@6B@
    ??_R3AccelGroup@Gtk@@8
    ??_R2AccelGroup@Gtk@@8
    ??_R1A@?0A@EA@AccelGroup@Gtk@@8
    ??_R1A@?0A@EA@Object@Glib@@8
    ??_R0?AVObject@Glib@@@8
    ??_R3Object@Glib@@8
    ??_R2Object@Glib@@8
    ??_R1A@A@7FA@ObjectBase@Glib@@8
    ??_R3ObjectBase@Glib@@8
    ??_R2ObjectBase@Glib@@8
    ??_R1A@?0A@EA@ObjectBase@Glib@@8
    ??_R1A@73FA@trackable@sigc@@8
    ??_R0?AUtrackable@sigc@@@8
    ??_R3trackable@sigc@@8
    ??_R2trackable@sigc@@8
    ??_R1A@?0A@EA@trackable@sigc@@8
    ??_R1A@A@3FA@trackable@sigc@@8
    ?__empty_global_delete@@YAXPEAX@Z
    ?__empty_global_delete@@YAXPEAX_K@Z
    ??0AccelKey@Gtk@@QEAA@XZ
    ??0AccelKey@Gtk@@QEAA@IW4ModifierType@Gdk@@AEBVustring@Glib@@@Z
    ??0AccelKey@Gtk@@QEAA@AEBVustring@Glib@@0@Z
    ??0AccelKey@Gtk@@QEAA@AEBV01@@Z
    ??4AccelKey@Gtk@@QEAAAEAV01@AEBV01@@Z
    ?is_null@AccelKey@Gtk@@QEBA_NXZ
    ?get_key@AccelKey@Gtk@@QEBAIXZ
    ?get_mod@AccelKey@Gtk@@QEBA?AW4ModifierType@Gdk@@XZ
    ?get_path@AccelKey@Gtk@@QEBA?AVustring@Glib@@XZ
    ?get_abbrev@AccelKey@Gtk@@QEBA?AVustring@Glib@@XZ
    ?accellabel_class_@AccelLabel@Gtk@@0VAccelLabel_Class@2@A
    ?__empty_global_delete@@YAXPEAX@Z
    ?__empty_global_delete@@YAXPEAX_K@Z
    ?get_type@Class@Glib@@QEBA_KXZ
    ?gobj@Widget@Gtk@@QEBAPEBU_GtkWidget@@XZ
    ??1AccelLabel@Gtk@@UEAA@XZ
    ??0AccelLabel@Gtk@@IEAA@AEBVConstructParams@Glib@@@Z
    ??0AccelLabel@Gtk@@IEAA@PEAU_GtkAccelLabel@@@Z
    ?get_type@AccelLabel@Gtk@@SA_KXZ
    ?get_base_type@AccelLabel@Gtk@@SA_KXZ
    ?gobj@AccelLabel@Gtk@@QEAAPEAU_GtkAccelLabel@@XZ
    ?gobj@AccelLabel@Gtk@@QEBAPEBU_GtkAccelLabel@@XZ
    ??0AccelLabel@Gtk@@QEAA@XZ
    ??0AccelLabel@Gtk@@QEAA@AEBVustring@Glib@@_N@Z
    ?set_accel_widget@AccelLabel@Gtk@@QEAAXAEBVWidget@2@@Z
    ?unset_accel_widget@AccelLabel@Gtk@@QEAAXXZ
    ?get_accel_widget@AccelLabel@Gtk@@QEAAPEAVWidget@2@XZ
    ?get_accel_widget@AccelLabel@Gtk@@QEBAPEBVWidget@2@XZ
    ?get_accel_width@AccelLabel@Gtk@@QEBAIXZ
    ?refetch@AccelLabel@Gtk@@QEAA_NXZ
    ?set_accel@AccelLabel@Gtk@@QEAAXIW4ModifierType@Gdk@@@Z
    ?property_accel_widget@AccelLabel@Gtk@@QEAA?AV?$PropertyProxy@PEAVWidget@Gtk@@@Glib@@XZ
    ?property_accel_widget@AccelLabel@Gtk@@QEBA?AV?$PropertyProxy_ReadOnly@PEAVWidget@Gtk@@@Glib@@XZ
    ??_DAccelLabel@Gtk@@QEAAXXZ
    ?wrap@Glib@@YAPEAVAccelLabel@Gtk@@PEAU_GtkAccelLabel@@_N@Z
    ?init@AccelLabel_Class@Gtk@@QEAAAEBVClass@Glib@@XZ
    ?class_init_function@AccelLabel_Class@Gtk@@SAXPEAX0@Z
    ?wrap_new@AccelLabel_Class@Gtk@@SAPEAVObjectBase@Glib@@PEAU_GObject@@@Z
    ??$manage@VAccelLabel@Gtk@@@Gtk@@YAPEAVAccelLabel@0@PEAV10@@Z
    ??0?$PropertyProxy@PEAVWidget@Gtk@@@Glib@@QEAA@PEAVObjectBase@1@PEBD@Z
    ??0?$PropertyProxy_ReadOnly@PEAVWidget@Gtk@@@Glib@@QEAA@PEBVObjectBase@1@PEBD@Z
    ?destroy_notify_@Object@Gtk@@$2PPPPPPPM@7EAAXXZ
    ?set_manage@Object@Gtk@@$4PPPPPPPM@7EAAXXZ
    ??_7AccelLabel@Gtk@@6BImplementor@Atk@@@
    ??_7AccelLabel@Gtk@@6B@
    ??_8AccelLabel@Gtk@@7BObject@Glib@@@
    ??_8AccelLabel@Gtk@@7BInterface@Glib@@Buildable@1@@
    ??_8AccelLabel@Gtk@@7BInterface@Glib@@Implementor@Atk@@@
    ??_8AccelLabel@Gtk@@7BObjectBase@Glib@@@
    ??_R0?AVObjectBase@Glib@@@8
    ??_R0?AVAccelLabel@Gtk@@@8
    ??_R4AccelLabel@Gtk@@6BImplementor@Atk@@@
    ??_R3AccelLabel@Gtk@@8
    ??_R2AccelLabel@Gtk@@8
    ??_R1A@?0A@EA@AccelLabel@Gtk@@8
    ??_R1A@?0A@EA@Label@Gtk@@8
    ??_R0?AVLabel@Gtk@@@8
    ??_R3Label@Gtk@@8
    ??_R2Label@Gtk@@8
    ??_R1A@?0A@EA@Misc@Gtk@@8
    ??_R0?AVMisc@Gtk@@@8
    ??_R3Misc@Gtk@@8
    ??_R2Misc@Gtk@@8
    ??_R1A@?0A@EA@Widget@Gtk@@8
    ??_R0?AVWidget@Gtk@@@8
    ??_R3Widget@Gtk@@8
    ??_R2Widget@Gtk@@8
    ??_R1BA@?0A@EA@Object@Gtk@@8
    ??_R0?AVObject@Gtk@@@8
    ??_R3Object@Gtk@@8
    ??_R2Object@Gtk@@8
    ??_R1A@?0A@EA@Object@Gtk@@8
    ??_R1A@?0A@EA@Object@Glib@@8
    ??_R0?AVObject@Glib@@@8
    ??_R3Object@Glib@@8
    ??_R2Object@Glib@@8
    ??_R1A@A@7FA@ObjectBase@Glib@@8
    ??_R3ObjectBase@Glib@@8
    ??_R2ObjectBase@Glib@@8
    ??_R1A@?0A@EA@ObjectBase@Glib@@8
    ??_R1A@73FA@trackable@sigc@@8
    ??_R0?AUtrackable@sigc@@@8
    ??_R3trackable@sigc@@8
    ??_R2trackable@sigc@@8
    ??_R1A@?0A@EA@trackable@sigc@@8
    ??_R1A@A@3FA@trackable@sigc@@8
    ??_R1BA@?0A@EA@Object@Glib@@8
    ??_R1A@BA@7FA@ObjectBase@Glib@@8
    ??_R1A@BA@3FA@trackable@sigc@@8
    ??_R1CA@?0A@EA@Buildable@Gtk@@8
    ??_R0?AVBuildable@Gtk@@@8
    ??_R3Buildable@Gtk@@8
    ??_R2Buildable@Gtk@@8
    ??_R1A@?0A@EA@Buildable@Gtk@@8
    ??_R1A@?0A@EA@Interface@Glib@@8
    ??_R0?AVInterface@Glib@@@8
    ??_R3Interface@Glib@@8
    ??_R2Interface@Glib@@8
    ??_R1CA@?0A@EC@Interface@Glib@@8
    ??_R1A@?0A@EA@Implementor@Atk@@8
    ??_R0?AVImplementor@Atk@@@8
    ??_R3Implementor@Atk@@8
    ??_R2Implementor@Atk@@8
    ??_R17?0A@EA@Interface@Glib@@8
    ??_R1A@77FA@ObjectBase@Glib@@8
    ??_R17?0A@EC@Interface@Glib@@8
    ??_R4AccelLabel@Gtk@@6B@
    ?__empty_global_delete@@YAXPEAX@Z
    ?__empty_global_delete@@YAXPEAX_K@Z
    ?_Myptr@?$_String_val@U?$_Simple_types@D@std@@@std@@QEBAPEBDXZ
    ?_Myptr@?$_String_alloc@U?$_String_base_types@DV?$allocator@D@std@@@std@@@std@@QEBAPEBDXZ
    ?_Get_data@?$_String_alloc@U?$_String_base_types@DV?$allocator@D@std@@@std@@@std@@QEBAAEBV?$_String_val@U?$_Simple_types@D@std@@@2@XZ
    ?_Get_second@?$_Compressed_pair@U?$_Wrap_alloc@V?$allocator@D@std@@@std@@V?$_String_val@U?$_Simple_types@D@std@@@2@$00@std@@QEBAAEBV?$_String_val@U?$_Simple_types@D@std@@@2@XZ
    ?c_str@?$basic_string@DU?$char_traits@D@std@@V?$allocator@D@2@@std@@QEBAPEBDXZ
    ??1AccelKey@Gtk@@QEAA@XZ
    ?add_entry@AccelMap@Gtk@@YAXAEBV?$basic_string@DU?$char_traits@D@std@@V?$allocator@D@2@@std@@IW4ModifierType@Gdk@@@Z
    ?change_entry@AccelMap@Gtk@@YA_NAEBV?$basic_string@DU?$char_traits@D@std@@V?$allocator@D@2@@std@@IW4ModifierType@Gdk@@_N@Z
    ?load@AccelMap@Gtk@@YAXAEBV?$basic_string@DU?$char_traits@D@std@@V?$allocator@D@2@@std@@@Z
    ?save@AccelMap@Gtk@@YAXAEBV?$basic_string@DU?$char_traits@D@std@@V?$allocator@D@2@@std@@@Z
    ?lock_path@AccelMap@Gtk@@YAXAEBV?$basic_string@DU?$char_traits@D@std@@V?$allocator@D@2@@std@@@Z
    ?unlock_path@AccelMap@Gtk@@YAXAEBV?$basic_string@DU?$char_traits@D@std@@V?$allocator@D@2@@std@@@Z
    ?lookup_entry@AccelMap@Gtk@@YA_NAEBVustring@Glib@@@Z
    ?lookup_entry@AccelMap@Gtk@@YA_NAEBVustring@Glib@@AEAVAccelKey@2@@Z
    ??$addressof@D@std@@YAPEADAEAD@Z
    ??$_Addressof@D@std@@YAPEADAEADU?$integral_constant@_N$0A@@0@@Z
    ?action_class_@Action@Gtk@@0VAction_Class@2@A
    ?__empty_global_delete@@YAXPEAX@Z
    ?__empty_global_delete@@YAXPEAX_K@Z
    ??2@YAPEAX_KPEAX@Z
    ??0_Container_proxy@std@@QEAA@XZ
    ??0_Container_base12@std@@QEAA@XZ
    ??1_Container_base12@std@@QEAA@XZ
    ?_Orphan_all@_Container_base12@std@@QEAAXXZ
    ?_Allocate@std@@YAPEAX_K0_N@Z
    ?_Deallocate@std@@YAXPEAX_K1@Z
    ?get_type@Class@Glib@@QEBA_KXZ
    ?convert_const_gchar_ptr_to_ustring@Glib@@YA?AVustring@1@PEBD@Z
    ?gobj@Icon@Gio@@QEAAPEAU_GIcon@@XZ
    ??BIconSize@Gtk@@QEBAHXZ
    ?gobj@Widget@Gtk@@QEAAPEAU_GtkWidget@@XZ
    ?gobj@AccelGroup@Gtk@@QEAAPEAU_GtkAccelGroup@@XZ
    ??0Action@Gtk@@IEAA@AEBVConstructParams@Glib@@@Z
    ??0Action@Gtk@@IEAA@PEAU_GtkAction@@@Z
    ??1Action@Gtk@@UEAA@XZ
    ?get_type@Action@Gtk@@SA_KXZ
    ?get_base_type@Action@Gtk@@SA_KXZ
    ?gobj@Action@Gtk@@QEAAPEAU_GtkAction@@XZ
    ?gobj@Action@Gtk@@QEBAPEBU_GtkAction@@XZ
    ?gobj_copy@Action@Gtk@@QEAAPEAU_GtkAction@@XZ
    ??0Action@Gtk@@IEAA@XZ
    ??0Action@Gtk@@IEAA@AEBVustring@Glib@@AEBVStockID@1@00@Z
    ??0Action@Gtk@@IEAA@AEBVustring@Glib@@000@Z
    ?create@Action@Gtk@@SA?AV?$RefPtr@VAction@Gtk@@@Glib@@XZ
    ?create@Action@Gtk@@SA?AV?$RefPtr@VAction@Gtk@@@Glib@@AEBVustring@4@00@Z
    ?create@Action@Gtk@@SA?AV?$RefPtr@VAction@Gtk@@@Glib@@AEBVustring@4@AEBVStockID@2@00@Z
    ?create_with_icon_name@Action@Gtk@@SA?AV?$RefPtr@VAction@Gtk@@@Glib@@AEBVustring@4@000@Z
    ?get_name@Action@Gtk@@QEBA?AVustring@Glib@@XZ
    ?is_sensitive@Action@Gtk@@QEBA_NXZ
    ?get_sensitive@Action@Gtk@@QEBA_NXZ
    ?set_sensitive@Action@Gtk@@QEAAX_N@Z
    ?is_visible@Action@Gtk@@QEBA_NXZ
    ?get_visible@Action@Gtk@@QEBA_NXZ
    ?set_visible@Action@Gtk@@QEAAX_N@Z
    ?activate@Action@Gtk@@QEAAXXZ
    ?create_icon@Action@Gtk@@QEAAPEAVImage@2@VIconSize@2@@Z
    ?create_menu_item@Action@Gtk@@QEAAPEAVMenuItem@2@XZ
    ?create_tool_item@Action@Gtk@@QEAAPEAVToolItem@2@XZ
    ?create_menu@Action@Gtk@@QEAAPEAVMenu@2@XZ
    ?get_proxies@Action@Gtk@@QEAA?AV?$vector@PEAVWidget@Gtk@@V?$allocator@PEAVWidget@Gtk@@@std@@@std@@XZ
    ?get_proxies@Action@Gtk@@QEBA?AV?$vector@PEBVWidget@Gtk@@V?$allocator@PEBVWidget@Gtk@@@std@@@std@@XZ
    ?connect_accelerator@Action@Gtk@@QEAAXXZ
    ?disconnect_accelerator@Action@Gtk@@QEAAXXZ
    ?get_accel_path@Action@Gtk@@QEBA?AVustring@Glib@@XZ
    ?signal_activate@Action@Gtk@@QEAA?AV?$SignalProxy0@X@Glib@@XZ
    ?set_accel_path@Action@Gtk@@QEAAXAEBVustring@Glib@@@Z
    ?set_accel_group@Action@Gtk@@QEAAXAEBV?$RefPtr@VAccelGroup@Gtk@@@Glib@@@Z
    ?set_label@Action@Gtk@@QEAAXAEBVustring@Glib@@@Z
    ?get_label@Action@Gtk@@QEBA?AVustring@Glib@@XZ
    ?set_short_label@Action@Gtk@@QEAAXAEBVustring@Glib@@@Z
    ?get_short_label@Action@Gtk@@QEBA?AVustring@Glib@@XZ
    ?set_tooltip@Action@Gtk@@QEAAXAEBVustring@Glib@@@Z
    ?get_tooltip@Action@Gtk@@QEBA?AVustring@Glib@@XZ
    ?set_stock_id@Action@Gtk@@QEAAXAEBVStockID@2@@Z
    ?get_stock_id@Action@Gtk@@QEBA?AVStockID@2@XZ
    ?set_gicon@Action@Gtk@@QEAAXAEBV?$RefPtr@VIcon@Gio@@@Glib@@@Z
    ?get_gicon@Action@Gtk@@QEAA?AV?$RefPtr@VIcon@Gio@@@Glib@@XZ
    ?get_gicon@Action@Gtk@@QEBA?AV?$RefPtr@$$CBVIcon@Gio@@@Glib@@XZ
    ?set_icon_name@Action@Gtk@@QEAAXAEBVustring@Glib@@@Z
    ?get_icon_name@Action@Gtk@@QEBA?AVustring@Glib@@XZ
    ?set_visible_horizontal@Action@Gtk@@QEAAX_N@Z
    ?get_visible_horizontal@Action@Gtk@@QEBA_NXZ
    ?set_visible_vertical@Action@Gtk@@QEAAX_N@Z
    ?get_visible_vertical@Action@Gtk@@QEBA_NXZ
    ?set_is_important@Action@Gtk@@QEAAX_N@Z
    ?get_is_important@Action@Gtk@@QEBA_NXZ
    ?set_always_show_image@Action@Gtk@@QEAAX_N@Z
    ?get_always_show_image@Action@Gtk@@QEBA_NXZ
    ?block_activate@Action@Gtk@@QEAAXXZ
    ?unblock_activate@Action@Gtk@@QEAAXXZ
    ?property_name@Action@Gtk@@QEBA?AV?$PropertyProxy_ReadOnly@Vustring@Glib@@@Glib@@XZ
    ?property_label@Action@Gtk@@QEAA?AV?$PropertyProxy@Vustring@Glib@@@Glib@@XZ
    ?property_label@Action@Gtk@@QEBA?AV?$PropertyProxy_ReadOnly@Vustring@Glib@@@Glib@@XZ
    ?property_short_label@Action@Gtk@@QEAA?AV?$PropertyProxy@Vustring@Glib@@@Glib@@XZ
    ?property_short_label@Action@Gtk@@QEBA?AV?$PropertyProxy_ReadOnly@Vustring@Glib@@@Glib@@XZ
    ?property_tooltip@Action@Gtk@@QEAA?AV?$PropertyProxy@Vustring@Glib@@@Glib@@XZ
    ?property_tooltip@Action@Gtk@@QEBA?AV?$PropertyProxy_ReadOnly@Vustring@Glib@@@Glib@@XZ
    ?property_stock_id@Action@Gtk@@QEAA?AV?$PropertyProxy@VStockID@Gtk@@@Glib@@XZ
    ?property_stock_id@Action@Gtk@@QEBA?AV?$PropertyProxy_ReadOnly@VStockID@Gtk@@@Glib@@XZ
    ?property_gicon@Action@Gtk@@QEAA?AV?$PropertyProxy@V?$RefPtr@VIcon@Gio@@@Glib@@@Glib@@XZ
    ?property_gicon@Action@Gtk@@QEBA?AV?$PropertyProxy_ReadOnly@V?$RefPtr@VIcon@Gio@@@Glib@@@Glib@@XZ
    ?property_icon_name@Action@Gtk@@QEAA?AV?$PropertyProxy@Vustring@Glib@@@Glib@@XZ
    ?property_icon_name@Action@Gtk@@QEBA?AV?$PropertyProxy_ReadOnly@Vustring@Glib@@@Glib@@XZ
    ?property_visible_horizontal@Action@Gtk@@QEAA?AV?$PropertyProxy@_N@Glib@@XZ
    ?property_visible_horizontal@Action@Gtk@@QEBA?AV?$PropertyProxy_ReadOnly@_N@Glib@@XZ
    ?property_visible_vertical@Action@Gtk@@QEAA?AV?$PropertyProxy@_N@Glib@@XZ
    ?property_visible_vertical@Action@Gtk@@QEBA?AV?$PropertyProxy_ReadOnly@_N@Glib@@XZ
    ?property_visible_overflown@Action@Gtk@@QEAA?AV?$PropertyProxy@_N@Glib@@XZ
    ?property_visible_overflown@Action@Gtk@@QEBA?AV?$PropertyProxy_ReadOnly@_N@Glib@@XZ
    ?property_is_important@Action@Gtk@@QEAA?AV?$PropertyProxy@_N@Glib@@XZ
    ?property_is_important@Action@Gtk@@QEBA?AV?$PropertyProxy_ReadOnly@_N@Glib@@XZ
    ?property_hide_if_empty@Action@Gtk@@QEAA?AV?$PropertyProxy@_N@Glib@@XZ
    ?property_hide_if_empty@Action@Gtk@@QEBA?AV?$PropertyProxy_ReadOnly@_N@Glib@@XZ
    ?property_sensitive@Action@Gtk@@QEAA?AV?$PropertyProxy@_N@Glib@@XZ
    ?property_sensitive@Action@Gtk@@QEBA?AV?$PropertyProxy_ReadOnly@_N@Glib@@XZ
    ?property_visible@Action@Gtk@@QEAA?AV?$PropertyProxy@_N@Glib@@XZ
    ?property_visible@Action@Gtk@@QEBA?AV?$PropertyProxy_ReadOnly@_N@Glib@@XZ
    ?property_action_group@Action@Gtk@@QEAA?AV?$PropertyProxy@V?$RefPtr@VActionGroup@Gtk@@@Glib@@@Glib@@XZ
    ?property_action_group@Action@Gtk@@QEBA?AV?$PropertyProxy_ReadOnly@V?$RefPtr@VActionGroup@Gtk@@@Glib@@@Glib@@XZ
    ?property_always_show_image@Action@Gtk@@QEAA?AV?$PropertyProxy@_N@Glib@@XZ
    ?property_always_show_image@Action@Gtk@@QEBA?AV?$PropertyProxy_ReadOnly@_N@Glib@@XZ
    ?create_menu_item_vfunc@Action@Gtk@@MEAAPEAVWidget@2@XZ
    ?create_tool_item_vfunc@Action@Gtk@@MEAAPEAVWidget@2@XZ
    ?connect_proxy_vfunc@Action@Gtk@@MEAAXPEAVWidget@2@@Z
    ?disconnect_proxy_vfunc@Action@Gtk@@MEAAXPEAVWidget@2@@Z
    ?on_activate@Action@Gtk@@MEAAXXZ
    ??_DAction@Gtk@@QEAAXXZ
    ?wrap@Glib@@YA?AV?$RefPtr@VAction@Gtk@@@1@PEAU_GtkAction@@_N@Z
    ?init@Action_Class@Gtk@@QEAAAEBVClass@Glib@@XZ
    ?class_init_function@Action_Class@Gtk@@SAXPEAX0@Z
    ?wrap_new@Action_Class@Gtk@@SAPEAVObjectBase@Glib@@PEAU_GObject@@@Z
    ?activate_callback@Action_Class@Gtk@@KAXPEAU_GtkAction@@@Z
    ?create_menu_item_vfunc_callback@Action_Class@Gtk@@KAPEAU_GtkWidget@@PEAU_GtkAction@@@Z
    ?create_tool_item_vfunc_callback@Action_Class@Gtk@@KAPEAU_GtkWidget@@PEAU_GtkAction@@@Z
    ?connect_proxy_vfunc_callback@Action_Class@Gtk@@KAXPEAU_GtkAction@@PEAU_GtkWidget@@@Z
    ?disconnect_proxy_vfunc_callback@Action_Class@Gtk@@KAXPEAU_GtkAction@@PEAU_GtkWidget@@@Z
    ??0?$RefPtr@VAction@Gtk@@@Glib@@QEAA@PEAVAction@Gtk@@@Z
    ??$unwrap@VWidget@Gtk@@@Glib@@YAPEAU_GtkWidget@@PEAVWidget@Gtk@@@Z
    ??0?$allocator@PEAVWidget@Gtk@@@std@@QEAA@XZ
    ?deallocate@?$allocator@PEAVWidget@Gtk@@@std@@QEAAXPEAPEAVWidget@Gtk@@_K@Z
    ?allocate@?$allocator@PEAVWidget@Gtk@@@std@@QEAAPEAPEAVWidget@Gtk@@_K@Z
    ?max_size@?$allocator@PEAVWidget@Gtk@@@std@@QEBA_KXZ
    ?max_size@?$allocator_traits@V?$allocator@PEAVWidget@Gtk@@@std@@@std@@SA_KAEBV?$allocator@PEAVWidget@Gtk@@@2@@Z
    ??0?$_Wrap_alloc@V?$allocator@PEAVWidget@Gtk@@@std@@@std@@QEAA@XZ
    ?allocate@?$_Wrap_alloc@V?$allocator@PEAVWidget@Gtk@@@std@@@std@@QEAAPEAPEAVWidget@Gtk@@_K@Z
    ?deallocate@?$_Wrap_alloc@V?$allocator@PEAVWidget@Gtk@@@std@@@std@@QEAAXPEAPEAVWidget@Gtk@@_K@Z
    ?max_size@?$_Wrap_alloc@V?$allocator@PEAVWidget@Gtk@@@std@@@std@@QEBA_KU_Nil@2@@Z
    ??0?$_Vector_alloc@U?$_Vec_base_types@PEAVWidget@Gtk@@V?$allocator@PEAVWidget@Gtk@@@std@@@std@@@std@@QEAA@XZ
    ??1?$_Vector_alloc@U?$_Vec_base_types@PEAVWidget@Gtk@@V?$allocator@PEAVWidget@Gtk@@@std@@@std@@@std@@QEAA@XZ
    ?_Alloc_proxy@?$_Vector_alloc@U?$_Vec_base_types@PEAVWidget@Gtk@@V?$allocator@PEAVWidget@Gtk@@@std@@@std@@@std@@QEAAXXZ
    ?_Free_proxy@?$_Vector_alloc@U?$_Vec_base_types@PEAVWidget@Gtk@@V?$allocator@PEAVWidget@Gtk@@@std@@@std@@@std@@QEAAXXZ
    ?_Myproxy@?$_Vector_alloc@U?$_Vec_base_types@PEAVWidget@Gtk@@V?$allocator@PEAVWidget@Gtk@@@std@@@std@@@std@@QEAAAEAPEAU_Container_proxy@2@XZ
    ?_Orphan_all@?$_Vector_alloc@U?$_Vec_base_types@PEAVWidget@Gtk@@V?$allocator@PEAVWidget@Gtk@@@std@@@std@@@std@@QEAAXXZ
    ?_Getal@?$_Vector_alloc@U?$_Vec_base_types@PEAVWidget@Gtk@@V?$allocator@PEAVWidget@Gtk@@@std@@@std@@@std@@QEAAAEAU?$_Wrap_alloc@V?$allocator@PEAVWidget@Gtk@@@std@@@2@XZ
    ?_Getal@?$_Vector_alloc@U?$_Vec_base_types@PEAVWidget@Gtk@@V?$allocator@PEAVWidget@Gtk@@@std@@@std@@@std@@QEBAAEBU?$_Wrap_alloc@V?$allocator@PEAVWidget@Gtk@@@std@@@2@XZ
    ?_Get_data@?$_Vector_alloc@U?$_Vec_base_types@PEAVWidget@Gtk@@V?$allocator@PEAVWidget@Gtk@@@std@@@std@@@std@@QEAAAEAV?$_Vector_val@U?$_Simple_types@PEAVWidget@Gtk@@@std@@@2@XZ
    ?_Myfirst@?$_Vector_alloc@U?$_Vec_base_types@PEAVWidget@Gtk@@V?$allocator@PEAVWidget@Gtk@@@std@@@std@@@std@@QEAAAEAPEAPEAVWidget@Gtk@@XZ
    ?_Mylast@?$_Vector_alloc@U?$_Vec_base_types@PEAVWidget@Gtk@@V?$allocator@PEAVWidget@Gtk@@@std@@@std@@@std@@QEAAAEAPEAPEAVWidget@Gtk@@XZ
    ?_Myend@?$_Vector_alloc@U?$_Vec_base_types@PEAVWidget@Gtk@@V?$allocator@PEAVWidget@Gtk@@@std@@@std@@@std@@QEAAAEAPEAPEAVWidget@Gtk@@XZ
    ??0?$_Vector_val@U?$_Simple_types@PEAVWidget@Gtk@@@std@@@std@@QEAA@XZ
    ??1?$_Vector_val@U?$_Simple_types@PEAVWidget@Gtk@@@std@@@std@@QEAA@XZ
    ?_Get_first@?$_Compressed_pair@U?$_Wrap_alloc@V?$allocator@PEAVWidget@Gtk@@@std@@@std@@V?$_Vector_val@U?$_Simple_types@PEAVWidget@Gtk@@@std@@@2@$00@std@@QEAAAEAU?$_Wrap_alloc@V?$allocator@PEAVWidget@Gtk@@@std@@@2@XZ
    ?_Get_first@?$_Compressed_pair@U?$_Wrap_alloc@V?$allocator@PEAVWidget@Gtk@@@std@@@std@@V?$_Vector_val@U?$_Simple_types@PEAVWidget@Gtk@@@std@@@2@$00@std@@QEBAAEBU?$_Wrap_alloc@V?$allocator@PEAVWidget@Gtk@@@std@@@2@XZ
    ?_Get_second@?$_Compressed_pair@U?$_Wrap_alloc@V?$allocator@PEAVWidget@Gtk@@@std@@@std@@V?$_Vector_val@U?$_Simple_types@PEAVWidget@Gtk@@@std@@@2@$00@std@@QEAAAEAV?$_Vector_val@U?$_Simple_types@PEAVWidget@Gtk@@@std@@@2@XZ
    ??1?$_Compressed_pair@U?$_Wrap_alloc@V?$allocator@PEAVWidget@Gtk@@@std@@@std@@V?$_Vector_val@U?$_Simple_types@PEAVWidget@Gtk@@@std@@@2@$00@std@@QEAA@XZ
    ?max_size@?$vector@PEAVWidget@Gtk@@V?$allocator@PEAVWidget@Gtk@@@std@@@std@@QEBA_KXZ
    ?_Buy@?$vector@PEAVWidget@Gtk@@V?$allocator@PEAVWidget@Gtk@@@std@@@std@@IEAA_N_K@Z
    ?_Destroy@?$vector@PEAVWidget@Gtk@@V?$allocator@PEAVWidget@Gtk@@@std@@@std@@IEAAXPEAPEAVWidget@Gtk@@0@Z
    ?_Tidy@?$vector@PEAVWidget@Gtk@@V?$allocator@PEAVWidget@Gtk@@@std@@@std@@IEAAXXZ
    ?_Xlen@?$vector@PEAVWidget@Gtk@@V?$allocator@PEAVWidget@Gtk@@@std@@@std@@IEBAXXZ
    ?to_cpp_type@?$TypeTraits@PEAVWidget@Gtk@@@Container_Helpers@Glib@@SAPEAVWidget@Gtk@@PEAU_GtkWidget@@@Z
    ?release_c_type@?$TypeTraits@PEAVWidget@Gtk@@@Container_Helpers@Glib@@SAXPEAU_GtkWidget@@@Z
    ?slist_to_vector@?$SListHandler@PEAVWidget@Gtk@@U?$TypeTraits@PEAVWidget@Gtk@@@Container_Helpers@Glib@@@Glib@@SA?AV?$vector@PEAVWidget@Gtk@@V?$allocator@PEAVWidget@Gtk@@@std@@@std@@PEAU_GSList@@W4OwnershipType@2@@Z
    ??0?$allocator@PEBVWidget@Gtk@@@std@@QEAA@XZ
    ?deallocate@?$allocator@PEBVWidget@Gtk@@@std@@QEAAXPEAPEBVWidget@Gtk@@_K@Z
    ?allocate@?$allocator@PEBVWidget@Gtk@@@std@@QEAAPEAPEBVWidget@Gtk@@_K@Z
    ?max_size@?$allocator@PEBVWidget@Gtk@@@std@@QEBA_KXZ
    ?max_size@?$allocator_traits@V?$allocator@PEBVWidget@Gtk@@@std@@@std@@SA_KAEBV?$allocator@PEBVWidget@Gtk@@@2@@Z
    ??0?$_Wrap_alloc@V?$allocator@PEBVWidget@Gtk@@@std@@@std@@QEAA@XZ
    ?allocate@?$_Wrap_alloc@V?$allocator@PEBVWidget@Gtk@@@std@@@std@@QEAAPEAPEBVWidget@Gtk@@_K@Z
    ?deallocate@?$_Wrap_alloc@V?$allocator@PEBVWidget@Gtk@@@std@@@std@@QEAAXPEAPEBVWidget@Gtk@@_K@Z
    ?max_size@?$_Wrap_alloc@V?$allocator@PEBVWidget@Gtk@@@std@@@std@@QEBA_KU_Nil@2@@Z
    ??0?$_Vector_alloc@U?$_Vec_base_types@PEBVWidget@Gtk@@V?$allocator@PEBVWidget@Gtk@@@std@@@std@@@std@@QEAA@XZ
    ??1?$_Vector_alloc@U?$_Vec_base_types@PEBVWidget@Gtk@@V?$allocator@PEBVWidget@Gtk@@@std@@@std@@@std@@QEAA@XZ
    ?_Alloc_proxy@?$_Vector_alloc@U?$_Vec_base_types@PEBVWidget@Gtk@@V?$allocator@PEBVWidget@Gtk@@@std@@@std@@@std@@QEAAXXZ
    ?_Free_proxy@?$_Vector_alloc@U?$_Vec_base_types@PEBVWidget@Gtk@@V?$allocator@PEBVWidget@Gtk@@@std@@@std@@@std@@QEAAXXZ
    ?_Myproxy@?$_Vector_alloc@U?$_Vec_base_types@PEBVWidget@Gtk@@V?$allocator@PEBVWidget@Gtk@@@std@@@std@@@std@@QEAAAEAPEAU_Container_proxy@2@XZ
    ?_Orphan_all@?$_Vector_alloc@U?$_Vec_base_types@PEBVWidget@Gtk@@V?$allocator@PEBVWidget@Gtk@@@std@@@std@@@std@@QEAAXXZ
    ?_Getal@?$_Vector_alloc@U?$_Vec_base_types@PEBVWidget@Gtk@@V?$allocator@PEBVWidget@Gtk@@@std@@@std@@@std@@QEAAAEAU?$_Wrap_alloc@V?$allocator@PEBVWidget@Gtk@@@std@@@2@XZ
    ?_Getal@?$_Vector_alloc@U?$_Vec_base_types@PEBVWidget@Gtk@@V?$allocator@PEBVWidget@Gtk@@@std@@@std@@@std@@QEBAAEBU?$_Wrap_alloc@V?$allocator@PEBVWidget@Gtk@@@std@@@2@XZ
    ?_Get_data@?$_Vector_alloc@U?$_Vec_base_types@PEBVWidget@Gtk@@V?$allocator@PEBVWidget@Gtk@@@std@@@std@@@std@@QEAAAEAV?$_Vector_val@U?$_Simple_types@PEBVWidget@Gtk@@@std@@@2@XZ
    ?_Myfirst@?$_Vector_alloc@U?$_Vec_base_types@PEBVWidget@Gtk@@V?$allocator@PEBVWidget@Gtk@@@std@@@std@@@std@@QEAAAEAPEAPEBVWidget@Gtk@@XZ
    ?_Mylast@?$_Vector_alloc@U?$_Vec_base_types@PEBVWidget@Gtk@@V?$allocator@PEBVWidget@Gtk@@@std@@@std@@@std@@QEAAAEAPEAPEBVWidget@Gtk@@XZ
    ?_Myend@?$_Vector_alloc@U?$_Vec_base_types@PEBVWidget@Gtk@@V?$allocator@PEBVWidget@Gtk@@@std@@@std@@@std@@QEAAAEAPEAPEBVWidget@Gtk@@XZ
    ??0?$_Vector_val@U?$_Simple_types@PEBVWidget@Gtk@@@std@@@std@@QEAA@XZ
    ??1?$_Vector_val@U?$_Simple_types@PEBVWidget@Gtk@@@std@@@std@@QEAA@XZ
    ?_Get_first@?$_Compressed_pair@U?$_Wrap_alloc@V?$allocator@PEBVWidget@Gtk@@@std@@@std@@V?$_Vector_val@U?$_Simple_types@PEBVWidget@Gtk@@@std@@@2@$00@std@@QEAAAEAU?$_Wrap_alloc@V?$allocator@PEBVWidget@Gtk@@@std@@@2@XZ
    ?_Get_first@?$_Compressed_pair@U?$_Wrap_alloc@V?$allocator@PEBVWidget@Gtk@@@std@@@std@@V?$_Vector_val@U?$_Simple_types@PEBVWidget@Gtk@@@std@@@2@$00@std@@QEBAAEBU?$_Wrap_alloc@V?$allocator@PEBVWidget@Gtk@@@std@@@2@XZ
    ?_Get_second@?$_Compressed_pair@U?$_Wrap_alloc@V?$allocator@PEBVWidget@Gtk@@@std@@@std@@V?$_Vector_val@U?$_Simple_types@PEBVWidget@Gtk@@@std@@@2@$00@std@@QEAAAEAV?$_Vector_val@U?$_Simple_types@PEBVWidget@Gtk@@@std@@@2@XZ
    ??1?$_Compressed_pair@U?$_Wrap_alloc@V?$allocator@PEBVWidget@Gtk@@@std@@@std@@V?$_Vector_val@U?$_Simple_types@PEBVWidget@Gtk@@@std@@@2@$00@std@@QEAA@XZ
    ?max_size@?$vector@PEBVWidget@Gtk@@V?$allocator@PEBVWidget@Gtk@@@std@@@std@@QEBA_KXZ
    ?_Buy@?$vector@PEBVWidget@Gtk@@V?$allocator@PEBVWidget@Gtk@@@std@@@std@@IEAA_N_K@Z
    ?_Destroy@?$vector@PEBVWidget@Gtk@@V?$allocator@PEBVWidget@Gtk@@@std@@@std@@IEAAXPEAPEBVWidget@Gtk@@0@Z
    ?_Tidy@?$vector@PEBVWidget@Gtk@@V?$allocator@PEBVWidget@Gtk@@@std@@@std@@IEAAXXZ
    ?_Xlen@?$vector@PEBVWidget@Gtk@@V?$allocator@PEBVWidget@Gtk@@@std@@@std@@IEBAXXZ
    ?to_cpp_type@?$TypeTraits@PEBVWidget@Gtk@@@Container_Helpers@Glib@@SAPEBVWidget@Gtk@@PEBU_GtkWidget@@@Z
    ?release_c_type@?$TypeTraits@PEBVWidget@Gtk@@@Container_Helpers@Glib@@SAXPEBU_GtkWidget@@@Z
    ?slist_to_vector@?$SListHandler@PEBVWidget@Gtk@@U?$TypeTraits@PEBVWidget@Gtk@@@Container_Helpers@Glib@@@Glib@@SA?AV?$vector@PEBVWidget@Gtk@@V?$allocator@PEBVWidget@Gtk@@@std@@@std@@PEAU_GSList@@W4OwnershipType@2@@Z
    ??$unwrap@VAccelGroup@Gtk@@@Glib@@YAPEAU_GtkAccelGroup@@AEBV?$RefPtr@VAccelGroup@Gtk@@@0@@Z
    ??C?$RefPtr@VAccelGroup@Gtk@@@Glib@@QEBAPEAVAccelGroup@Gtk@@XZ
    ??B?$RefPtr@VAccelGroup@Gtk@@@Glib@@QEBA_NXZ
    ??$unwrap@VIcon@Gio@@@Glib@@YAPEAU_GIcon@@AEBV?$RefPtr@VIcon@Gio@@@0@@Z
    ??1?$RefPtr@VIcon@Gio@@@Glib@@QEAA@XZ
    ??0?$RefPtr@VIcon@Gio@@@Glib@@QEAA@$$QEAV01@@Z
    ??C?$RefPtr@VIcon@Gio@@@Glib@@QEBAPEAVIcon@Gio@@XZ
    ??B?$RefPtr@VIcon@Gio@@@Glib@@QEBA_NXZ
    ?release@?$RefPtr@VIcon@Gio@@@Glib@@QEAAPEAVIcon@Gio@@XZ
    ??$?0VIcon@Gio@@@?$RefPtr@$$CBVIcon@Gio@@@Glib@@QEAA@$$QEAV?$RefPtr@VIcon@Gio@@@1@@Z
    ??0?$SignalProxy0@X@Glib@@QEAA@PEAVObjectBase@1@PEBUSignalProxyInfo@1@@Z
    ??0?$PropertyProxy_ReadOnly@Vustring@Glib@@@Glib@@QEAA@PEBVObjectBase@1@PEBD@Z
    ??0?$PropertyProxy@Vustring@Glib@@@Glib@@QEAA@PEAVObjectBase@1@PEBD@Z
    ??0?$PropertyProxy@VStockID@Gtk@@@Glib@@QEAA@PEAVObjectBase@1@PEBD@Z
    ??0?$PropertyProxy_ReadOnly@VStockID@Gtk@@@Glib@@QEAA@PEBVObjectBase@1@PEBD@Z
    ??0?$PropertyProxy@V?$RefPtr@VIcon@Gio@@@Glib@@@Glib@@QEAA@PEAVObjectBase@1@PEBD@Z
    ??0?$PropertyProxy_ReadOnly@V?$RefPtr@VIcon@Gio@@@Glib@@@Glib@@QEAA@PEBVObjectBase@1@PEBD@Z
    ??0?$PropertyProxy@_N@Glib@@QEAA@PEAVObjectBase@1@PEBD@Z
    ??0?$PropertyProxy_ReadOnly@_N@Glib@@QEAA@PEBVObjectBase@1@PEBD@Z
    ??0?$PropertyProxy@V?$RefPtr@VActionGroup@Gtk@@@Glib@@@Glib@@QEAA@PEAVObjectBase@1@PEBD@Z
    ??0?$PropertyProxy_ReadOnly@V?$RefPtr@VActionGroup@Gtk@@@Glib@@@Glib@@QEAA@PEBVObjectBase@1@PEBD@Z
    ?deallocate@?$allocator@U_Container_proxy@std@@@std@@QEAAXPEAU_Container_proxy@2@_K@Z
    ?allocate@?$allocator@U_Container_proxy@std@@@std@@QEAAPEAU_Container_proxy@2@_K@Z
    ?allocate@?$_Wrap_alloc@V?$allocator@U_Container_proxy@std@@@std@@@std@@QEAAPEAU_Container_proxy@2@_K@Z
    ?deallocate@?$_Wrap_alloc@V?$allocator@U_Container_proxy@std@@@std@@@std@@QEAAXPEAU_Container_proxy@2@_K@Z
    ??$?0AEAU?$_Wrap_alloc@V?$allocator@PEBVWidget@Gtk@@@std@@@std@@@?$_Wrap_alloc@V?$allocator@U_Container_proxy@std@@@std@@@std@@QEAA@AEAU?$_Wrap_alloc@V?$allocator@PEBVWidget@Gtk@@@std@@@1@@Z
    ??$destroy@U_Container_proxy@std@@@?$_Wrap_alloc@V?$allocator@U_Container_proxy@std@@@std@@@std@@QEAAXPEAU_Container_proxy@1@@Z
    ??$?0AEAU?$_Wrap_alloc@V?$allocator@PEAVWidget@Gtk@@@std@@@std@@@?$_Wrap_alloc@V?$allocator@U_Container_proxy@std@@@std@@@std@@QEAA@AEAU?$_Wrap_alloc@V?$allocator@PEAVWidget@Gtk@@@std@@@1@@Z
    ??$_Destroy_range@U?$_Wrap_alloc@V?$allocator@PEBVWidget@Gtk@@@std@@@std@@@std@@YAXPEAPEBVWidget@Gtk@@0AEAU?$_Wrap_alloc@V?$allocator@PEBVWidget@Gtk@@@std@@@0@@Z
    ??$_Destroy_range@U?$_Wrap_alloc@V?$allocator@PEAVWidget@Gtk@@@std@@@std@@@std@@YAXPEAPEAVWidget@Gtk@@0AEAU?$_Wrap_alloc@V?$allocator@PEAVWidget@Gtk@@@std@@@0@@Z
    ??$construct@U_Container_proxy@std@@U12@@?$_Wrap_alloc@V?$allocator@U_Container_proxy@std@@@std@@@std@@QEAAXPEAU_Container_proxy@1@$$QEAU21@@Z
    ??0?$GSListKeeper@U?$TypeTraits@PEAVWidget@Gtk@@@Container_Helpers@Glib@@@Container_Helpers@Glib@@QEAA@PEBU_GSList@@W4OwnershipType@2@@Z
    ??1?$GSListKeeper@U?$TypeTraits@PEAVWidget@Gtk@@@Container_Helpers@Glib@@@Container_Helpers@Glib@@QEAA@XZ
    ??0?$SListIterator@U?$TypeTraits@PEAVWidget@Gtk@@@Container_Helpers@Glib@@@Container_Helpers@Glib@@QEAA@PEBU_GSList@@@Z
    ??D?$SListIterator@U?$TypeTraits@PEAVWidget@Gtk@@@Container_Helpers@Glib@@@Container_Helpers@Glib@@QEBAPEAVWidget@Gtk@@XZ
    ??E?$SListIterator@U?$TypeTraits@PEAVWidget@Gtk@@@Container_Helpers@Glib@@@Container_Helpers@Glib@@QEAAAEAV012@XZ
    ??9?$SListIterator@U?$TypeTraits@PEAVWidget@Gtk@@@Container_Helpers@Glib@@@Container_Helpers@Glib@@QEBA_NAEBV012@@Z
    ??$?0V?$SListIterator@U?$TypeTraits@PEAVWidget@Gtk@@@Container_Helpers@Glib@@@Container_Helpers@Glib@@X@?$vector@PEAVWidget@Gtk@@V?$allocator@PEAVWidget@Gtk@@@std@@@std@@QEAA@V?$SListIterator@U?$TypeTraits@PEAVWidget@Gtk@@@Container_Helpers@Glib@@@Container_Helpers@Glib@@0@Z
    ??0?$GSListKeeper@U?$TypeTraits@PEBVWidget@Gtk@@@Container_Helpers@Glib@@@Container_Helpers@Glib@@QEAA@PEBU_GSList@@W4OwnershipType@2@@Z
    ??1?$GSListKeeper@U?$TypeTraits@PEBVWidget@Gtk@@@Container_Helpers@Glib@@@Container_Helpers@Glib@@QEAA@XZ
    ??0?$SListIterator@U?$TypeTraits@PEBVWidget@Gtk@@@Container_Helpers@Glib@@@Container_Helpers@Glib@@QEAA@PEBU_GSList@@@Z
    ??D?$SListIterator@U?$TypeTraits@PEBVWidget@Gtk@@@Container_Helpers@Glib@@@Container_Helpers@Glib@@QEBAPEBVWidget@Gtk@@XZ
    ??E?$SListIterator@U?$TypeTraits@PEBVWidget@Gtk@@@Container_Helpers@Glib@@@Container_Helpers@Glib@@QEAAAEAV012@XZ
    ??9?$SListIterator@U?$TypeTraits@PEBVWidget@Gtk@@@Container_Helpers@Glib@@@Container_Helpers@Glib@@QEBA_NAEBV012@@Z
    ??$?0V?$SListIterator@U?$TypeTraits@PEBVWidget@Gtk@@@Container_Helpers@Glib@@@Container_Helpers@Glib@@X@?$vector@PEBVWidget@Gtk@@V?$allocator@PEBVWidget@Gtk@@@std@@@std@@QEAA@V?$SListIterator@U?$TypeTraits@PEBVWidget@Gtk@@@Container_Helpers@Glib@@@Container_Helpers@Glib@@0@Z
    ??$forward@AEAU?$_Wrap_alloc@V?$allocator@PEBVWidget@Gtk@@@std@@@std@@@std@@YAAEAU?$_Wrap_alloc@V?$allocator@PEBVWidget@Gtk@@@std@@@0@AEAU10@@Z
    ??$?0PEBVWidget@Gtk@@@?$allocator@U_Container_proxy@std@@@std@@QEAA@AEBV?$allocator@PEBVWidget@Gtk@@@1@@Z
    ??$destroy@U_Container_proxy@std@@@?$allocator_traits@V?$allocator@U_Container_proxy@std@@@std@@@std@@SAXAEAV?$allocator@U_Container_proxy@std@@@1@PEAU_Container_proxy@1@@Z
    ??$forward@AEAU?$_Wrap_alloc@V?$allocator@PEAVWidget@Gtk@@@std@@@std@@@std@@YAAEAU?$_Wrap_alloc@V?$allocator@PEAVWidget@Gtk@@@std@@@0@AEAU10@@Z
    ??$?0PEAVWidget@Gtk@@@?$allocator@U_Container_proxy@std@@@std@@QEAA@AEBV?$allocator@PEAVWidget@Gtk@@@1@@Z
    ??$addressof@PEBVWidget@Gtk@@@std@@YAPEAPEBVWidget@Gtk@@AEAPEBV12@@Z
    ??$destroy@PEBVWidget@Gtk@@@?$_Wrap_alloc@V?$allocator@PEBVWidget@Gtk@@@std@@@std@@QEAAXPEAPEBVWidget@Gtk@@@Z
    ??$addressof@PEAVWidget@Gtk@@@std@@YAPEAPEAVWidget@Gtk@@AEAPEAV12@@Z
    ??$destroy@PEAVWidget@Gtk@@@?$_Wrap_alloc@V?$allocator@PEAVWidget@Gtk@@@std@@@std@@QEAAXPEAPEAVWidget@Gtk@@@Z
    ??$forward@U_Container_proxy@std@@@std@@YA$$QEAU_Container_proxy@0@AEAU10@@Z
    ??$construct@U_Container_proxy@std@@U12@@?$allocator_traits@V?$allocator@U_Container_proxy@std@@@std@@@std@@SAXAEAV?$allocator@U_Container_proxy@std@@@1@PEAU_Container_proxy@1@$$QEAU31@@Z
    ??$_Construct@V?$SListIterator@U?$TypeTraits@PEAVWidget@Gtk@@@Container_Helpers@Glib@@@Container_Helpers@Glib@@@?$vector@PEAVWidget@Gtk@@V?$allocator@PEAVWidget@Gtk@@@std@@@std@@QEAAXV?$SListIterator@U?$TypeTraits@PEAVWidget@Gtk@@@Container_Helpers@Glib@@@Container_Helpers@Glib@@0@Z
    ??$_Construct@V?$SListIterator@U?$TypeTraits@PEBVWidget@Gtk@@@Container_Helpers@Glib@@@Container_Helpers@Glib@@@?$vector@PEBVWidget@Gtk@@V?$allocator@PEBVWidget@Gtk@@@std@@@std@@QEAAXV?$SListIterator@U?$TypeTraits@PEBVWidget@Gtk@@@Container_Helpers@Glib@@@Container_Helpers@Glib@@0@Z
    ??$destroy@U_Container_proxy@std@@@?$allocator@U_Container_proxy@std@@@std@@QEAAXPEAU_Container_proxy@1@@Z
    ??$_Addressof@PEBVWidget@Gtk@@@std@@YAPEAPEBVWidget@Gtk@@AEAPEBV12@U?$integral_constant@_N$0A@@0@@Z
    ??$destroy@PEBVWidget@Gtk@@@?$allocator_traits@V?$allocator@PEBVWidget@Gtk@@@std@@@std@@SAXAEAV?$allocator@PEBVWidget@Gtk@@@1@PEAPEBVWidget@Gtk@@@Z
    ??$_Addressof@PEAVWidget@Gtk@@@std@@YAPEAPEAVWidget@Gtk@@AEAPEAV12@U?$integral_constant@_N$0A@@0@@Z
    ??$destroy@PEAVWidget@Gtk@@@?$allocator_traits@V?$allocator@PEAVWidget@Gtk@@@std@@@std@@SAXAEAV?$allocator@PEAVWidget@Gtk@@@1@PEAPEAVWidget@Gtk@@@Z
    ??$construct@U_Container_proxy@std@@U12@@?$allocator@U_Container_proxy@std@@@std@@QEAAXPEAU_Container_proxy@1@$$QEAU21@@Z
    ??$?0$$V@?$_Compressed_pair@U?$_Wrap_alloc@V?$allocator@PEBVWidget@Gtk@@@std@@@std@@V?$_Vector_val@U?$_Simple_types@PEBVWidget@Gtk@@@std@@@2@$00@std@@QEAA@U_Zero_then_variadic_args_t@1@@Z
    ??$?0$$V@?$_Compressed_pair@U?$_Wrap_alloc@V?$allocator@PEAVWidget@Gtk@@@std@@@std@@V?$_Vector_val@U?$_Simple_types@PEAVWidget@Gtk@@@std@@@2@$00@std@@QEAA@U_Zero_then_variadic_args_t@1@@Z
    ??$_Iter_cat@V?$SListIterator@U?$TypeTraits@PEAVWidget@Gtk@@@Container_Helpers@Glib@@@Container_Helpers@Glib@@@std@@YA?AUforward_iterator_tag@0@AEBV?$SListIterator@U?$TypeTraits@PEAVWidget@Gtk@@@Container_Helpers@Glib@@@Container_Helpers@Glib@@@Z
    ??$_Construct@V?$SListIterator@U?$TypeTraits@PEAVWidget@Gtk@@@Container_Helpers@Glib@@@Container_Helpers@Glib@@@?$vector@PEAVWidget@Gtk@@V?$allocator@PEAVWidget@Gtk@@@std@@@std@@QEAAXV?$SListIterator@U?$TypeTraits@PEAVWidget@Gtk@@@Container_Helpers@Glib@@@Container_Helpers@Glib@@0Uforward_iterator_tag@1@@Z
    ??$_Iter_cat@V?$SListIterator@U?$TypeTraits@PEBVWidget@Gtk@@@Container_Helpers@Glib@@@Container_Helpers@Glib@@@std@@YA?AUforward_iterator_tag@0@AEBV?$SListIterator@U?$TypeTraits@PEBVWidget@Gtk@@@Container_Helpers@Glib@@@Container_Helpers@Glib@@@Z
    ??$_Construct@V?$SListIterator@U?$TypeTraits@PEBVWidget@Gtk@@@Container_Helpers@Glib@@@Container_Helpers@Glib@@@?$vector@PEBVWidget@Gtk@@V?$allocator@PEBVWidget@Gtk@@@std@@@std@@QEAAXV?$SListIterator@U?$TypeTraits@PEBVWidget@Gtk@@@Container_Helpers@Glib@@@Container_Helpers@Glib@@0Uforward_iterator_tag@1@@Z
    ??$destroy@PEBVWidget@Gtk@@@?$allocator@PEBVWidget@Gtk@@@std@@QEAAXPEAPEBVWidget@Gtk@@@Z
    ??$destroy@PEAVWidget@Gtk@@@?$allocator@PEAVWidget@Gtk@@@std@@QEAAXPEAPEAVWidget@Gtk@@@Z
    ??$distance@V?$SListIterator@U?$TypeTraits@PEAVWidget@Gtk@@@Container_Helpers@Glib@@@Container_Helpers@Glib@@@std@@YA_JV?$SListIterator@U?$TypeTraits@PEAVWidget@Gtk@@@Container_Helpers@Glib@@@Container_Helpers@Glib@@0@Z
    ??$_Ucopy@V?$SListIterator@U?$TypeTraits@PEAVWidget@Gtk@@@Container_Helpers@Glib@@@Container_Helpers@Glib@@@?$vector@PEAVWidget@Gtk@@V?$allocator@PEAVWidget@Gtk@@@std@@@std@@IEAAPEAPEAVWidget@Gtk@@V?$SListIterator@U?$TypeTraits@PEAVWidget@Gtk@@@Container_Helpers@Glib@@@Container_Helpers@Glib@@0PEAPEAV23@@Z
    ??$distance@V?$SListIterator@U?$TypeTraits@PEBVWidget@Gtk@@@Container_Helpers@Glib@@@Container_Helpers@Glib@@@std@@YA_JV?$SListIterator@U?$TypeTraits@PEBVWidget@Gtk@@@Container_Helpers@Glib@@@Container_Helpers@Glib@@0@Z
    ??$_Ucopy@V?$SListIterator@U?$TypeTraits@PEBVWidget@Gtk@@@Container_Helpers@Glib@@@Container_Helpers@Glib@@@?$vector@PEBVWidget@Gtk@@V?$allocator@PEBVWidget@Gtk@@@std@@@std@@IEAAPEAPEBVWidget@Gtk@@V?$SListIterator@U?$TypeTraits@PEBVWidget@Gtk@@@Container_Helpers@Glib@@@Container_Helpers@Glib@@0PEAPEBV23@@Z
    ??$_Distance2@V?$SListIterator@U?$TypeTraits@PEAVWidget@Gtk@@@Container_Helpers@Glib@@@Container_Helpers@Glib@@_J@std@@YAXV?$SListIterator@U?$TypeTraits@PEAVWidget@Gtk@@@Container_Helpers@Glib@@@Container_Helpers@Glib@@0AEA_JUforward_iterator_tag@0@@Z
    ??$_Uninitialized_copy@V?$SListIterator@U?$TypeTraits@PEAVWidget@Gtk@@@Container_Helpers@Glib@@@Container_Helpers@Glib@@PEAPEAVWidget@Gtk@@U?$_Wrap_alloc@V?$allocator@PEAVWidget@Gtk@@@std@@@std@@@std@@YAPEAPEAVWidget@Gtk@@V?$SListIterator@U?$TypeTraits@PEAVWidget@Gtk@@@Container_Helpers@Glib@@@Container_Helpers@Glib@@0PEAPEAV12@AEAU?$_Wrap_alloc@V?$allocator@PEAVWidget@Gtk@@@std@@@0@@Z
    ??$_Distance2@V?$SListIterator@U?$TypeTraits@PEBVWidget@Gtk@@@Container_Helpers@Glib@@@Container_Helpers@Glib@@_J@std@@YAXV?$SListIterator@U?$TypeTraits@PEBVWidget@Gtk@@@Container_Helpers@Glib@@@Container_Helpers@Glib@@0AEA_JUforward_iterator_tag@0@@Z
    ??$_Uninitialized_copy@V?$SListIterator@U?$TypeTraits@PEBVWidget@Gtk@@@Container_Helpers@Glib@@@Container_Helpers@Glib@@PEAPEBVWidget@Gtk@@U?$_Wrap_alloc@V?$allocator@PEBVWidget@Gtk@@@std@@@std@@@std@@YAPEAPEBVWidget@Gtk@@V?$SListIterator@U?$TypeTraits@PEBVWidget@Gtk@@@Container_Helpers@Glib@@@Container_Helpers@Glib@@0PEAPEBV12@AEAU?$_Wrap_alloc@V?$allocator@PEBVWidget@Gtk@@@std@@@0@@Z
    ??$_Unchecked@V?$SListIterator@U?$TypeTraits@PEAVWidget@Gtk@@@Container_Helpers@Glib@@@Container_Helpers@Glib@@@std@@YA?AV?$SListIterator@U?$TypeTraits@PEAVWidget@Gtk@@@Container_Helpers@Glib@@@Container_Helpers@Glib@@V123@@Z
    ??$_Unchecked@PEAPEAVWidget@Gtk@@@std@@YAPEAPEAVWidget@Gtk@@PEAPEAV12@@Z
    ??$_Uninitialized_copy_al_unchecked@V?$SListIterator@U?$TypeTraits@PEAVWidget@Gtk@@@Container_Helpers@Glib@@@Container_Helpers@Glib@@PEAPEAVWidget@Gtk@@U?$_Wrap_alloc@V?$allocator@PEAVWidget@Gtk@@@std@@@std@@@std@@YAPEAPEAVWidget@Gtk@@V?$SListIterator@U?$TypeTraits@PEAVWidget@Gtk@@@Container_Helpers@Glib@@@Container_Helpers@Glib@@0PEAPEAV12@AEAU?$_Wrap_alloc@V?$allocator@PEAVWidget@Gtk@@@std@@@0@@Z
    ??$_Rechecked@PEAPEAVWidget@Gtk@@PEAPEAV12@@std@@YAAEAPEAPEAVWidget@Gtk@@AEAPEAPEAV12@PEAPEAV12@@Z
    ??$_Unchecked@V?$SListIterator@U?$TypeTraits@PEBVWidget@Gtk@@@Container_Helpers@Glib@@@Container_Helpers@Glib@@@std@@YA?AV?$SListIterator@U?$TypeTraits@PEBVWidget@Gtk@@@Container_Helpers@Glib@@@Container_Helpers@Glib@@V123@@Z
    ??$_Unchecked@PEAPEBVWidget@Gtk@@@std@@YAPEAPEBVWidget@Gtk@@PEAPEBV12@@Z
    ??$_Uninitialized_copy_al_unchecked@V?$SListIterator@U?$TypeTraits@PEBVWidget@Gtk@@@Container_Helpers@Glib@@@Container_Helpers@Glib@@PEAPEBVWidget@Gtk@@U?$_Wrap_alloc@V?$allocator@PEBVWidget@Gtk@@@std@@@std@@@std@@YAPEAPEBVWidget@Gtk@@V?$SListIterator@U?$TypeTraits@PEBVWidget@Gtk@@@Container_Helpers@Glib@@@Container_Helpers@Glib@@0PEAPEBV12@AEAU?$_Wrap_alloc@V?$allocator@PEBVWidget@Gtk@@@std@@@0@@Z
    ??$_Rechecked@PEAPEBVWidget@Gtk@@PEAPEBV12@@std@@YAAEAPEAPEBVWidget@Gtk@@AEAPEAPEBV12@PEAPEBV12@@Z
    ??$_Ptr_copy_cat@V?$SListIterator@U?$TypeTraits@PEAVWidget@Gtk@@@Container_Helpers@Glib@@@Container_Helpers@Glib@@PEAPEAVWidget@Gtk@@@std@@YA?AU_General_ptr_iterator_tag@0@AEBV?$SListIterator@U?$TypeTraits@PEAVWidget@Gtk@@@Container_Helpers@Glib@@@Container_Helpers@Glib@@AEBQEAPEAVWidget@Gtk@@@Z
    ??$_Uninitialized_copy_al_unchecked1@V?$SListIterator@U?$TypeTraits@PEAVWidget@Gtk@@@Container_Helpers@Glib@@@Container_Helpers@Glib@@PEAPEAVWidget@Gtk@@V?$allocator@PEAVWidget@Gtk@@@std@@@std@@YAPEAPEAVWidget@Gtk@@V?$SListIterator@U?$TypeTraits@PEAVWidget@Gtk@@@Container_Helpers@Glib@@@Container_Helpers@Glib@@0PEAPEAV12@AEAU?$_Wrap_alloc@V?$allocator@PEAVWidget@Gtk@@@std@@@0@U_General_ptr_iterator_tag@0@@Z
    ??$_Ptr_copy_cat@V?$SListIterator@U?$TypeTraits@PEBVWidget@Gtk@@@Container_Helpers@Glib@@@Container_Helpers@Glib@@PEAPEBVWidget@Gtk@@@std@@YA?AU_General_ptr_iterator_tag@0@AEBV?$SListIterator@U?$TypeTraits@PEBVWidget@Gtk@@@Container_Helpers@Glib@@@Container_Helpers@Glib@@AEBQEAPEBVWidget@Gtk@@@Z
    ??$_Uninitialized_copy_al_unchecked1@V?$SListIterator@U?$TypeTraits@PEBVWidget@Gtk@@@Container_Helpers@Glib@@@Container_Helpers@Glib@@PEAPEBVWidget@Gtk@@V?$allocator@PEBVWidget@Gtk@@@std@@@std@@YAPEAPEBVWidget@Gtk@@V?$SListIterator@U?$TypeTraits@PEBVWidget@Gtk@@@Container_Helpers@Glib@@@Container_Helpers@Glib@@0PEAPEBV12@AEAU?$_Wrap_alloc@V?$allocator@PEBVWidget@Gtk@@@std@@@0@U_General_ptr_iterator_tag@0@@Z
    ??$construct@PEAVWidget@Gtk@@PEAV12@@?$_Wrap_alloc@V?$allocator@PEAVWidget@Gtk@@@std@@@std@@QEAAXPEAPEAVWidget@Gtk@@$$QEAPEAV23@@Z
    ??$construct@PEBVWidget@Gtk@@PEBV12@@?$_Wrap_alloc@V?$allocator@PEBVWidget@Gtk@@@std@@@std@@QEAAXPEAPEBVWidget@Gtk@@$$QEAPEBV23@@Z
    ??$forward@PEAVWidget@Gtk@@@std@@YA$$QEAPEAVWidget@Gtk@@AEAPEAV12@@Z
    ??$construct@PEAVWidget@Gtk@@PEAV12@@?$allocator_traits@V?$allocator@PEAVWidget@Gtk@@@std@@@std@@SAXAEAV?$allocator@PEAVWidget@Gtk@@@1@PEAPEAVWidget@Gtk@@$$QEAPEAV34@@Z
    ??$forward@PEBVWidget@Gtk@@@std@@YA$$QEAPEBVWidget@Gtk@@AEAPEBV12@@Z
    ??$construct@PEBVWidget@Gtk@@PEBV12@@?$allocator_traits@V?$allocator@PEBVWidget@Gtk@@@std@@@std@@SAXAEAV?$allocator@PEBVWidget@Gtk@@@1@PEAPEBVWidget@Gtk@@$$QEAPEBV34@@Z
    ??$construct@PEAVWidget@Gtk@@PEAV12@@?$allocator@PEAVWidget@Gtk@@@std@@QEAAXPEAPEAVWidget@Gtk@@$$QEAPEAV23@@Z
    ??$construct@PEBVWidget@Gtk@@PEBV12@@?$allocator@PEBVWidget@Gtk@@@std@@QEAAXPEAPEBVWidget@Gtk@@$$QEAPEBV23@@Z
    ??_C@_0BE@LMNLACIC@_Ptr_container?5?$CB?$DN?50?$AA@
    ??_C@_1DG@HGDKEBPG@?$AA?$CC?$AA_?$AAP?$AAt?$AAr?$AA_?$AAc?$AAo?$AAn?$AAt?$AAa?$AAi?$AAn?$AAe?$AAr?$AA?5?$AA?$CB?$AA?$DN?$AA?5?$AA0?$AA?$CC?$AA?5?$AA?$CG?$AA?$CG?$AA?5?$AA0?$AA?$AA@
    ??_C@_17CNPHIMPH@?$AA?$CF?$AAl?$AAs?$AA?$AA@
    ??_C@_1GG@GGEDIOFC@?$AAD?$AA?3?$AA?2?$AAG?$AAi?$AAt?$AAH?$AAu?$AAb?$AA?2?$AAI?$AAn?$AAs?$AAt?$AAa?$AAl?$AAl?$AA?2?$AAV?$AAi?$AAs?$AAu?$AAa?$AAl?$AAS?$AAt?$AAu?$AAd?$AAi?$AAo?$AA?2?$AAV@
    ??_C@_1BO@NKFMJPA@?$AAs?$AAt?$AAd?$AA?3?$AA?3?$AA_?$AAA?$AAl?$AAl?$AAo?$AAc?$AAa?$AAt?$AAe?$AA?$AA@
    ??_C@_1CG@JNLFBNGN@?$AA?$CC?$AAi?$AAn?$AAv?$AAa?$AAl?$AAi?$AAd?$AA?5?$AAa?$AAr?$AAg?$AAu?$AAm?$AAe?$AAn?$AAt?$AA?$CC?$AA?$AA@
    ??_C@_09GLJCAGLP@_Ptr?5?$CB?$DN?50?$AA@
    ??_C@_1CC@GKJLLHIM@?$AA?$CC?$AA_?$AAP?$AAt?$AAr?$AA?5?$AA?$CB?$AA?$DN?$AA?5?$AA0?$AA?$CC?$AA?5?$AA?$CG?$AA?$CG?$AA?5?$AA0?$AA?$AA@
    ??_C@_0BN@HMCJOMKN@_Count?5?$DM?$DN?5?$CIsize_t?$CJ?$CI?91?$CJ?5?1?5_Sz?$AA@
    ??_C@_1EI@MLOBABC@?$AA?$CC?$AA_?$AAC?$AAo?$AAu?$AAn?$AAt?$AA?5?$AA?$DM?$AA?$DN?$AA?5?$AA?$CI?$AAs?$AAi?$AAz?$AAe?$AA_?$AAt?$AA?$CJ?$AA?$CI?$AA?9?$AA1?$AA?$CJ?$AA?5?$AA?1?$AA?5?$AA_?$AAS?$AAz?$AA?$CC?$AA?5?$AA?$CG@
    ??_C@_1CC@LOFJFFDB@?$AAs?$AAt?$AAd?$AA?3?$AA?3?$AA_?$AAD?$AAe?$AAa?$AAl?$AAl?$AAo?$AAc?$AAa?$AAt?$AAe?$AA?$AA@
    ??_C@_0DD@GBGGGKGG@?$CI_Ptr_user?5?$CG?5?$CI_BIG_ALLOCATION_AL@
    ??_C@_1HE@CDMBFOKC@?$AA?$CC?$AA?$CI?$AA_?$AAP?$AAt?$AAr?$AA_?$AAu?$AAs?$AAe?$AAr?$AA?5?$AA?$CG?$AA?5?$AA?$CI?$AA_?$AAB?$AAI?$AAG?$AA_?$AAA?$AAL?$AAL?$AAO?$AAC?$AAA?$AAT?$AAI?$AAO?$AAN?$AA_?$AAA@
    ??_C@_0EI@NOJHEJCJ@reinterpret_cast?$DMuintptr_t?5?$CK?$DO?$CI_P@
    ??_C@_1JO@EKLKIEHP@?$AA?$CC?$AAr?$AAe?$AAi?$AAn?$AAt?$AAe?$AAr?$AAp?$AAr?$AAe?$AAt?$AA_?$AAc?$AAa?$AAs?$AAt?$AA?$DM?$AAu?$AAi?$AAn?$AAt?$AAp?$AAt?$AAr?$AA_?$AAt?$AA?5?$AA?$CK?$AA?$DO?$AA?$CI?$AA_@
    ??_C@_0BL@OCKMEJON@_Ptr_container?5?$DM?5_Ptr_user?$AA@
    ??_C@_1EE@PDHAHDDC@?$AA?$CC?$AA_?$AAP?$AAt?$AAr?$AA_?$AAc?$AAo?$AAn?$AAt?$AAa?$AAi?$AAn?$AAe?$AAr?$AA?5?$AA?$DM?$AA?5?$AA_?$AAP?$AAt?$AAr?$AA_?$AAu?$AAs?$AAe?$AAr?$AA?$CC?$AA?5?$AA?$CG?$AA?$CG?$AA?5@
    ??_C@_0DB@GLFJLNCE@2?5?$CK?5sizeof?$CIvoid?5?$CK?$CJ?5?$DM?$DN?5_Ptr_user?5@
    ??_C@_1HA@NAPGMHAO@?$AA?$CC?$AA2?$AA?5?$AA?$CK?$AA?5?$AAs?$AAi?$AAz?$AAe?$AAo?$AAf?$AA?$CI?$AAv?$AAo?$AAi?$AAd?$AA?5?$AA?$CK?$AA?$CJ?$AA?5?$AA?$DM?$AA?$DN?$AA?5?$AA_?$AAP?$AAt?$AAr?$AA_?$AAu?$AAs?$AAe?$AAr@
    ??_C@_0CN@BLHJCAL@_Ptr_user?5?9?5_Ptr_container?5?$DM?$DN?5_N@
    ??_C@_1GI@DHJGPFNI@?$AA?$CC?$AA_?$AAP?$AAt?$AAr?$AA_?$AAu?$AAs?$AAe?$AAr?$AA?5?$AA?9?$AA?5?$AA_?$AAP?$AAt?$AAr?$AA_?$AAc?$AAo?$AAn?$AAt?$AAa?$AAi?$AAn?$AAe?$AAr?$AA?5?$AA?$DM?$AA?$DN?$AA?5?$AA_@
    ??_7Action@Gtk@@6B01@@
    ??_7Action@Gtk@@6BObject@Glib@@@
    ??_8Action@Gtk@@7BObject@Glib@@@
    ??_8Action@Gtk@@7BInterface@Glib@@@
    ??_8Action@Gtk@@7BObjectBase@Glib@@@
    ??_R0?AVObjectBase@Glib@@@8
    ??_R0?AVAction@Gtk@@@8
    ??_C@_0BD@OLBABOEK@vector?$DMT?$DO?5too?5long?$AA@
    ??_R0?AVWidget@Gtk@@@8
    ??_R4Action@Gtk@@6B01@@
    ??_R3Action@Gtk@@8
    ??_R2Action@Gtk@@8
    ??_R1A@?0A@EA@Action@Gtk@@8
    ??_R17?0A@EA@Object@Glib@@8
    ??_R0?AVObject@Glib@@@8
    ??_R3Object@Glib@@8
    ??_R2Object@Glib@@8
    ??_R1A@?0A@EA@Object@Glib@@8
    ??_R1A@A@7FA@ObjectBase@Glib@@8
    ??_R3ObjectBase@Glib@@8
    ??_R2ObjectBase@Glib@@8
    ??_R1A@?0A@EA@ObjectBase@Glib@@8
    ??_R1A@73FA@trackable@sigc@@8
    ??_R0?AUtrackable@sigc@@@8
    ??_R3trackable@sigc@@8
    ??_R2trackable@sigc@@8
    ??_R1A@?0A@EA@trackable@sigc@@8
    ??_R1A@A@3FA@trackable@sigc@@8
    ??_R1A@77FA@ObjectBase@Glib@@8
    ??_R1BA@?0A@EA@Buildable@Gtk@@8
    ??_R0?AVBuildable@Gtk@@@8
    ??_R3Buildable@Gtk@@8
    ??_R2Buildable@Gtk@@8
    ??_R1A@?0A@EA@Buildable@Gtk@@8
    ??_R1A@?0A@EA@Interface@Glib@@8
    ??_R0?AVInterface@Glib@@@8
    ??_R3Interface@Glib@@8
    ??_R2Interface@Glib@@8
    ??_R1BA@?0A@EA@Interface@Glib@@8
    ??_R4Action@Gtk@@6BObject@Glib@@@
    ?actionable_class_@Actionable@Gtk@@0VActionable_Class@2@A
    ?__empty_global_delete@@YAXPEAX@Z
    ?__empty_global_delete@@YAXPEAX_K@Z
    ?name@type_info@@QEBAPEBDXZ
    ?gobj@VariantBase@Glib@@QEBAPEBU_GVariant@@XZ
    ?get_type@Class@Glib@@QEBA_KXZ
    ?convert_const_gchar_ptr_to_ustring@Glib@@YA?AVustring@1@PEBD@Z
    ??0Actionable@Gtk@@IEAA@XZ
    ??0Actionable@Gtk@@IEAA@AEBVInterface_Class@Glib@@@Z
    ??0Actionable@Gtk@@QEAA@PEAU_GtkActionable@@@Z
    ??1Actionable@Gtk@@UEAA@XZ
    ?add_interface@Actionable@Gtk@@SAX_K@Z
    ?get_type@Actionable@Gtk@@SA_KXZ
    ?get_base_type@Actionable@Gtk@@SA_KXZ
    ?gobj@Actionable@Gtk@@QEAAPEAU_GtkActionable@@XZ
    ?gobj@Actionable@Gtk@@QEBAPEBU_GtkActionable@@XZ
    ?get_action_name@Actionable@Gtk@@QEBA?AVustring@Glib@@XZ
    ?set_action_name@Actionable@Gtk@@QEAAXAEBVustring@Glib@@@Z
    ?get_action_target_value@Actionable@Gtk@@QEAA?AVVariantBase@Glib@@XZ
    ?get_action_target_value@Actionable@Gtk@@QEBA?BVVariantBase@Glib@@XZ
    ?set_action_target_value@Actionable@Gtk@@QEAAXAEBVVariantBase@Glib@@@Z
    ?set_detailed_action_name@Actionable@Gtk@@QEAAXAEBVustring@Glib@@@Z
    ?property_action_name@Actionable@Gtk@@QEAA?AV?$PropertyProxy@Vustring@Glib@@@Glib@@XZ
    ?property_action_name@Actionable@Gtk@@QEBA?AV?$PropertyProxy_ReadOnly@Vustring@Glib@@@Glib@@XZ
    ?property_action_target@Actionable@Gtk@@QEAA?AV?$PropertyProxy@VVariantBase@Glib@@@Glib@@XZ
    ?property_action_target@Actionable@Gtk@@QEBA?AV?$PropertyProxy_ReadOnly@VVariantBase@Glib@@@Glib@@XZ
    ?get_action_name_vfunc@Actionable@Gtk@@UEBA?AVustring@Glib@@XZ
    ?set_action_name_vfunc@Actionable@Gtk@@UEAAXAEBVustring@Glib@@@Z
    ?get_action_target_value_vfunc@Actionable@Gtk@@UEBA?AVVariantBase@Glib@@XZ
    ?set_action_target_value_vfunc@Actionable@Gtk@@UEAAXAEBVVariantBase@Glib@@@Z
    ??_DActionable@Gtk@@QEAAXXZ
    ?wrap@Glib@@YA?AV?$RefPtr@VActionable@Gtk@@@1@PEAU_GtkActionable@@_N@Z
    ?init@Actionable_Class@Gtk@@QEAAAEBVInterface_Class@Glib@@XZ
    ?iface_init_function@Actionable_Class@Gtk@@SAXPEAX0@Z
    ?wrap_new@Actionable_Class@Gtk@@SAPEAVObjectBase@Glib@@PEAU_GObject@@@Z
    ?get_action_name_vfunc_callback@Actionable_Class@Gtk@@KAPEBDPEAU_GtkActionable@@@Z
    ?set_action_name_vfunc_callback@Actionable_Class@Gtk@@KAXPEAU_GtkActionable@@PEBD@Z
    ?get_action_target_value_vfunc_callback@Actionable_Class@Gtk@@KAPEAU_GVariant@@PEAU_GtkActionable@@@Z
    ?set_action_target_value_vfunc_callback@Actionable_Class@Gtk@@KAXPEAU_GtkActionable@@PEAU_GVariant@@@Z
    ??0?$RefPtr@VActionable@Gtk@@@Glib@@QEAA@PEAVActionable@Gtk@@@Z
    ??$wrap_auto_interface@VActionable@Gtk@@@Glib@@YAPEAVActionable@Gtk@@PEAU_GObject@@_N@Z
    ??0?$PropertyProxy@Vustring@Glib@@@Glib@@QEAA@PEAVObjectBase@1@PEBD@Z
    ??0?$PropertyProxy_ReadOnly@Vustring@Glib@@@Glib@@QEAA@PEBVObjectBase@1@PEBD@Z
    ??0?$PropertyProxy@VVariantBase@Glib@@@Glib@@QEAA@PEAVObjectBase@1@PEBD@Z
    ??0?$PropertyProxy_ReadOnly@VVariantBase@Glib@@@Glib@@QEAA@PEBVObjectBase@1@PEBD@Z
    ??_7Actionable@Gtk@@6B01@@
    ??_7Actionable@Gtk@@6BInterface@Glib@@@
    ??_8Actionable@Gtk@@7BInterface@Glib@@@
    ??_8Actionable@Gtk@@7BObjectBase@Glib@@@
    ??_R0?AVObjectBase@Glib@@@8
    ??_R0?AVActionable@Gtk@@@8
    ??_R4Actionable@Gtk@@6B01@@
    ??_R3Actionable@Gtk@@8
    ??_R2Actionable@Gtk@@8
    ??_R1A@?0A@EA@Actionable@Gtk@@8
    ??_R17?0A@EA@Interface@Glib@@8
    ??_R0?AVInterface@Glib@@@8
    ??_R3Interface@Glib@@8
    ??_R2Interface@Glib@@8
    ??_R1A@?0A@EA@Interface@Glib@@8
    ??_R1A@A@7FA@ObjectBase@Glib@@8
    ??_R3ObjectBase@Glib@@8
    ??_R2ObjectBase@Glib@@8
    ??_R1A@?0A@EA@ObjectBase@Glib@@8
    ??_R1A@73FA@trackable@sigc@@8
    ??_R0?AUtrackable@sigc@@@8
    ??_R3trackable@sigc@@8
    ??_R2trackable@sigc@@8
    ??_R1A@?0A@EA@trackable@sigc@@8
    ??_R1A@A@3FA@trackable@sigc@@8
    ??_R1A@77FA@ObjectBase@Glib@@8
    ??_R4Actionable@Gtk@@6BInterface@Glib@@@
    ?actionbar_class_@ActionBar@Gtk@@0VActionBar_Class@2@A
    ?__empty_global_delete@@YAXPEAX@Z
    ?__empty_global_delete@@YAXPEAX_K@Z
    ?get_type@Class@Glib@@QEBA_KXZ
    ?gobj@Widget@Gtk@@QEAAPEAU_GtkWidget@@XZ
    ??1ActionBar@Gtk@@UEAA@XZ
    ??0ActionBar@Gtk@@IEAA@AEBVConstructParams@Glib@@@Z
    ??0ActionBar@Gtk@@IEAA@PEAU_GtkActionBar@@@Z
    ?get_type@ActionBar@Gtk@@SA_KXZ
    ?get_base_type@ActionBar@Gtk@@SA_KXZ
    ?gobj@ActionBar@Gtk@@QEAAPEAU_GtkActionBar@@XZ
    ??0ActionBar@Gtk@@QEAA@XZ
    ?pack_start@ActionBar@Gtk@@QEAAXAEAVWidget@2@@Z
    ?pack_end@ActionBar@Gtk@@QEAAXAEAVWidget@2@@Z
    ?get_center_widget@ActionBar@Gtk@@QEAAPEAVWidget@2@XZ
    ?get_center_widget@ActionBar@Gtk@@QEBAPEBVWidget@2@XZ
    ?set_center_widget@ActionBar@Gtk@@QEAAXAEAVWidget@2@@Z
    ?unset_center_widget@ActionBar@Gtk@@QEAAXXZ
    ??_DActionBar@Gtk@@QEAAXXZ
    ?wrap@Glib@@YAPEAVActionBar@Gtk@@PEAU_GtkActionBar@@_N@Z
    ?init@ActionBar_Class@Gtk@@QEAAAEBVClass@Glib@@XZ
    ?class_init_function@ActionBar_Class@Gtk@@SAXPEAX0@Z
    ?wrap_new@ActionBar_Class@Gtk@@SAPEAVObjectBase@Glib@@PEAU_GObject@@@Z
    ??$manage@VActionBar@Gtk@@@Gtk@@YAPEAVActionBar@0@PEAV10@@Z
    ?destroy_notify_@Object@Gtk@@$2PPPPPPPM@7EAAXXZ
    ?set_manage@Object@Gtk@@$4PPPPPPPM@7EAAXXZ
    ??_7ActionBar@Gtk@@6BImplementor@Atk@@@
    ??_7ActionBar@Gtk@@6B@
    ??_8ActionBar@Gtk@@7BObject@Glib@@@
    ??_8ActionBar@Gtk@@7BInterface@Glib@@Buildable@1@@
    ??_8ActionBar@Gtk@@7BInterface@Glib@@Implementor@Atk@@@
    ??_8ActionBar@Gtk@@7BObjectBase@Glib@@@
    ??_R0?AVObjectBase@Glib@@@8
    ??_R0?AVActionBar@Gtk@@@8
    ??_R4ActionBar@Gtk@@6BImplementor@Atk@@@
    ??_R3ActionBar@Gtk@@8
    ??_R2ActionBar@Gtk@@8
    ??_R1A@?0A@EA@ActionBar@Gtk@@8
    ??_R1A@?0A@EA@Bin@Gtk@@8
    ??_R0?AVBin@Gtk@@@8
    ??_R3Bin@Gtk@@8
    ??_R2Bin@Gtk@@8
    ??_R1A@?0A@EA@Container@Gtk@@8
    ??_R0?AVContainer@Gtk@@@8
    ??_R3Container@Gtk@@8
    ??_R2Container@Gtk@@8
    ??_R1A@?0A@EA@Widget@Gtk@@8
    ??_R0?AVWidget@Gtk@@@8
    ??_R3Widget@Gtk@@8
    ??_R2Widget@Gtk@@8
    ??_R1BA@?0A@EA@Object@Gtk@@8
    ??_R0?AVObject@Gtk@@@8
    ??_R3Object@Gtk@@8
    ??_R2Object@Gtk@@8
    ??_R1A@?0A@EA@Object@Gtk@@8
    ??_R1A@?0A@EA@Object@Glib@@8
    ??_R0?AVObject@Glib@@@8
    ??_R3Object@Glib@@8
    ??_R2Object@Glib@@8
    ??_R1A@A@7FA@ObjectBase@Glib@@8
    ??_R3ObjectBase@Glib@@8
    ??_R2ObjectBase@Glib@@8
    ??_R1A@?0A@EA@ObjectBase@Glib@@8
    ??_R1A@73FA@trackable@sigc@@8
    ??_R0?AUtrackable@sigc@@@8
    ??_R3trackable@sigc@@8
    ??_R2trackable@sigc@@8
    ??_R1A@?0A@EA@trackable@sigc@@8
    ??_R1A@A@3FA@trackable@sigc@@8
    ??_R1BA@?0A@EA@Object@Glib@@8
    ??_R1A@BA@7FA@ObjectBase@Glib@@8
    ??_R1A@BA@3FA@trackable@sigc@@8
    ??_R1CA@?0A@EA@Buildable@Gtk@@8
    ??_R0?AVBuildable@Gtk@@@8
    ??_R3Buildable@Gtk@@8
    ??_R2Buildable@Gtk@@8
    ??_R1A@?0A@EA@Buildable@Gtk@@8
    ??_R1A@?0A@EA@Interface@Glib@@8
    ??_R0?AVInterface@Glib@@@8
    ??_R3Interface@Glib@@8
    ??_R2Interface@Glib@@8
    ??_R1CA@?0A@EC@Interface@Glib@@8
    ??_R1A@?0A@EA@Implementor@Atk@@8
    ??_R0?AVImplementor@Atk@@@8
    ??_R3Implementor@Atk@@8
    ??_R2Implementor@Atk@@8
    ??_R17?0A@EA@Interface@Glib@@8
    ??_R1A@77FA@ObjectBase@Glib@@8
    ??_R17?0A@EC@Interface@Glib@@8
    ??_R4ActionBar@Gtk@@6B@
    ?actiongroup_class_@ActionGroup@Gtk@@0VActionGroup_Class@2@A
    ?__empty_global_delete@@YAXPEAX@Z
    ?__empty_global_delete@@YAXPEAX_K@Z
    ??2@YAPEAX_KPEAX@Z
    ?copy@?$char_traits@D@std@@SAPEADPEADPEBD_K@Z
    ?move@?$char_traits@D@std@@SAPEADPEADPEBD_K@Z
    ?assign@?$char_traits@D@std@@SAXAEADAEBD@Z
    ??0_Container_proxy@std@@QEAA@XZ
    ??0_Container_base12@std@@QEAA@XZ
    ??1_Container_base12@std@@QEAA@XZ
    ?_Orphan_all@_Container_base12@std@@QEAAXXZ
    ?_Allocate@std@@YAPEAX_K0_N@Z
    ?_Deallocate@std@@YAXPEAX_K1@Z
    ??0?$allocator@D@std@@QEAA@AEBV01@@Z
    ?deallocate@?$allocator@D@std@@QEAAXPEAD_K@Z
    ?allocate@?$allocator@D@std@@QEAAPEAD_K@Z
    ?max_size@?$allocator@D@std@@QEBA_KXZ
    ?max_size@?$allocator_traits@V?$allocator@D@std@@@std@@SA_KAEBV?$allocator@D@2@@Z
    ?select_on_container_copy_construction@?$allocator_traits@V?$allocator@D@std@@@std@@SA?AV?$allocator@D@2@AEBV32@@Z
    ?select_on_container_copy_construction@?$_Wrap_alloc@V?$allocator@D@std@@@std@@QEBA?AU12@U_Nil@2@@Z
    ??0?$_Wrap_alloc@V?$allocator@D@std@@@std@@QEAA@$$QEAU01@@Z
    ?allocate@?$_Wrap_alloc@V?$allocator@D@std@@@std@@QEAAPEAD_K@Z
    ?deallocate@?$_Wrap_alloc@V?$allocator@D@std@@@std@@QEAAXPEAD_K@Z
    ?max_size@?$_Wrap_alloc@V?$allocator@D@std@@@std@@QEBA_KU_Nil@2@@Z
    ??0?$_String_val@U?$_Simple_types@D@std@@@std@@QEAA@XZ
    ?_Myptr@?$_String_val@U?$_Simple_types@D@std@@@std@@QEAAPEADXZ
    ?_Myptr@?$_String_val@U?$_Simple_types@D@std@@@std@@QEBAPEBDXZ
    ??1?$_String_val@U?$_Simple_types@D@std@@@std@@QEAA@XZ
    ?_Myptr@?$_String_alloc@U?$_String_base_types@DV?$allocator@D@std@@@std@@@std@@QEAAPEADXZ
    ?_Myptr@?$_String_alloc@U?$_String_base_types@DV?$allocator@D@std@@@std@@@std@@QEBAPEBDXZ
    ??1?$_String_alloc@U?$_String_base_types@DV?$allocator@D@std@@@std@@@std@@QEAA@XZ
    ?_Alloc_proxy@?$_String_alloc@U?$_String_base_types@DV?$allocator@D@std@@@std@@@std@@QEAAXXZ
    ?_Free_proxy@?$_String_alloc@U?$_String_base_types@DV?$allocator@D@std@@@std@@@std@@QEAAXXZ
    ?_Myproxy@?$_String_alloc@U?$_String_base_types@DV?$allocator@D@std@@@std@@@std@@QEAAAEAPEAU_Container_proxy@2@XZ
    ?_Orphan_all@?$_String_alloc@U?$_String_base_types@DV?$allocator@D@std@@@std@@@std@@QEAAXXZ
    ?_Getal@?$_String_alloc@U?$_String_base_types@DV?$allocator@D@std@@@std@@@std@@QEAAAEAU?$_Wrap_alloc@V?$allocator@D@std@@@2@XZ
    ?_Getal@?$_String_alloc@U?$_String_base_types@DV?$allocator@D@std@@@std@@@std@@QEBAAEBU?$_Wrap_alloc@V?$allocator@D@std@@@2@XZ
    ?_Get_data@?$_String_alloc@U?$_String_base_types@DV?$allocator@D@std@@@std@@@std@@QEAAAEAV?$_String_val@U?$_Simple_types@D@std@@@2@XZ
    ?_Get_data@?$_String_alloc@U?$_String_base_types@DV?$allocator@D@std@@@std@@@std@@QEBAAEBV?$_String_val@U?$_Simple_types@D@std@@@2@XZ
    ?_Bx@?$_String_alloc@U?$_String_base_types@DV?$allocator@D@std@@@std@@@std@@QEAAAEAT_Bxty@?$_String_val@U?$_Simple_types@D@std@@@2@XZ
    ?_Mysize@?$_String_alloc@U?$_String_base_types@DV?$allocator@D@std@@@std@@@std@@QEAAAEA_KXZ
    ?_Mysize@?$_String_alloc@U?$_String_base_types@DV?$allocator@D@std@@@std@@@std@@QEBAAEB_KXZ
    ?_Myres@?$_String_alloc@U?$_String_base_types@DV?$allocator@D@std@@@std@@@std@@QEAAAEA_KXZ
    ?_Get_first@?$_Compressed_pair@U?$_Wrap_alloc@V?$allocator@D@std@@@std@@V?$_String_val@U?$_Simple_types@D@std@@@2@$00@std@@QEAAAEAU?$_Wrap_alloc@V?$allocator@D@std@@@2@XZ
    ?_Get_first@?$_Compressed_pair@U?$_Wrap_alloc@V?$allocator@D@std@@@std@@V?$_String_val@U?$_Simple_types@D@std@@@2@$00@std@@QEBAAEBU?$_Wrap_alloc@V?$allocator@D@std@@@2@XZ
    ?_Get_second@?$_Compressed_pair@U?$_Wrap_alloc@V?$allocator@D@std@@@std@@V?$_String_val@U?$_Simple_types@D@std@@@2@$00@std@@QEAAAEAV?$_String_val@U?$_Simple_types@D@std@@@2@XZ
    ?_Get_second@?$_Compressed_pair@U?$_Wrap_alloc@V?$allocator@D@std@@@std@@V?$_String_val@U?$_Simple_types@D@std@@@2@$00@std@@QEBAAEBV?$_String_val@U?$_Simple_types@D@std@@@2@XZ
    ??1?$_Compressed_pair@U?$_Wrap_alloc@V?$allocator@D@std@@@std@@V?$_String_val@U?$_Simple_types@D@std@@@2@$00@std@@QEAA@XZ
    ??0?$basic_string@DU?$char_traits@D@std@@V?$allocator@D@2@@std@@QEAA@AEBV01@@Z
    ??1?$basic_string@DU?$char_traits@D@std@@V?$allocator@D@2@@std@@QEAA@XZ
    ?assign@?$basic_string@DU?$char_traits@D@std@@V?$allocator@D@2@@std@@QEAAAEAV12@AEBV12@_K1@Z
    ?erase@?$basic_string@DU?$char_traits@D@std@@V?$allocator@D@2@@std@@QEAAAEAV12@_K@Z
    ?erase@?$basic_string@DU?$char_traits@D@std@@V?$allocator@D@2@@std@@QEAAAEAV12@_K0@Z
    ?max_size@?$basic_string@DU?$char_traits@D@std@@V?$allocator@D@2@@std@@QEBA_KXZ
    ?_Clamp_suffix_size@?$basic_string@DU?$char_traits@D@std@@V?$allocator@D@2@@std@@QEBA_K_K0@Z
    ?_Copy@?$basic_string@DU?$char_traits@D@std@@V?$allocator@D@2@@std@@QEAAX_K0@Z
    ?_Eos@?$basic_string@DU?$char_traits@D@std@@V?$allocator@D@2@@std@@QEAAX_K@Z
    ?_Grow@?$basic_string@DU?$char_traits@D@std@@V?$allocator@D@2@@std@@QEAA_N_K_N@Z
    ?_Tidy@?$basic_string@DU?$char_traits@D@std@@V?$allocator@D@2@@std@@QEAAX_N_K@Z
    ?_Xlen@?$basic_string@DU?$char_traits@D@std@@V?$allocator@D@2@@std@@QEBAXXZ
    ?_Check_offset@?$basic_string@DU?$char_traits@D@std@@V?$allocator@D@2@@std@@QEBAX_K@Z
    ?_Xran@?$basic_string@DU?$char_traits@D@std@@V?$allocator@D@2@@std@@QEBAXXZ
    ??Bustring@Glib@@QEBA?AV?$basic_string@DU?$char_traits@D@std@@V?$allocator@D@2@@std@@XZ
    ??HGlib@@YA?AVustring@0@AEBV10@PEBD@Z
    ??HGlib@@YA?AVustring@0@PEBDAEBV10@@Z
    ??HGlib@@YA?AVustring@0@AEBV10@D@Z
    ?get_type@Class@Glib@@QEBA_KXZ
    ?data_to_slot@SignalProxyBase@Glib@@SAPEAVslot_base@sigc@@PEAX@Z
    ?convert_const_gchar_ptr_to_ustring@Glib@@YA?AVustring@1@PEBD@Z
    ?gobj@AccelGroup@Gtk@@QEAAPEAU_GtkAccelGroup@@XZ
    ?gobj@Action@Gtk@@QEAAPEAU_GtkAction@@XZ
    ??0ActionGroup@Gtk@@IEAA@AEBVConstructParams@Glib@@@Z
    ??0ActionGroup@Gtk@@IEAA@PEAU_GtkActionGroup@@@Z
    ??1ActionGroup@Gtk@@UEAA@XZ
    ?get_type@ActionGroup@Gtk@@SA_KXZ
    ?get_base_type@ActionGroup@Gtk@@SA_KXZ
    ?gobj@ActionGroup@Gtk@@QEAAPEAU_GtkActionGroup@@XZ
    ?gobj@ActionGroup@Gtk@@QEBAPEBU_GtkActionGroup@@XZ
    ?gobj_copy@ActionGroup@Gtk@@QEAAPEAU_GtkActionGroup@@XZ
    ??0ActionGroup@Gtk@@IEAA@AEBVustring@Glib@@@Z
    ?create@ActionGroup@Gtk@@SA?AV?$RefPtr@VActionGroup@Gtk@@@Glib@@AEBVustring@4@@Z
    ?get_name@ActionGroup@Gtk@@QEBA?AVustring@Glib@@XZ
    ?get_sensitive@ActionGroup@Gtk@@QEBA_NXZ
    ?set_sensitive@ActionGroup@Gtk@@QEAAX_N@Z
    ?get_visible@ActionGroup@Gtk@@QEBA_NXZ
    ?set_visible@ActionGroup@Gtk@@QEAAX_N@Z
    ?get_accel_group@ActionGroup@Gtk@@QEAA?AV?$RefPtr@VAccelGroup@Gtk@@@Glib@@XZ
    ?get_accel_group@ActionGroup@Gtk@@QEBA?AV?$RefPtr@$$CBVAccelGroup@Gtk@@@Glib@@XZ
    ?set_accel_group@ActionGroup@Gtk@@QEAAXAEBV?$RefPtr@VAccelGroup@Gtk@@@Glib@@@Z
    ?get_action@ActionGroup@Gtk@@QEAA?AV?$RefPtr@VAction@Gtk@@@Glib@@AEBVustring@4@@Z
    ?get_action@ActionGroup@Gtk@@QEBA?AV?$RefPtr@$$CBVAction@Gtk@@@Glib@@AEBVustring@4@@Z
    ?get_actions@ActionGroup@Gtk@@QEAA?AV?$vector@V?$RefPtr@VAction@Gtk@@@Glib@@V?$allocator@V?$RefPtr@VAction@Gtk@@@Glib@@@std@@@std@@XZ
    ?get_actions@ActionGroup@Gtk@@QEBA?AV?$vector@V?$RefPtr@$$CBVAction@Gtk@@@Glib@@V?$allocator@V?$RefPtr@$$CBVAction@Gtk@@@Glib@@@std@@@std@@XZ
    ?add@ActionGroup@Gtk@@QEAAXAEBV?$RefPtr@VAction@Gtk@@@Glib@@@Z
    ?add@ActionGroup@Gtk@@QEAAXAEBV?$RefPtr@VAction@Gtk@@@Glib@@AEBVAccelKey@2@@Z
    ?add@ActionGroup@Gtk@@QEAAXAEBV?$RefPtr@VAction@Gtk@@@Glib@@AEBV?$slot@XUnil@sigc@@U12@U12@U12@U12@U12@U12@@sigc@@@Z
    ?add@ActionGroup@Gtk@@QEAAXAEBV?$RefPtr@VAction@Gtk@@@Glib@@AEBVAccelKey@2@AEBV?$slot@XUnil@sigc@@U12@U12@U12@U12@U12@U12@@sigc@@@Z
    ?remove@ActionGroup@Gtk@@QEAAXAEBV?$RefPtr@VAction@Gtk@@@Glib@@@Z
    ?translate_string@ActionGroup@Gtk@@QEBA?AVustring@Glib@@AEBV34@@Z
    ?signal_connect_proxy@ActionGroup@Gtk@@QEAA?AV?$SignalProxy2@XAEBV?$RefPtr@VAction@Gtk@@@Glib@@PEAVWidget@Gtk@@@Glib@@XZ
    ?signal_disconnect_proxy@ActionGroup@Gtk@@QEAA?AV?$SignalProxy2@XAEBV?$RefPtr@VAction@Gtk@@@Glib@@PEAVWidget@Gtk@@@Glib@@XZ
    ?signal_pre_activate@ActionGroup@Gtk@@QEAA?AV?$SignalProxy1@XAEBV?$RefPtr@VAction@Gtk@@@Glib@@@Glib@@XZ
    ?signal_post_activate@ActionGroup@Gtk@@QEAA?AV?$SignalProxy1@XAEBV?$RefPtr@VAction@Gtk@@@Glib@@@Glib@@XZ
    ?property_name@ActionGroup@Gtk@@QEBA?AV?$PropertyProxy_ReadOnly@Vustring@Glib@@@Glib@@XZ
    ?property_sensitive@ActionGroup@Gtk@@QEAA?AV?$PropertyProxy@_N@Glib@@XZ
    ?property_sensitive@ActionGroup@Gtk@@QEBA?AV?$PropertyProxy_ReadOnly@_N@Glib@@XZ
    ?property_visible@ActionGroup@Gtk@@QEAA?AV?$PropertyProxy@_N@Glib@@XZ
    ?property_visible@ActionGroup@Gtk@@QEBA?AV?$PropertyProxy_ReadOnly@_N@Glib@@XZ
    ?property_accel_group@ActionGroup@Gtk@@QEAA?AV?$PropertyProxy@V?$RefPtr@VAccelGroup@Gtk@@@Glib@@@Glib@@XZ
    ?property_accel_group@ActionGroup@Gtk@@QEBA?AV?$PropertyProxy_ReadOnly@V?$RefPtr@VAccelGroup@Gtk@@@Glib@@@Glib@@XZ
    ??_DActionGroup@Gtk@@QEAAXXZ
    ?wrap@Glib@@YA?AV?$RefPtr@VActionGroup@Gtk@@@1@PEAU_GtkActionGroup@@_N@Z
    ?init@ActionGroup_Class@Gtk@@QEAAAEBVClass@Glib@@XZ
    ?class_init_function@ActionGroup_Class@Gtk@@SAXPEAX0@Z
    ?wrap_new@ActionGroup_Class@Gtk@@SAPEAVObjectBase@Glib@@PEAU_GObject@@@Z
    ??$unwrap@VAction@Gtk@@@Glib@@YAPEAU_GtkAction@@AEBV?$RefPtr@VAction@Gtk@@@0@@Z
    ??1?$RefPtr@VAction@Gtk@@@Glib@@QEAA@XZ
    ??0?$RefPtr@VAction@Gtk@@@Glib@@QEAA@PEAVAction@Gtk@@@Z
    ??0?$RefPtr@VAction@Gtk@@@Glib@@QEAA@$$QEAV01@@Z
    ??C?$RefPtr@VAction@Gtk@@@Glib@@QEBAPEAVAction@Gtk@@XZ
    ??B?$RefPtr@VAction@Gtk@@@Glib@@QEBA_NXZ
    ?release@?$RefPtr@VAction@Gtk@@@Glib@@QEAAPEAVAction@Gtk@@XZ
    ??1?$RefPtr@$$CBVAction@Gtk@@@Glib@@QEAA@XZ
    ??0?$RefPtr@$$CBVAction@Gtk@@@Glib@@QEAA@PEBVAction@Gtk@@@Z
    ??0?$RefPtr@$$CBVAction@Gtk@@@Glib@@QEAA@$$QEAV01@@Z
    ??$?0VAction@Gtk@@@?$RefPtr@$$CBVAction@Gtk@@@Glib@@QEAA@$$QEAV?$RefPtr@VAction@Gtk@@@1@@Z
    ?connect@?$SignalProxy0@X@Glib@@QEAA?AUconnection@sigc@@AEBV?$slot@XUnil@sigc@@U12@U12@U12@U12@U12@U12@@4@_N@Z
    ??1?$SignalProxy0@X@Glib@@QEAA@XZ
    ??R?$slot2@XAEBV?$RefPtr@VAction@Gtk@@@Glib@@PEAVWidget@Gtk@@@sigc@@QEBAXAEBV?$RefPtr@VAction@Gtk@@@Glib@@AEBQEAVWidget@Gtk@@@Z
    ??R?$slot1@XAEBV?$RefPtr@VAction@Gtk@@@Glib@@@sigc@@QEBAXAEBV?$RefPtr@VAction@Gtk@@@Glib@@@Z
    ??0?$RefPtr@VActionGroup@Gtk@@@Glib@@QEAA@PEAVActionGroup@Gtk@@@Z
    ??1?$RefPtr@VAccelGroup@Gtk@@@Glib@@QEAA@XZ
    ??0?$RefPtr@VAccelGroup@Gtk@@@Glib@@QEAA@$$QEAV01@@Z
    ??C?$RefPtr@VAccelGroup@Gtk@@@Glib@@QEBAPEAVAccelGroup@Gtk@@XZ
    ??B?$RefPtr@VAccelGroup@Gtk@@@Glib@@QEBA_NXZ
    ?release@?$RefPtr@VAccelGroup@Gtk@@@Glib@@QEAAPEAVAccelGroup@Gtk@@XZ
    ??$?0VAccelGroup@Gtk@@@?$RefPtr@$$CBVAccelGroup@Gtk@@@Glib@@QEAA@$$QEAV?$RefPtr@VAccelGroup@Gtk@@@1@@Z
    ??$unwrap@VAccelGroup@Gtk@@@Glib@@YAPEAU_GtkAccelGroup@@AEBV?$RefPtr@VAccelGroup@Gtk@@@0@@Z
    ??0?$allocator@V?$RefPtr@VAction@Gtk@@@Glib@@@std@@QEAA@XZ
    ?deallocate@?$allocator@V?$RefPtr@VAction@Gtk@@@Glib@@@std@@QEAAXPEAV?$RefPtr@VAction@Gtk@@@Glib@@_K@Z
    ?allocate@?$allocator@V?$RefPtr@VAction@Gtk@@@Glib@@@std@@QEAAPEAV?$RefPtr@VAction@Gtk@@@Glib@@_K@Z
    ?max_size@?$allocator@V?$RefPtr@VAction@Gtk@@@Glib@@@std@@QEBA_KXZ
    ?max_size@?$allocator_traits@V?$allocator@V?$RefPtr@VAction@Gtk@@@Glib@@@std@@@std@@SA_KAEBV?$allocator@V?$RefPtr@VAction@Gtk@@@Glib@@@2@@Z
    ??0?$_Wrap_alloc@V?$allocator@V?$RefPtr@VAction@Gtk@@@Glib@@@std@@@std@@QEAA@XZ
    ?allocate@?$_Wrap_alloc@V?$allocator@V?$RefPtr@VAction@Gtk@@@Glib@@@std@@@std@@QEAAPEAV?$RefPtr@VAction@Gtk@@@Glib@@_K@Z
    ?deallocate@?$_Wrap_alloc@V?$allocator@V?$RefPtr@VAction@Gtk@@@Glib@@@std@@@std@@QEAAXPEAV?$RefPtr@VAction@Gtk@@@Glib@@_K@Z
    ?max_size@?$_Wrap_alloc@V?$allocator@V?$RefPtr@VAction@Gtk@@@Glib@@@std@@@std@@QEBA_KU_Nil@2@@Z
    ??0?$_Vector_alloc@U?$_Vec_base_types@V?$RefPtr@VAction@Gtk@@@Glib@@V?$allocator@V?$RefPtr@VAction@Gtk@@@Glib@@@std@@@std@@@std@@QEAA@XZ
    ??1?$_Vector_alloc@U?$_Vec_base_types@V?$RefPtr@VAction@Gtk@@@Glib@@V?$allocator@V?$RefPtr@VAction@Gtk@@@Glib@@@std@@@std@@@std@@QEAA@XZ
    ?_Alloc_proxy@?$_Vector_alloc@U?$_Vec_base_types@V?$RefPtr@VAction@Gtk@@@Glib@@V?$allocator@V?$RefPtr@VAction@Gtk@@@Glib@@@std@@@std@@@std@@QEAAXXZ
    ?_Free_proxy@?$_Vector_alloc@U?$_Vec_base_types@V?$RefPtr@VAction@Gtk@@@Glib@@V?$allocator@V?$RefPtr@VAction@Gtk@@@Glib@@@std@@@std@@@std@@QEAAXXZ
    ?_Myproxy@?$_Vector_alloc@U?$_Vec_base_types@V?$RefPtr@VAction@Gtk@@@Glib@@V?$allocator@V?$RefPtr@VAction@Gtk@@@Glib@@@std@@@std@@@std@@QEAAAEAPEAU_Container_proxy@2@XZ
    ?_Orphan_all@?$_Vector_alloc@U?$_Vec_base_types@V?$RefPtr@VAction@Gtk@@@Glib@@V?$allocator@V?$RefPtr@VAction@Gtk@@@Glib@@@std@@@std@@@std@@QEAAXXZ
    ?_Getal@?$_Vector_alloc@U?$_Vec_base_types@V?$RefPtr@VAction@Gtk@@@Glib@@V?$allocator@V?$RefPtr@VAction@Gtk@@@Glib@@@std@@@std@@@std@@QEAAAEAU?$_Wrap_alloc@V?$allocator@V?$RefPtr@VAction@Gtk@@@Glib@@@std@@@2@XZ
    ?_Getal@?$_Vector_alloc@U?$_Vec_base_types@V?$RefPtr@VAction@Gtk@@@Glib@@V?$allocator@V?$RefPtr@VAction@Gtk@@@Glib@@@std@@@std@@@std@@QEBAAEBU?$_Wrap_alloc@V?$allocator@V?$RefPtr@VAction@Gtk@@@Glib@@@std@@@2@XZ
    ?_Get_data@?$_Vector_alloc@U?$_Vec_base_types@V?$RefPtr@VAction@Gtk@@@Glib@@V?$allocator@V?$RefPtr@VAction@Gtk@@@Glib@@@std@@@std@@@std@@QEAAAEAV?$_Vector_val@U?$_Simple_types@V?$RefPtr@VAction@Gtk@@@Glib@@@std@@@2@XZ
    ?_Myfirst@?$_Vector_alloc@U?$_Vec_base_types@V?$RefPtr@VAction@Gtk@@@Glib@@V?$allocator@V?$RefPtr@VAction@Gtk@@@Glib@@@std@@@std@@@std@@QEAAAEAPEAV?$RefPtr@VAction@Gtk@@@Glib@@XZ
    ?_Mylast@?$_Vector_alloc@U?$_Vec_base_types@V?$RefPtr@VAction@Gtk@@@Glib@@V?$allocator@V?$RefPtr@VAction@Gtk@@@Glib@@@std@@@std@@@std@@QEAAAEAPEAV?$RefPtr@VAction@Gtk@@@Glib@@XZ
    ?_Myend@?$_Vector_alloc@U?$_Vec_base_types@V?$RefPtr@VAction@Gtk@@@Glib@@V?$allocator@V?$RefPtr@VAction@Gtk@@@Glib@@@std@@@std@@@std@@QEAAAEAPEAV?$RefPtr@VAction@Gtk@@@Glib@@XZ
    ??0?$_Vector_val@U?$_Simple_types@V?$RefPtr@VAction@Gtk@@@Glib@@@std@@@std@@QEAA@XZ
    ??1?$_Vector_val@U?$_Simple_types@V?$RefPtr@VAction@Gtk@@@Glib@@@std@@@std@@QEAA@XZ
    ?_Get_first@?$_Compressed_pair@U?$_Wrap_alloc@V?$allocator@V?$RefPtr@VAction@Gtk@@@Glib@@@std@@@std@@V?$_Vector_val@U?$_Simple_types@V?$RefPtr@VAction@Gtk@@@Glib@@@std@@@2@$00@std@@QEAAAEAU?$_Wrap_alloc@V?$allocator@V?$RefPtr@VAction@Gtk@@@Glib@@@std@@@2@XZ
    ?_Get_first@?$_Compressed_pair@U?$_Wrap_alloc@V?$allocator@V?$RefPtr@VAction@Gtk@@@Glib@@@std@@@std@@V?$_Vector_val@U?$_Simple_types@V?$RefPtr@VAction@Gtk@@@Glib@@@std@@@2@$00@std@@QEBAAEBU?$_Wrap_alloc@V?$allocator@V?$RefPtr@VAction@Gtk@@@Glib@@@std@@@2@XZ
    ?_Get_second@?$_Compressed_pair@U?$_Wrap_alloc@V?$allocator@V?$RefPtr@VAction@Gtk@@@Glib@@@std@@@std@@V?$_Vector_val@U?$_Simple_types@V?$RefPtr@VAction@Gtk@@@Glib@@@std@@@2@$00@std@@QEAAAEAV?$_Vector_val@U?$_Simple_types@V?$RefPtr@VAction@Gtk@@@Glib@@@std@@@2@XZ
    ??1?$_Compressed_pair@U?$_Wrap_alloc@V?$allocator@V?$RefPtr@VAction@Gtk@@@Glib@@@std@@@std@@V?$_Vector_val@U?$_Simple_types@V?$RefPtr@VAction@Gtk@@@Glib@@@std@@@2@$00@std@@QEAA@XZ
    ?max_size@?$vector@V?$RefPtr@VAction@Gtk@@@Glib@@V?$allocator@V?$RefPtr@VAction@Gtk@@@Glib@@@std@@@std@@QEBA_KXZ
    ?_Buy@?$vector@V?$RefPtr@VAction@Gtk@@@Glib@@V?$allocator@V?$RefPtr@VAction@Gtk@@@Glib@@@std@@@std@@IEAA_N_K@Z
    ?_Destroy@?$vector@V?$RefPtr@VAction@Gtk@@@Glib@@V?$allocator@V?$RefPtr@VAction@Gtk@@@Glib@@@std@@@std@@IEAAXPEAV?$RefPtr@VAction@Gtk@@@Glib@@0@Z
    ?_Tidy@?$vector@V?$RefPtr@VAction@Gtk@@@Glib@@V?$allocator@V?$RefPtr@VAction@Gtk@@@Glib@@@std@@@std@@IEAAXXZ
    ?_Xlen@?$vector@V?$RefPtr@VAction@Gtk@@@Glib@@V?$allocator@V?$RefPtr@VAction@Gtk@@@Glib@@@std@@@std@@IEBAXXZ
    ?to_cpp_type@?$TypeTraits@V?$RefPtr@VAction@Gtk@@@Glib@@@Container_Helpers@Glib@@SA?AV?$RefPtr@VAction@Gtk@@@3@PEAU_GtkAction@@@Z
    ?release_c_type@?$TypeTraits@V?$RefPtr@VAction@Gtk@@@Glib@@@Container_Helpers@Glib@@SAXPEAU_GtkAction@@@Z
    ?list_to_vector@?$ListHandler@V?$RefPtr@VAction@Gtk@@@Glib@@U?$TypeTraits@V?$RefPtr@VAction@Gtk@@@Glib@@@Container_Helpers@2@@Glib@@SA?AV?$vector@V?$RefPtr@VAction@Gtk@@@Glib@@V?$allocator@V?$RefPtr@VAction@Gtk@@@Glib@@@std@@@std@@PEAU_GList@@W4OwnershipType@2@@Z
    ??0?$allocator@V?$RefPtr@$$CBVAction@Gtk@@@Glib@@@std@@QEAA@XZ
    ?deallocate@?$allocator@V?$RefPtr@$$CBVAction@Gtk@@@Glib@@@std@@QEAAXPEAV?$RefPtr@$$CBVAction@Gtk@@@Glib@@_K@Z
    ?allocate@?$allocator@V?$RefPtr@$$CBVAction@Gtk@@@Glib@@@std@@QEAAPEAV?$RefPtr@$$CBVAction@Gtk@@@Glib@@_K@Z
    ?max_size@?$allocator@V?$RefPtr@$$CBVAction@Gtk@@@Glib@@@std@@QEBA_KXZ
    ?max_size@?$allocator_traits@V?$allocator@V?$RefPtr@$$CBVAction@Gtk@@@Glib@@@std@@@std@@SA_KAEBV?$allocator@V?$RefPtr@$$CBVAction@Gtk@@@Glib@@@2@@Z
    ??0?$_Wrap_alloc@V?$allocator@V?$RefPtr@$$CBVAction@Gtk@@@Glib@@@std@@@std@@QEAA@XZ
    ?allocate@?$_Wrap_alloc@V?$allocator@V?$RefPtr@$$CBVAction@Gtk@@@Glib@@@std@@@std@@QEAAPEAV?$RefPtr@$$CBVAction@Gtk@@@Glib@@_K@Z
    ?deallocate@?$_Wrap_alloc@V?$allocator@V?$RefPtr@$$CBVAction@Gtk@@@Glib@@@std@@@std@@QEAAXPEAV?$RefPtr@$$CBVAction@Gtk@@@Glib@@_K@Z
    ?max_size@?$_Wrap_alloc@V?$allocator@V?$RefPtr@$$CBVAction@Gtk@@@Glib@@@std@@@std@@QEBA_KU_Nil@2@@Z
    ??0?$_Vector_alloc@U?$_Vec_base_types@V?$RefPtr@$$CBVAction@Gtk@@@Glib@@V?$allocator@V?$RefPtr@$$CBVAction@Gtk@@@Glib@@@std@@@std@@@std@@QEAA@XZ
    ??1?$_Vector_alloc@U?$_Vec_base_types@V?$RefPtr@$$CBVAction@Gtk@@@Glib@@V?$allocator@V?$RefPtr@$$CBVAction@Gtk@@@Glib@@@std@@@std@@@std@@QEAA@XZ
    ?_Alloc_proxy@?$_Vector_alloc@U?$_Vec_base_types@V?$RefPtr@$$CBVAction@Gtk@@@Glib@@V?$allocator@V?$RefPtr@$$CBVAction@Gtk@@@Glib@@@std@@@std@@@std@@QEAAXXZ
    ?_Free_proxy@?$_Vector_alloc@U?$_Vec_base_types@V?$RefPtr@$$CBVAction@Gtk@@@Glib@@V?$allocator@V?$RefPtr@$$CBVAction@Gtk@@@Glib@@@std@@@std@@@std@@QEAAXXZ
    ?_Myproxy@?$_Vector_alloc@U?$_Vec_base_types@V?$RefPtr@$$CBVAction@Gtk@@@Glib@@V?$allocator@V?$RefPtr@$$CBVAction@Gtk@@@Glib@@@std@@@std@@@std@@QEAAAEAPEAU_Container_proxy@2@XZ
    ?_Orphan_all@?$_Vector_alloc@U?$_Vec_base_types@V?$RefPtr@$$CBVAction@Gtk@@@Glib@@V?$allocator@V?$RefPtr@$$CBVAction@Gtk@@@Glib@@@std@@@std@@@std@@QEAAXXZ
    ?_Getal@?$_Vector_alloc@U?$_Vec_base_types@V?$RefPtr@$$CBVAction@Gtk@@@Glib@@V?$allocator@V?$RefPtr@$$CBVAction@Gtk@@@Glib@@@std@@@std@@@std@@QEAAAEAU?$_Wrap_alloc@V?$allocator@V?$RefPtr@$$CBVAction@Gtk@@@Glib@@@std@@@2@XZ
    ?_Getal@?$_Vector_alloc@U?$_Vec_base_types@V?$RefPtr@$$CBVAction@Gtk@@@Glib@@V?$allocator@V?$RefPtr@$$CBVAction@Gtk@@@Glib@@@std@@@std@@@std@@QEBAAEBU?$_Wrap_alloc@V?$allocator@V?$RefPtr@$$CBVAction@Gtk@@@Glib@@@std@@@2@XZ
    ?_Get_data@?$_Vector_alloc@U?$_Vec_base_types@V?$RefPtr@$$CBVAction@Gtk@@@Glib@@V?$allocator@V?$RefPtr@$$CBVAction@Gtk@@@Glib@@@std@@@std@@@std@@QEAAAEAV?$_Vector_val@U?$_Simple_types@V?$RefPtr@$$CBVAction@Gtk@@@Glib@@@std@@@2@XZ
    ?_Myfirst@?$_Vector_alloc@U?$_Vec_base_types@V?$RefPtr@$$CBVAction@Gtk@@@Glib@@V?$allocator@V?$RefPtr@$$CBVAction@Gtk@@@Glib@@@std@@@std@@@std@@QEAAAEAPEAV?$RefPtr@$$CBVAction@Gtk@@@Glib@@XZ
    ?_Mylast@?$_Vector_alloc@U?$_Vec_base_types@V?$RefPtr@$$CBVAction@Gtk@@@Glib@@V?$allocator@V?$RefPtr@$$CBVAction@Gtk@@@Glib@@@std@@@std@@@std@@QEAAAEAPEAV?$RefPtr@$$CBVAction@Gtk@@@Glib@@XZ
    ?_Myend@?$_Vector_alloc@U?$_Vec_base_types@V?$RefPtr@$$CBVAction@Gtk@@@Glib@@V?$allocator@V?$RefPtr@$$CBVAction@Gtk@@@Glib@@@std@@@std@@@std@@QEAAAEAPEAV?$RefPtr@$$CBVAction@Gtk@@@Glib@@XZ
    ??0?$_Vector_val@U?$_Simple_types@V?$RefPtr@$$CBVAction@Gtk@@@Glib@@@std@@@std@@QEAA@XZ
    ??1?$_Vector_val@U?$_Simple_types@V?$RefPtr@$$CBVAction@Gtk@@@Glib@@@std@@@std@@QEAA@XZ
    ?_Get_first@?$_Compressed_pair@U?$_Wrap_alloc@V?$allocator@V?$RefPtr@$$CBVAction@Gtk@@@Glib@@@std@@@std@@V?$_Vector_val@U?$_Simple_types@V?$RefPtr@$$CBVAction@Gtk@@@Glib@@@std@@@2@$00@std@@QEAAAEAU?$_Wrap_alloc@V?$allocator@V?$RefPtr@$$CBVAction@Gtk@@@Glib@@@std@@@2@XZ
    ?_Get_first@?$_Compressed_pair@U?$_Wrap_alloc@V?$allocator@V?$RefPtr@$$CBVAction@Gtk@@@Glib@@@std@@@std@@V?$_Vector_val@U?$_Simple_types@V?$RefPtr@$$CBVAction@Gtk@@@Glib@@@std@@@2@$00@std@@QEBAAEBU?$_Wrap_alloc@V?$allocator@V?$RefPtr@$$CBVAction@Gtk@@@Glib@@@std@@@2@XZ
    ?_Get_second@?$_Compressed_pair@U?$_Wrap_alloc@V?$allocator@V?$RefPtr@$$CBVAction@Gtk@@@Glib@@@std@@@std@@V?$_Vector_val@U?$_Simple_types@V?$RefPtr@$$CBVAction@Gtk@@@Glib@@@std@@@2@$00@std@@QEAAAEAV?$_Vector_val@U?$_Simple_types@V?$RefPtr@$$CBVAction@Gtk@@@Glib@@@std@@@2@XZ
    ??1?$_Compressed_pair@U?$_Wrap_alloc@V?$allocator@V?$RefPtr@$$CBVAction@Gtk@@@Glib@@@std@@@std@@V?$_Vector_val@U?$_Simple_types@V?$RefPtr@$$CBVAction@Gtk@@@Glib@@@std@@@2@$00@std@@QEAA@XZ
    ?max_size@?$vector@V?$RefPtr@$$CBVAction@Gtk@@@Glib@@V?$allocator@V?$RefPtr@$$CBVAction@Gtk@@@Glib@@@std@@@std@@QEBA_KXZ
    ?_Buy@?$vector@V?$RefPtr@$$CBVAction@Gtk@@@Glib@@V?$allocator@V?$RefPtr@$$CBVAction@Gtk@@@Glib@@@std@@@std@@IEAA_N_K@Z
    ?_Destroy@?$vector@V?$RefPtr@$$CBVAction@Gtk@@@Glib@@V?$allocator@V?$RefPtr@$$CBVAction@Gtk@@@Glib@@@std@@@std@@IEAAXPEAV?$RefPtr@$$CBVAction@Gtk@@@Glib@@0@Z
    ?_Tidy@?$vector@V?$RefPtr@$$CBVAction@Gtk@@@Glib@@V?$allocator@V?$RefPtr@$$CBVAction@Gtk@@@Glib@@@std@@@std@@IEAAXXZ
    ?_Xlen@?$vector@V?$RefPtr@$$CBVAction@Gtk@@@Glib@@V?$allocator@V?$RefPtr@$$CBVAction@Gtk@@@Glib@@@std@@@std@@IEBAXXZ
    ?to_cpp_type@?$TypeTraits@V?$RefPtr@$$CBVAction@Gtk@@@Glib@@@Container_Helpers@Glib@@SA?AV?$RefPtr@$$CBVAction@Gtk@@@3@PEBU_GtkAction@@@Z
    ?release_c_type@?$TypeTraits@V?$RefPtr@$$CBVAction@Gtk@@@Glib@@@Container_Helpers@Glib@@SAXPEBU_GtkAction@@@Z
    ?list_to_vector@?$ListHandler@V?$RefPtr@$$CBVAction@Gtk@@@Glib@@U?$TypeTraits@V?$RefPtr@$$CBVAction@Gtk@@@Glib@@@Container_Helpers@2@@Glib@@SA?AV?$vector@V?$RefPtr@$$CBVAction@Gtk@@@Glib@@V?$allocator@V?$RefPtr@$$CBVAction@Gtk@@@Glib@@@std@@@std@@PEAU_GList@@W4OwnershipType@2@@Z
    ??0?$SignalProxy2@XAEBV?$RefPtr@VAction@Gtk@@@Glib@@PEAVWidget@Gtk@@@Glib@@QEAA@PEAVObjectBase@1@PEBUSignalProxyInfo@1@@Z
    ??0?$SignalProxy1@XAEBV?$RefPtr@VAction@Gtk@@@Glib@@@Glib@@QEAA@PEAVObjectBase@1@PEBUSignalProxyInfo@1@@Z
    ??0?$PropertyProxy_ReadOnly@Vustring@Glib@@@Glib@@QEAA@PEBVObjectBase@1@PEBD@Z
    ??0?$PropertyProxy@_N@Glib@@QEAA@PEAVObjectBase@1@PEBD@Z
    ??0?$PropertyProxy_ReadOnly@_N@Glib@@QEAA@PEBVObjectBase@1@PEBD@Z
    ??0?$PropertyProxy@V?$RefPtr@VAccelGroup@Gtk@@@Glib@@@Glib@@QEAA@PEAVObjectBase@1@PEBD@Z
    ??0?$PropertyProxy_ReadOnly@V?$RefPtr@VAccelGroup@Gtk@@@Glib@@@Glib@@QEAA@PEBVObjectBase@1@PEBD@Z
    ??$move@AEAU?$_Wrap_alloc@V?$allocator@D@std@@@std@@@std@@YA$$QEAU?$_Wrap_alloc@V?$allocator@D@std@@@0@AEAU10@@Z
    ??$?0U?$_Wrap_alloc@V?$allocator@D@std@@@std@@X@?$_String_alloc@U?$_String_base_types@DV?$allocator@D@std@@@std@@@std@@QEAA@$$QEAU?$_Wrap_alloc@V?$allocator@D@std@@@1@@Z
    ??$?0V?$allocator@D@std@@@?$_Wrap_alloc@V?$allocator@D@std@@@std@@QEAA@$$QEAV?$allocator@D@1@@Z
    ??$destroy@PEAD@?$_Wrap_alloc@V?$allocator@D@std@@@std@@QEAAXPEAPEAD@Z
    ??$addressof@D@std@@YAPEADAEAD@Z
    ??$construct@PEADAEAPEAD@?$_Wrap_alloc@V?$allocator@D@std@@@std@@QEAAXPEAPEADAEAPEAD@Z
    ?deallocate@?$allocator@U_Container_proxy@std@@@std@@QEAAXPEAU_Container_proxy@2@_K@Z
    ?allocate@?$allocator@U_Container_proxy@std@@@std@@QEAAPEAU_Container_proxy@2@_K@Z
    ?allocate@?$_Wrap_alloc@V?$allocator@U_Container_proxy@std@@@std@@@std@@QEAAPEAU_Container_proxy@2@_K@Z
    ?deallocate@?$_Wrap_alloc@V?$allocator@U_Container_proxy@std@@@std@@@std@@QEAAXPEAU_Container_proxy@2@_K@Z
    ??$?0AEAU?$_Wrap_alloc@V?$allocator@V?$RefPtr@$$CBVAction@Gtk@@@Glib@@@std@@@std@@@?$_Wrap_alloc@V?$allocator@U_Container_proxy@std@@@std@@@std@@QEAA@AEAU?$_Wrap_alloc@V?$allocator@V?$RefPtr@$$CBVAction@Gtk@@@Glib@@@std@@@1@@Z
    ??$destroy@U_Container_proxy@std@@@?$_Wrap_alloc@V?$allocator@U_Container_proxy@std@@@std@@@std@@QEAAXPEAU_Container_proxy@1@@Z
    ??$?0AEAU?$_Wrap_alloc@V?$allocator@V?$RefPtr@VAction@Gtk@@@Glib@@@std@@@std@@@?$_Wrap_alloc@V?$allocator@U_Container_proxy@std@@@std@@@std@@QEAA@AEAU?$_Wrap_alloc@V?$allocator@V?$RefPtr@VAction@Gtk@@@Glib@@@std@@@1@@Z
    ??$_Destroy_range@U?$_Wrap_alloc@V?$allocator@V?$RefPtr@$$CBVAction@Gtk@@@Glib@@@std@@@std@@@std@@YAXPEAV?$RefPtr@$$CBVAction@Gtk@@@Glib@@0AEAU?$_Wrap_alloc@V?$allocator@V?$RefPtr@$$CBVAction@Gtk@@@Glib@@@std@@@0@@Z
    ??$_Destroy_range@U?$_Wrap_alloc@V?$allocator@V?$RefPtr@VAction@Gtk@@@Glib@@@std@@@std@@@std@@YAXPEAV?$RefPtr@VAction@Gtk@@@Glib@@0AEAU?$_Wrap_alloc@V?$allocator@V?$RefPtr@VAction@Gtk@@@Glib@@@std@@@0@@Z
    ??$construct@U_Container_proxy@std@@U12@@?$_Wrap_alloc@V?$allocator@U_Container_proxy@std@@@std@@@std@@QEAAXPEAU_Container_proxy@1@$$QEAU21@@Z
    ??$?0AEAU?$_Wrap_alloc@V?$allocator@D@std@@@std@@@?$_Wrap_alloc@V?$allocator@U_Container_proxy@std@@@std@@@std@@QEAA@AEAU?$_Wrap_alloc@V?$allocator@D@std@@@1@@Z
    ??0?$GListKeeper@U?$TypeTraits@V?$RefPtr@VAction@Gtk@@@Glib@@@Container_Helpers@Glib@@@Container_Helpers@Glib@@QEAA@PEBU_GList@@W4OwnershipType@2@@Z
    ??1?$GListKeeper@U?$TypeTraits@V?$RefPtr@VAction@Gtk@@@Glib@@@Container_Helpers@Glib@@@Container_Helpers@Glib@@QEAA@XZ
    ??0?$ListIterator@U?$TypeTraits@V?$RefPtr@VAction@Gtk@@@Glib@@@Container_Helpers@Glib@@@Container_Helpers@Glib@@QEAA@PEBU_GList@@@Z
    ??D?$ListIterator@U?$TypeTraits@V?$RefPtr@VAction@Gtk@@@Glib@@@Container_Helpers@Glib@@@Container_Helpers@Glib@@QEBA?AV?$RefPtr@VAction@Gtk@@@2@XZ
    ??E?$ListIterator@U?$TypeTraits@V?$RefPtr@VAction@Gtk@@@Glib@@@Container_Helpers@Glib@@@Container_Helpers@Glib@@QEAAAEAV012@XZ
    ??9?$ListIterator@U?$TypeTraits@V?$RefPtr@VAction@Gtk@@@Glib@@@Container_Helpers@Glib@@@Container_Helpers@Glib@@QEBA_NAEBV012@@Z
    ??$?0V?$ListIterator@U?$TypeTraits@V?$RefPtr@VAction@Gtk@@@Glib@@@Container_Helpers@Glib@@@Container_Helpers@Glib@@X@?$vector@V?$RefPtr@VAction@Gtk@@@Glib@@V?$allocator@V?$RefPtr@VAction@Gtk@@@Glib@@@std@@@std@@QEAA@V?$ListIterator@U?$TypeTraits@V?$RefPtr@VAction@Gtk@@@Glib@@@Container_Helpers@Glib@@@Container_Helpers@Glib@@0@Z
    ??0?$GListKeeper@U?$TypeTraits@V?$RefPtr@$$CBVAction@Gtk@@@Glib@@@Container_Helpers@Glib@@@Container_Helpers@Glib@@QEAA@PEBU_GList@@W4OwnershipType@2@@Z
    ??1?$GListKeeper@U?$TypeTraits@V?$RefPtr@$$CBVAction@Gtk@@@Glib@@@Container_Helpers@Glib@@@Container_Helpers@Glib@@QEAA@XZ
    ??0?$ListIterator@U?$TypeTraits@V?$RefPtr@$$CBVAction@Gtk@@@Glib@@@Container_Helpers@Glib@@@Container_Helpers@Glib@@QEAA@PEBU_GList@@@Z
    ??D?$ListIterator@U?$TypeTraits@V?$RefPtr@$$CBVAction@Gtk@@@Glib@@@Container_Helpers@Glib@@@Container_Helpers@Glib@@QEBA?AV?$RefPtr@$$CBVAction@Gtk@@@2@XZ
    ??E?$ListIterator@U?$TypeTraits@V?$RefPtr@$$CBVAction@Gtk@@@Glib@@@Container_Helpers@Glib@@@Container_Helpers@Glib@@QEAAAEAV012@XZ
    ??9?$ListIterator@U?$TypeTraits@V?$RefPtr@$$CBVAction@Gtk@@@Glib@@@Container_Helpers@Glib@@@Container_Helpers@Glib@@QEBA_NAEBV012@@Z
    ??$?0V?$ListIterator@U?$TypeTraits@V?$RefPtr@$$CBVAction@Gtk@@@Glib@@@Container_Helpers@Glib@@@Container_Helpers@Glib@@X@?$vector@V?$RefPtr@$$CBVAction@Gtk@@@Glib@@V?$allocator@V?$RefPtr@$$CBVAction@Gtk@@@Glib@@@std@@@std@@QEAA@V?$ListIterator@U?$TypeTraits@V?$RefPtr@$$CBVAction@Gtk@@@Glib@@@Container_Helpers@Glib@@@Container_Helpers@Glib@@0@Z
    ??$forward@U?$_Wrap_alloc@V?$allocator@D@std@@@std@@@std@@YA$$QEAU?$_Wrap_alloc@V?$allocator@D@std@@@0@AEAU10@@Z
    ??$?0U?$_Wrap_alloc@V?$allocator@D@std@@@std@@$$V@?$_Compressed_pair@U?$_Wrap_alloc@V?$allocator@D@std@@@std@@V?$_String_val@U?$_Simple_types@D@std@@@2@$00@std@@QEAA@U_One_then_variadic_args_t@1@$$QEAU?$_Wrap_alloc@V?$allocator@D@std@@@1@@Z
    ??$forward@V?$allocator@D@std@@@std@@YA$$QEAV?$allocator@D@0@AEAV10@@Z
    ??$destroy@PEAD@?$allocator_traits@V?$allocator@D@std@@@std@@SAXAEAV?$allocator@D@1@PEAPEAD@Z
    ??$_Addressof@D@std@@YAPEADAEADU?$integral_constant@_N$0A@@0@@Z
    ??$forward@AEAPEAD@std@@YAAEAPEADAEAPEAD@Z
    ??$construct@PEADAEAPEAD@?$allocator_traits@V?$allocator@D@std@@@std@@SAXAEAV?$allocator@D@1@PEAPEADAEAPEAD@Z
    ??$forward@AEAU?$_Wrap_alloc@V?$allocator@V?$RefPtr@$$CBVAction@Gtk@@@Glib@@@std@@@std@@@std@@YAAEAU?$_Wrap_alloc@V?$allocator@V?$RefPtr@$$CBVAction@Gtk@@@Glib@@@std@@@0@AEAU10@@Z
    ??$?0V?$RefPtr@$$CBVAction@Gtk@@@Glib@@@?$allocator@U_Container_proxy@std@@@std@@QEAA@AEBV?$allocator@V?$RefPtr@$$CBVAction@Gtk@@@Glib@@@1@@Z
    ??$destroy@U_Container_proxy@std@@@?$allocator_traits@V?$allocator@U_Container_proxy@std@@@std@@@std@@SAXAEAV?$allocator@U_Container_proxy@std@@@1@PEAU_Container_proxy@1@@Z
    ??$forward@AEAU?$_Wrap_alloc@V?$allocator@V?$RefPtr@VAction@Gtk@@@Glib@@@std@@@std@@@std@@YAAEAU?$_Wrap_alloc@V?$allocator@V?$RefPtr@VAction@Gtk@@@Glib@@@std@@@0@AEAU10@@Z
    ??$?0V?$RefPtr@VAction@Gtk@@@Glib@@@?$allocator@U_Container_proxy@std@@@std@@QEAA@AEBV?$allocator@V?$RefPtr@VAction@Gtk@@@Glib@@@1@@Z
    ??$addressof@V?$RefPtr@$$CBVAction@Gtk@@@Glib@@@std@@YAPEAV?$RefPtr@$$CBVAction@Gtk@@@Glib@@AEAV12@@Z
    ??$destroy@V?$RefPtr@$$CBVAction@Gtk@@@Glib@@@?$_Wrap_alloc@V?$allocator@V?$RefPtr@$$CBVAction@Gtk@@@Glib@@@std@@@std@@QEAAXPEAV?$RefPtr@$$CBVAction@Gtk@@@Glib@@@Z
    ??$addressof@V?$RefPtr@VAction@Gtk@@@Glib@@@std@@YAPEAV?$RefPtr@VAction@Gtk@@@Glib@@AEAV12@@Z
    ??$destroy@V?$RefPtr@VAction@Gtk@@@Glib@@@?$_Wrap_alloc@V?$allocator@V?$RefPtr@VAction@Gtk@@@Glib@@@std@@@std@@QEAAXPEAV?$RefPtr@VAction@Gtk@@@Glib@@@Z
    ??$forward@U_Container_proxy@std@@@std@@YA$$QEAU_Container_proxy@0@AEAU10@@Z
    ??$construct@U_Container_proxy@std@@U12@@?$allocator_traits@V?$allocator@U_Container_proxy@std@@@std@@@std@@SAXAEAV?$allocator@U_Container_proxy@std@@@1@PEAU_Container_proxy@1@$$QEAU31@@Z
    ??$forward@AEAU?$_Wrap_alloc@V?$allocator@D@std@@@std@@@std@@YAAEAU?$_Wrap_alloc@V?$allocator@D@std@@@0@AEAU10@@Z
    ??$?0D@?$allocator@U_Container_proxy@std@@@std@@QEAA@AEBV?$allocator@D@1@@Z
    ??$_Construct@V?$ListIterator@U?$TypeTraits@V?$RefPtr@VAction@Gtk@@@Glib@@@Container_Helpers@Glib@@@Container_Helpers@Glib@@@?$vector@V?$RefPtr@VAction@Gtk@@@Glib@@V?$allocator@V?$RefPtr@VAction@Gtk@@@Glib@@@std@@@std@@QEAAXV?$ListIterator@U?$TypeTraits@V?$RefPtr@VAction@Gtk@@@Glib@@@Container_Helpers@Glib@@@Container_Helpers@Glib@@0@Z
    ??$_Construct@V?$ListIterator@U?$TypeTraits@V?$RefPtr@$$CBVAction@Gtk@@@Glib@@@Container_Helpers@Glib@@@Container_Helpers@Glib@@@?$vector@V?$RefPtr@$$CBVAction@Gtk@@@Glib@@V?$allocator@V?$RefPtr@$$CBVAction@Gtk@@@Glib@@@std@@@std@@QEAAXV?$ListIterator@U?$TypeTraits@V?$RefPtr@$$CBVAction@Gtk@@@Glib@@@Container_Helpers@Glib@@@Container_Helpers@Glib@@0@Z
    ??$destroy@PEAD@?$allocator@D@std@@QEAAXPEAPEAD@Z
    ??$construct@PEADAEAPEAD@?$allocator@D@std@@QEAAXPEAPEADAEAPEAD@Z
    ??$destroy@U_Container_proxy@std@@@?$allocator@U_Container_proxy@std@@@std@@QEAAXPEAU_Container_proxy@1@@Z
    ??$_Addressof@V?$RefPtr@$$CBVAction@Gtk@@@Glib@@@std@@YAPEAV?$RefPtr@$$CBVAction@Gtk@@@Glib@@AEAV12@U?$integral_constant@_N$0A@@0@@Z
    ??$destroy@V?$RefPtr@$$CBVAction@Gtk@@@Glib@@@?$allocator_traits@V?$allocator@V?$RefPtr@$$CBVAction@Gtk@@@Glib@@@std@@@std@@SAXAEAV?$allocator@V?$RefPtr@$$CBVAction@Gtk@@@Glib@@@1@PEAV?$RefPtr@$$CBVAction@Gtk@@@Glib@@@Z
    ??$_Addressof@V?$RefPtr@VAction@Gtk@@@Glib@@@std@@YAPEAV?$RefPtr@VAction@Gtk@@@Glib@@AEAV12@U?$integral_constant@_N$0A@@0@@Z
    ??$destroy@V?$RefPtr@VAction@Gtk@@@Glib@@@?$allocator_traits@V?$allocator@V?$RefPtr@VAction@Gtk@@@Glib@@@std@@@std@@SAXAEAV?$allocator@V?$RefPtr@VAction@Gtk@@@Glib@@@1@PEAV?$RefPtr@VAction@Gtk@@@Glib@@@Z
    ??$construct@U_Container_proxy@std@@U12@@?$allocator@U_Container_proxy@std@@@std@@QEAAXPEAU_Container_proxy@1@$$QEAU21@@Z
    ??$?0$$V@?$_Compressed_pair@U?$_Wrap_alloc@V?$allocator@V?$RefPtr@$$CBVAction@Gtk@@@Glib@@@std@@@std@@V?$_Vector_val@U?$_Simple_types@V?$RefPtr@$$CBVAction@Gtk@@@Glib@@@std@@@2@$00@std@@QEAA@U_Zero_then_variadic_args_t@1@@Z
    ??$?0$$V@?$_Compressed_pair@U?$_Wrap_alloc@V?$allocator@V?$RefPtr@VAction@Gtk@@@Glib@@@std@@@std@@V?$_Vector_val@U?$_Simple_types@V?$RefPtr@VAction@Gtk@@@Glib@@@std@@@2@$00@std@@QEAA@U_Zero_then_variadic_args_t@1@@Z
    ??$_Iter_cat@V?$ListIterator@U?$TypeTraits@V?$RefPtr@VAction@Gtk@@@Glib@@@Container_Helpers@Glib@@@Container_Helpers@Glib@@@std@@YA?AUforward_iterator_tag@0@AEBV?$ListIterator@U?$TypeTraits@V?$RefPtr@VAction@Gtk@@@Glib@@@Container_Helpers@Glib@@@Container_Helpers@Glib@@@Z
    ??$_Construct@V?$ListIterator@U?$TypeTraits@V?$RefPtr@VAction@Gtk@@@Glib@@@Container_Helpers@Glib@@@Container_Helpers@Glib@@@?$vector@V?$RefPtr@VAction@Gtk@@@Glib@@V?$allocator@V?$RefPtr@VAction@Gtk@@@Glib@@@std@@@std@@QEAAXV?$ListIterator@U?$TypeTraits@V?$RefPtr@VAction@Gtk@@@Glib@@@Container_Helpers@Glib@@@Container_Helpers@Glib@@0Uforward_iterator_tag@1@@Z
    ??$_Iter_cat@V?$ListIterator@U?$TypeTraits@V?$RefPtr@$$CBVAction@Gtk@@@Glib@@@Container_Helpers@Glib@@@Container_Helpers@Glib@@@std@@YA?AUforward_iterator_tag@0@AEBV?$ListIterator@U?$TypeTraits@V?$RefPtr@$$CBVAction@Gtk@@@Glib@@@Container_Helpers@Glib@@@Container_Helpers@Glib@@@Z
    ??$_Construct@V?$ListIterator@U?$TypeTraits@V?$RefPtr@$$CBVAction@Gtk@@@Glib@@@Container_Helpers@Glib@@@Container_Helpers@Glib@@@?$vector@V?$RefPtr@$$CBVAction@Gtk@@@Glib@@V?$allocator@V?$RefPtr@$$CBVAction@Gtk@@@Glib@@@std@@@std@@QEAAXV?$ListIterator@U?$TypeTraits@V?$RefPtr@$$CBVAction@Gtk@@@Glib@@@Container_Helpers@Glib@@@Container_Helpers@Glib@@0Uforward_iterator_tag@1@@Z
    ??$destroy@V?$RefPtr@$$CBVAction@Gtk@@@Glib@@@?$allocator@V?$RefPtr@$$CBVAction@Gtk@@@Glib@@@std@@QEAAXPEAV?$RefPtr@$$CBVAction@Gtk@@@Glib@@@Z
    ??$destroy@V?$RefPtr@VAction@Gtk@@@Glib@@@?$allocator@V?$RefPtr@VAction@Gtk@@@Glib@@@std@@QEAAXPEAV?$RefPtr@VAction@Gtk@@@Glib@@@Z
    ??$distance@V?$ListIterator@U?$TypeTraits@V?$RefPtr@VAction@Gtk@@@Glib@@@Container_Helpers@Glib@@@Container_Helpers@Glib@@@std@@YA_JV?$ListIterator@U?$TypeTraits@V?$RefPtr@VAction@Gtk@@@Glib@@@Container_Helpers@Glib@@@Container_Helpers@Glib@@0@Z
    ??$_Ucopy@V?$ListIterator@U?$TypeTraits@V?$RefPtr@VAction@Gtk@@@Glib@@@Container_Helpers@Glib@@@Container_Helpers@Glib@@@?$vector@V?$RefPtr@VAction@Gtk@@@Glib@@V?$allocator@V?$RefPtr@VAction@Gtk@@@Glib@@@std@@@std@@IEAAPEAV?$RefPtr@VAction@Gtk@@@Glib@@V?$ListIterator@U?$TypeTraits@V?$RefPtr@VAction@Gtk@@@Glib@@@Container_Helpers@Glib@@@Container_Helpers@3@0PEAV23@@Z
    ??$distance@V?$ListIterator@U?$TypeTraits@V?$RefPtr@$$CBVAction@Gtk@@@Glib@@@Container_Helpers@Glib@@@Container_Helpers@Glib@@@std@@YA_JV?$ListIterator@U?$TypeTraits@V?$RefPtr@$$CBVAction@Gtk@@@Glib@@@Container_Helpers@Glib@@@Container_Helpers@Glib@@0@Z
    ??$_Ucopy@V?$ListIterator@U?$TypeTraits@V?$RefPtr@$$CBVAction@Gtk@@@Glib@@@Container_Helpers@Glib@@@Container_Helpers@Glib@@@?$vector@V?$RefPtr@$$CBVAction@Gtk@@@Glib@@V?$allocator@V?$RefPtr@$$CBVAction@Gtk@@@Glib@@@std@@@std@@IEAAPEAV?$RefPtr@$$CBVAction@Gtk@@@Glib@@V?$ListIterator@U?$TypeTraits@V?$RefPtr@$$CBVAction@Gtk@@@Glib@@@Container_Helpers@Glib@@@Container_Helpers@3@0PEAV23@@Z
    ??$_Distance2@V?$ListIterator@U?$TypeTraits@V?$RefPtr@VAction@Gtk@@@Glib@@@Container_Helpers@Glib@@@Container_Helpers@Glib@@_J@std@@YAXV?$ListIterator@U?$TypeTraits@V?$RefPtr@VAction@Gtk@@@Glib@@@Container_Helpers@Glib@@@Container_Helpers@Glib@@0AEA_JUforward_iterator_tag@0@@Z
    ??$_Uninitialized_copy@V?$ListIterator@U?$TypeTraits@V?$RefPtr@VAction@Gtk@@@Glib@@@Container_Helpers@Glib@@@Container_Helpers@Glib@@PEAV?$RefPtr@VAction@Gtk@@@3@U?$_Wrap_alloc@V?$allocator@V?$RefPtr@VAction@Gtk@@@Glib@@@std@@@std@@@std@@YAPEAV?$RefPtr@VAction@Gtk@@@Glib@@V?$ListIterator@U?$TypeTraits@V?$RefPtr@VAction@Gtk@@@Glib@@@Container_Helpers@Glib@@@Container_Helpers@2@0PEAV12@AEAU?$_Wrap_alloc@V?$allocator@V?$RefPtr@VAction@Gtk@@@Glib@@@std@@@0@@Z
    ??$_Distance2@V?$ListIterator@U?$TypeTraits@V?$RefPtr@$$CBVAction@Gtk@@@Glib@@@Container_Helpers@Glib@@@Container_Helpers@Glib@@_J@std@@YAXV?$ListIterator@U?$TypeTraits@V?$RefPtr@$$CBVAction@Gtk@@@Glib@@@Container_Helpers@Glib@@@Container_Helpers@Glib@@0AEA_JUforward_iterator_tag@0@@Z
    ??$_Uninitialized_copy@V?$ListIterator@U?$TypeTraits@V?$RefPtr@$$CBVAction@Gtk@@@Glib@@@Container_Helpers@Glib@@@Container_Helpers@Glib@@PEAV?$RefPtr@$$CBVAction@Gtk@@@3@U?$_Wrap_alloc@V?$allocator@V?$RefPtr@$$CBVAction@Gtk@@@Glib@@@std@@@std@@@std@@YAPEAV?$RefPtr@$$CBVAction@Gtk@@@Glib@@V?$ListIterator@U?$TypeTraits@V?$RefPtr@$$CBVAction@Gtk@@@Glib@@@Container_Helpers@Glib@@@Container_Helpers@2@0PEAV12@AEAU?$_Wrap_alloc@V?$allocator@V?$RefPtr@$$CBVAction@Gtk@@@Glib@@@std@@@0@@Z
    ??$_Unchecked@V?$ListIterator@U?$TypeTraits@V?$RefPtr@VAction@Gtk@@@Glib@@@Container_Helpers@Glib@@@Container_Helpers@Glib@@@std@@YA?AV?$ListIterator@U?$TypeTraits@V?$RefPtr@VAction@Gtk@@@Glib@@@Container_Helpers@Glib@@@Container_Helpers@Glib@@V123@@Z
    ??$_Unchecked@PEAV?$RefPtr@VAction@Gtk@@@Glib@@@std@@YAPEAV?$RefPtr@VAction@Gtk@@@Glib@@PEAV12@@Z
    ??$_Uninitialized_copy_al_unchecked@V?$ListIterator@U?$TypeTraits@V?$RefPtr@VAction@Gtk@@@Glib@@@Container_Helpers@Glib@@@Container_Helpers@Glib@@PEAV?$RefPtr@VAction@Gtk@@@3@U?$_Wrap_alloc@V?$allocator@V?$RefPtr@VAction@Gtk@@@Glib@@@std@@@std@@@std@@YAPEAV?$RefPtr@VAction@Gtk@@@Glib@@V?$ListIterator@U?$TypeTraits@V?$RefPtr@VAction@Gtk@@@Glib@@@Container_Helpers@Glib@@@Container_Helpers@2@0PEAV12@AEAU?$_Wrap_alloc@V?$allocator@V?$RefPtr@VAction@Gtk@@@Glib@@@std@@@0@@Z
    ??$_Rechecked@PEAV?$RefPtr@VAction@Gtk@@@Glib@@PEAV12@@std@@YAAEAPEAV?$RefPtr@VAction@Gtk@@@Glib@@AEAPEAV12@PEAV12@@Z
    ??$_Unchecked@V?$ListIterator@U?$TypeTraits@V?$RefPtr@$$CBVAction@Gtk@@@Glib@@@Container_Helpers@Glib@@@Container_Helpers@Glib@@@std@@YA?AV?$ListIterator@U?$TypeTraits@V?$RefPtr@$$CBVAction@Gtk@@@Glib@@@Container_Helpers@Glib@@@Container_Helpers@Glib@@V123@@Z
    ??$_Unchecked@PEAV?$RefPtr@$$CBVAction@Gtk@@@Glib@@@std@@YAPEAV?$RefPtr@$$CBVAction@Gtk@@@Glib@@PEAV12@@Z
    ??$_Uninitialized_copy_al_unchecked@V?$ListIterator@U?$TypeTraits@V?$RefPtr@$$CBVAction@Gtk@@@Glib@@@Container_Helpers@Glib@@@Container_Helpers@Glib@@PEAV?$RefPtr@$$CBVAction@Gtk@@@3@U?$_Wrap_alloc@V?$allocator@V?$RefPtr@$$CBVAction@Gtk@@@Glib@@@std@@@std@@@std@@YAPEAV?$RefPtr@$$CBVAction@Gtk@@@Glib@@V?$ListIterator@U?$TypeTraits@V?$RefPtr@$$CBVAction@Gtk@@@Glib@@@Container_Helpers@Glib@@@Container_Helpers@2@0PEAV12@AEAU?$_Wrap_alloc@V?$allocator@V?$RefPtr@$$CBVAction@Gtk@@@Glib@@@std@@@0@@Z
    ??$_Rechecked@PEAV?$RefPtr@$$CBVAction@Gtk@@@Glib@@PEAV12@@std@@YAAEAPEAV?$RefPtr@$$CBVAction@Gtk@@@Glib@@AEAPEAV12@PEAV12@@Z
    ??$_Ptr_copy_cat@V?$ListIterator@U?$TypeTraits@V?$RefPtr@VAction@Gtk@@@Glib@@@Container_Helpers@Glib@@@Container_Helpers@Glib@@PEAV?$RefPtr@VAction@Gtk@@@3@@std@@YA?AU_General_ptr_iterator_tag@0@AEBV?$ListIterator@U?$TypeTraits@V?$RefPtr@VAction@Gtk@@@Glib@@@Container_Helpers@Glib@@@Container_Helpers@Glib@@AEBQEAV?$RefPtr@VAction@Gtk@@@4@@Z
    ??$_Uninitialized_copy_al_unchecked1@V?$ListIterator@U?$TypeTraits@V?$RefPtr@VAction@Gtk@@@Glib@@@Container_Helpers@Glib@@@Container_Helpers@Glib@@PEAV?$RefPtr@VAction@Gtk@@@3@V?$allocator@V?$RefPtr@VAction@Gtk@@@Glib@@@std@@@std@@YAPEAV?$RefPtr@VAction@Gtk@@@Glib@@V?$ListIterator@U?$TypeTraits@V?$RefPtr@VAction@Gtk@@@Glib@@@Container_Helpers@Glib@@@Container_Helpers@2@0PEAV12@AEAU?$_Wrap_alloc@V?$allocator@V?$RefPtr@VAction@Gtk@@@Glib@@@std@@@0@U_General_ptr_iterator_tag@0@@Z
    ??$_Ptr_copy_cat@V?$ListIterator@U?$TypeTraits@V?$RefPtr@$$CBVAction@Gtk@@@Glib@@@Container_Helpers@Glib@@@Container_Helpers@Glib@@PEAV?$RefPtr@$$CBVAction@Gtk@@@3@@std@@YA?AU_General_ptr_iterator_tag@0@AEBV?$ListIterator@U?$TypeTraits@V?$RefPtr@$$CBVAction@Gtk@@@Glib@@@Container_Helpers@Glib@@@Container_Helpers@Glib@@AEBQEAV?$RefPtr@$$CBVAction@Gtk@@@4@@Z
    ??$_Uninitialized_copy_al_unchecked1@V?$ListIterator@U?$TypeTraits@V?$RefPtr@$$CBVAction@Gtk@@@Glib@@@Container_Helpers@Glib@@@Container_Helpers@Glib@@PEAV?$RefPtr@$$CBVAction@Gtk@@@3@V?$allocator@V?$RefPtr@$$CBVAction@Gtk@@@Glib@@@std@@@std@@YAPEAV?$RefPtr@$$CBVAction@Gtk@@@Glib@@V?$ListIterator@U?$TypeTraits@V?$RefPtr@$$CBVAction@Gtk@@@Glib@@@Container_Helpers@Glib@@@Container_Helpers@2@0PEAV12@AEAU?$_Wrap_alloc@V?$allocator@V?$RefPtr@$$CBVAction@Gtk@@@Glib@@@std@@@0@U_General_ptr_iterator_tag@0@@Z
    ??$construct@V?$RefPtr@VAction@Gtk@@@Glib@@V12@@?$_Wrap_alloc@V?$allocator@V?$RefPtr@VAction@Gtk@@@Glib@@@std@@@std@@QEAAXPEAV?$RefPtr@VAction@Gtk@@@Glib@@$$QEAV23@@Z
    ??$construct@V?$RefPtr@$$CBVAction@Gtk@@@Glib@@V12@@?$_Wrap_alloc@V?$allocator@V?$RefPtr@$$CBVAction@Gtk@@@Glib@@@std@@@std@@QEAAXPEAV?$RefPtr@$$CBVAction@Gtk@@@Glib@@$$QEAV23@@Z
    ??$forward@V?$RefPtr@VAction@Gtk@@@Glib@@@std@@YA$$QEAV?$RefPtr@VAction@Gtk@@@Glib@@AEAV12@@Z
    ??$construct@V?$RefPtr@VAction@Gtk@@@Glib@@V12@@?$allocator_traits@V?$allocator@V?$RefPtr@VAction@Gtk@@@Glib@@@std@@@std@@SAXAEAV?$allocator@V?$RefPtr@VAction@Gtk@@@Glib@@@1@PEAV?$RefPtr@VAction@Gtk@@@Glib@@$$QEAV34@@Z
    ??$forward@V?$RefPtr@$$CBVAction@Gtk@@@Glib@@@std@@YA$$QEAV?$RefPtr@$$CBVAction@Gtk@@@Glib@@AEAV12@@Z
    ??$construct@V?$RefPtr@$$CBVAction@Gtk@@@Glib@@V12@@?$allocator_traits@V?$allocator@V?$RefPtr@$$CBVAction@Gtk@@@Glib@@@std@@@std@@SAXAEAV?$allocator@V?$RefPtr@$$CBVAction@Gtk@@@Glib@@@1@PEAV?$RefPtr@$$CBVAction@Gtk@@@Glib@@$$QEAV34@@Z
    ??$construct@V?$RefPtr@VAction@Gtk@@@Glib@@V12@@?$allocator@V?$RefPtr@VAction@Gtk@@@Glib@@@std@@QEAAXPEAV?$RefPtr@VAction@Gtk@@@Glib@@$$QEAV23@@Z
    ??$construct@V?$RefPtr@$$CBVAction@Gtk@@@Glib@@V12@@?$allocator@V?$RefPtr@$$CBVAction@Gtk@@@Glib@@@std@@QEAAXPEAV?$RefPtr@$$CBVAction@Gtk@@@Glib@@$$QEAV23@@Z
    ??_C@_0BE@LMNLACIC@_Ptr_container?5?$CB?$DN?50?$AA@
    ??_C@_1DG@HGDKEBPG@?$AA?$CC?$AA_?$AAP?$AAt?$AAr?$AA_?$AAc?$AAo?$AAn?$AAt?$AAa?$AAi?$AAn?$AAe?$AAr?$AA?5?$AA?$CB?$AA?$DN?$AA?5?$AA0?$AA?$CC?$AA?5?$AA?$CG?$AA?$CG?$AA?5?$AA0?$AA?$AA@
    ??_C@_17CNPHIMPH@?$AA?$CF?$AAl?$AAs?$AA?$AA@
    ??_C@_1GG@GGEDIOFC@?$AAD?$AA?3?$AA?2?$AAG?$AAi?$AAt?$AAH?$AAu?$AAb?$AA?2?$AAI?$AAn?$AAs?$AAt?$AAa?$AAl?$AAl?$AA?2?$AAV?$AAi?$AAs?$AAu?$AAa?$AAl?$AAS?$AAt?$AAu?$AAd?$AAi?$AAo?$AA?2?$AAV@
    ??_C@_1BO@NKFMJPA@?$AAs?$AAt?$AAd?$AA?3?$AA?3?$AA_?$AAA?$AAl?$AAl?$AAo?$AAc?$AAa?$AAt?$AAe?$AA?$AA@
    ??_C@_1CG@JNLFBNGN@?$AA?$CC?$AAi?$AAn?$AAv?$AAa?$AAl?$AAi?$AAd?$AA?5?$AAa?$AAr?$AAg?$AAu?$AAm?$AAe?$AAn?$AAt?$AA?$CC?$AA?$AA@
    ??_C@_09GLJCAGLP@_Ptr?5?$CB?$DN?50?$AA@
    ??_C@_1CC@GKJLLHIM@?$AA?$CC?$AA_?$AAP?$AAt?$AAr?$AA?5?$AA?$CB?$AA?$DN?$AA?5?$AA0?$AA?$CC?$AA?5?$AA?$CG?$AA?$CG?$AA?5?$AA0?$AA?$AA@
    ??_C@_0BN@HMCJOMKN@_Count?5?$DM?$DN?5?$CIsize_t?$CJ?$CI?91?$CJ?5?1?5_Sz?$AA@
    ??_C@_1EI@MLOBABC@?$AA?$CC?$AA_?$AAC?$AAo?$AAu?$AAn?$AAt?$AA?5?$AA?$DM?$AA?$DN?$AA?5?$AA?$CI?$AAs?$AAi?$AAz?$AAe?$AA_?$AAt?$AA?$CJ?$AA?$CI?$AA?9?$AA1?$AA?$CJ?$AA?5?$AA?1?$AA?5?$AA_?$AAS?$AAz?$AA?$CC?$AA?5?$AA?$CG@
    ??_C@_1CC@LOFJFFDB@?$AAs?$AAt?$AAd?$AA?3?$AA?3?$AA_?$AAD?$AAe?$AAa?$AAl?$AAl?$AAo?$AAc?$AAa?$AAt?$AAe?$AA?$AA@
    ??_C@_0DD@GBGGGKGG@?$CI_Ptr_user?5?$CG?5?$CI_BIG_ALLOCATION_AL@
    ??_C@_1HE@CDMBFOKC@?$AA?$CC?$AA?$CI?$AA_?$AAP?$AAt?$AAr?$AA_?$AAu?$AAs?$AAe?$AAr?$AA?5?$AA?$CG?$AA?5?$AA?$CI?$AA_?$AAB?$AAI?$AAG?$AA_?$AAA?$AAL?$AAL?$AAO?$AAC?$AAA?$AAT?$AAI?$AAO?$AAN?$AA_?$AAA@
    ??_C@_0EI@NOJHEJCJ@reinterpret_cast?$DMuintptr_t?5?$CK?$DO?$CI_P@
    ??_C@_1JO@EKLKIEHP@?$AA?$CC?$AAr?$AAe?$AAi?$AAn?$AAt?$AAe?$AAr?$AAp?$AAr?$AAe?$AAt?$AA_?$AAc?$AAa?$AAs?$AAt?$AA?$DM?$AAu?$AAi?$AAn?$AAt?$AAp?$AAt?$AAr?$AA_?$AAt?$AA?5?$AA?$CK?$AA?$DO?$AA?$CI?$AA_@
    ??_C@_0BL@OCKMEJON@_Ptr_container?5?$DM?5_Ptr_user?$AA@
    ??_C@_1EE@PDHAHDDC@?$AA?$CC?$AA_?$AAP?$AAt?$AAr?$AA_?$AAc?$AAo?$AAn?$AAt?$AAa?$AAi?$AAn?$AAe?$AAr?$AA?5?$AA?$DM?$AA?5?$AA_?$AAP?$AAt?$AAr?$AA_?$AAu?$AAs?$AAe?$AAr?$AA?$CC?$AA?5?$AA?$CG?$AA?$CG?$AA?5@
    ??_C@_0DB@GLFJLNCE@2?5?$CK?5sizeof?$CIvoid?5?$CK?$CJ?5?$DM?$DN?5_Ptr_user?5@
    ??_C@_1HA@NAPGMHAO@?$AA?$CC?$AA2?$AA?5?$AA?$CK?$AA?5?$AAs?$AAi?$AAz?$AAe?$AAo?$AAf?$AA?$CI?$AAv?$AAo?$AAi?$AAd?$AA?5?$AA?$CK?$AA?$CJ?$AA?5?$AA?$DM?$AA?$DN?$AA?5?$AA_?$AAP?$AAt?$AAr?$AA_?$AAu?$AAs?$AAe?$AAr@
    ??_C@_0CN@BLHJCAL@_Ptr_user?5?9?5_Ptr_container?5?$DM?$DN?5_N@
    ??_C@_1GI@DHJGPFNI@?$AA?$CC?$AA_?$AAP?$AAt?$AAr?$AA_?$AAu?$AAs?$AAe?$AAr?$AA?5?$AA?9?$AA?5?$AA_?$AAP?$AAt?$AAr?$AA_?$AAc?$AAo?$AAn?$AAt?$AAa?$AAi?$AAn?$AAe?$AAr?$AA?5?$AA?$DM?$AA?$DN?$AA?5?$AA_@
    ?npos@?$basic_string@DU?$char_traits@D@std@@V?$allocator@D@2@@std@@2_KB
    ??_7ActionGroup@Gtk@@6B@
    ??_8ActionGroup@Gtk@@7BObject@Glib@@@
    ??_8ActionGroup@Gtk@@7BInterface@Glib@@@
    ??_8ActionGroup@Gtk@@7BObjectBase@Glib@@@
    ??_R0?AVObjectBase@Glib@@@8
    ??_R0?AVActionGroup@Gtk@@@8
    ??_C@_0BA@JFNIOLAK@string?5too?5long?$AA@
    ??_C@_0BI@CFPLBAOH@invalid?5string?5position?$AA@
    ??_C@_0BD@OLBABOEK@vector?$DMT?$DO?5too?5long?$AA@
    ??_R0?AVAction@Gtk@@@8
    ??_R4ActionGroup@Gtk@@6B@
    ??_R3ActionGroup@Gtk@@8
    ??_R2ActionGroup@Gtk@@8
    ??_R1A@?0A@EA@ActionGroup@Gtk@@8
    ??_R1A@?0A@EA@Object@Glib@@8
    ??_R0?AVObject@Glib@@@8
    ??_R3Object@Glib@@8
    ??_R2Object@Glib@@8
    ??_R1A@A@7FA@ObjectBase@Glib@@8
    ??_R3ObjectBase@Glib@@8
    ??_R2ObjectBase@Glib@@8
    ??_R1A@?0A@EA@ObjectBase@Glib@@8
    ??_R1A@73FA@trackable@sigc@@8
    ??_R0?AUtrackable@sigc@@@8
    ??_R3trackable@sigc@@8
    ??_R2trackable@sigc@@8
    ??_R1A@?0A@EA@trackable@sigc@@8
    ??_R1A@A@3FA@trackable@sigc@@8
    ??_R17?0A@EA@Buildable@Gtk@@8
    ??_R0?AVBuildable@Gtk@@@8
    ??_R3Buildable@Gtk@@8
    ??_R2Buildable@Gtk@@8
    ??_R1A@?0A@EA@Buildable@Gtk@@8
    ??_R1A@?0A@EA@Interface@Glib@@8
    ??_R0?AVInterface@Glib@@@8
    ??_R3Interface@Glib@@8
    ??_R2Interface@Glib@@8
    ??_R17?0A@EA@Interface@Glib@@8
    ?activatable_class_@Activatable@Gtk@@0VActivatable_Class@2@A
    ?__empty_global_delete@@YAXPEAX@Z
    ?__empty_global_delete@@YAXPEAX_K@Z
    ?name@type_info@@QEBAPEBDXZ
    ?get_type@Class@Glib@@QEBA_KXZ
    ?convert_const_gchar_ptr_to_ustring@Glib@@YA?AVustring@1@PEBD@Z
    ?gobj@Action@Gtk@@QEAAPEAU_GtkAction@@XZ
    ??0Activatable@Gtk@@IEAA@XZ
    ??0Activatable@Gtk@@IEAA@AEBVInterface_Class@Glib@@@Z
    ??0Activatable@Gtk@@QEAA@PEAU_GtkActivatable@@@Z
    ??1Activatable@Gtk@@UEAA@XZ
    ?add_interface@Activatable@Gtk@@SAX_K@Z
    ?get_type@Activatable@Gtk@@SA_KXZ
    ?get_base_type@Activatable@Gtk@@SA_KXZ
    ?gobj@Activatable@Gtk@@QEAAPEAU_GtkActivatable@@XZ
    ?gobj@Activatable@Gtk@@QEBAPEBU_GtkActivatable@@XZ
    ?do_set_related_action@Activatable@Gtk@@QEAAXAEBV?$RefPtr@VAction@Gtk@@@Glib@@@Z
    ?get_related_action@Activatable@Gtk@@QEAA?AV?$RefPtr@VAction@Gtk@@@Glib@@XZ
    ?get_related_action@Activatable@Gtk@@QEBA?AV?$RefPtr@$$CBVAction@Gtk@@@Glib@@XZ
    ?get_use_action_appearance@Activatable@Gtk@@QEBA_NXZ
    ?sync_action_properties@Activatable@Gtk@@QEAAXAEBV?$RefPtr@VAction@Gtk@@@Glib@@@Z
    ?set_related_action@Activatable@Gtk@@QEAAXAEBV?$RefPtr@VAction@Gtk@@@Glib@@@Z
    ?set_use_action_appearance@Activatable@Gtk@@QEAAX_N@Z
    ?property_related_action@Activatable@Gtk@@QEAA?AV?$PropertyProxy@V?$RefPtr@VAction@Gtk@@@Glib@@@Glib@@XZ
    ?property_related_action@Activatable@Gtk@@QEBA?AV?$PropertyProxy_ReadOnly@V?$RefPtr@VAction@Gtk@@@Glib@@@Glib@@XZ
    ?property_use_action_appearance@Activatable@Gtk@@QEAA?AV?$PropertyProxy@_N@Glib@@XZ
    ?property_use_action_appearance@Activatable@Gtk@@QEBA?AV?$PropertyProxy_ReadOnly@_N@Glib@@XZ
    ?update_vfunc@Activatable@Gtk@@UEAAXAEBV?$RefPtr@VAction@Gtk@@@Glib@@AEBVustring@4@@Z
    ?sync_action_properties_vfunc@Activatable@Gtk@@UEAAXAEBV?$RefPtr@VAction@Gtk@@@Glib@@@Z
    ??_DActivatable@Gtk@@QEAAXXZ
    ?wrap@Glib@@YA?AV?$RefPtr@VActivatable@Gtk@@@1@PEAU_GtkActivatable@@_N@Z
    ?init@Activatable_Class@Gtk@@QEAAAEBVInterface_Class@Glib@@XZ
    ?iface_init_function@Activatable_Class@Gtk@@SAXPEAX0@Z
    ?wrap_new@Activatable_Class@Gtk@@SAPEAVObjectBase@Glib@@PEAU_GObject@@@Z
    ?update_vfunc_callback@Activatable_Class@Gtk@@KAXPEAU_GtkActivatable@@PEAU_GtkAction@@PEBD@Z
    ?sync_action_properties_vfunc_callback@Activatable_Class@Gtk@@KAXPEAU_GtkActivatable@@PEAU_GtkAction@@@Z
    ??0?$RefPtr@VActivatable@Gtk@@@Glib@@QEAA@PEAVActivatable@Gtk@@@Z
    ??$wrap_auto_interface@VActivatable@Gtk@@@Glib@@YAPEAVActivatable@Gtk@@PEAU_GObject@@_N@Z
    ??1?$RefPtr@VAction@Gtk@@@Glib@@QEAA@XZ
    ??0?$RefPtr@VAction@Gtk@@@Glib@@QEAA@$$QEAV01@@Z
    ??C?$RefPtr@VAction@Gtk@@@Glib@@QEBAPEAVAction@Gtk@@XZ
    ??B?$RefPtr@VAction@Gtk@@@Glib@@QEBA_NXZ
    ?release@?$RefPtr@VAction@Gtk@@@Glib@@QEAAPEAVAction@Gtk@@XZ
    ??$unwrap@VAction@Gtk@@@Glib@@YAPEAU_GtkAction@@AEBV?$RefPtr@VAction@Gtk@@@0@@Z
    ??$?0VAction@Gtk@@@?$RefPtr@$$CBVAction@Gtk@@@Glib@@QEAA@$$QEAV?$RefPtr@VAction@Gtk@@@1@@Z
    ??0?$PropertyProxy@V?$RefPtr@VAction@Gtk@@@Glib@@@Glib@@QEAA@PEAVObjectBase@1@PEBD@Z
    ??0?$PropertyProxy_ReadOnly@V?$RefPtr@VAction@Gtk@@@Glib@@@Glib@@QEAA@PEBVObjectBase@1@PEBD@Z
    ??0?$PropertyProxy@_N@Glib@@QEAA@PEAVObjectBase@1@PEBD@Z
    ??0?$PropertyProxy_ReadOnly@_N@Glib@@QEAA@PEBVObjectBase@1@PEBD@Z
    ??_7Activatable@Gtk@@6B01@@
    ??_7Activatable@Gtk@@6BInterface@Glib@@@
    ??_8Activatable@Gtk@@7BInterface@Glib@@@
    ??_8Activatable@Gtk@@7BObjectBase@Glib@@@
    ??_R0?AVObjectBase@Glib@@@8
    ??_R0?AVActivatable@Gtk@@@8
    ??_R4Activatable@Gtk@@6B01@@
    ??_R3Activatable@Gtk@@8
    ??_R2Activatable@Gtk@@8
    ??_R1A@?0A@EA@Activatable@Gtk@@8
    ??_R17?0A@EA@Interface@Glib@@8
    ??_R0?AVInterface@Glib@@@8
    ??_R3Interface@Glib@@8
    ??_R2Interface@Glib@@8
    ??_R1A@?0A@EA@Interface@Glib@@8
    ??_R1A@A@7FA@ObjectBase@Glib@@8
    ??_R3ObjectBase@Glib@@8
    ??_R2ObjectBase@Glib@@8
    ??_R1A@?0A@EA@ObjectBase@Glib@@8
    ??_R1A@73FA@trackable@sigc@@8
    ??_R0?AUtrackable@sigc@@@8
    ??_R3trackable@sigc@@8
    ??_R2trackable@sigc@@8
    ??_R1A@?0A@EA@trackable@sigc@@8
    ??_R1A@A@3FA@trackable@sigc@@8
    ??_R1A@77FA@ObjectBase@Glib@@8
    ??_R4Activatable@Gtk@@6BInterface@Glib@@@
    ?adjustment_class_@Adjustment@Gtk@@0VAdjustment_Class@2@A
    ?__empty_global_delete@@YAXPEAX@Z
    ?__empty_global_delete@@YAXPEAX_K@Z
    ?get_type@Class@Glib@@QEBA_KXZ
    ??0Adjustment@Gtk@@IEAA@AEBVConstructParams@Glib@@@Z
    ??0Adjustment@Gtk@@IEAA@PEAU_GtkAdjustment@@@Z
    ??1Adjustment@Gtk@@UEAA@XZ
    ?get_type@Adjustment@Gtk@@SA_KXZ
    ?get_base_type@Adjustment@Gtk@@SA_KXZ
    ?gobj@Adjustment@Gtk@@QEAAPEAU_GtkAdjustment@@XZ
    ?gobj@Adjustment@Gtk@@QEBAPEBU_GtkAdjustment@@XZ
    ?gobj_copy@Adjustment@Gtk@@QEAAPEAU_GtkAdjustment@@XZ
    ??0Adjustment@Gtk@@IEAA@NNNNNN@Z
    ?create@Adjustment@Gtk@@SA?AV?$RefPtr@VAdjustment@Gtk@@@Glib@@NNNNNN@Z
    ?changed@Adjustment@Gtk@@QEAAXXZ
    ?value_changed@Adjustment@Gtk@@QEAAXXZ
    ?clamp_page@Adjustment@Gtk@@QEAAXNN@Z
    ?set_value@Adjustment@Gtk@@QEAAXN@Z
    ?get_value@Adjustment@Gtk@@QEBANXZ
    ?set_lower@Adjustment@Gtk@@QEAAXN@Z
    ?get_lower@Adjustment@Gtk@@QEBANXZ
    ?set_upper@Adjustment@Gtk@@QEAAXN@Z
    ?get_upper@Adjustment@Gtk@@QEBANXZ
    ?set_step_increment@Adjustment@Gtk@@QEAAXN@Z
    ?get_step_increment@Adjustment@Gtk@@QEBANXZ
    ?set_page_increment@Adjustment@Gtk@@QEAAXN@Z
    ?get_page_increment@Adjustment@Gtk@@QEBANXZ
    ?set_page_size@Adjustment@Gtk@@QEAAXN@Z
    ?get_page_size@Adjustment@Gtk@@QEBANXZ
    ?configure@Adjustment@Gtk@@QEAAXNNNNNN@Z
    ?get_minimum_increment@Adjustment@Gtk@@QEBANXZ
    ?signal_changed@Adjustment@Gtk@@QEAA?AV?$SignalProxy0@X@Glib@@XZ
    ?signal_value_changed@Adjustment@Gtk@@QEAA?AV?$SignalProxy0@X@Glib@@XZ
    ?property_value@Adjustment@Gtk@@QEAA?AV?$PropertyProxy@N@Glib@@XZ
    ?property_value@Adjustment@Gtk@@QEBA?AV?$PropertyProxy_ReadOnly@N@Glib@@XZ
    ?property_lower@Adjustment@Gtk@@QEAA?AV?$PropertyProxy@N@Glib@@XZ
    ?property_lower@Adjustment@Gtk@@QEBA?AV?$PropertyProxy_ReadOnly@N@Glib@@XZ
    ?property_upper@Adjustment@Gtk@@QEAA?AV?$PropertyProxy@N@Glib@@XZ
    ?property_upper@Adjustment@Gtk@@QEBA?AV?$PropertyProxy_ReadOnly@N@Glib@@XZ
    ?property_step_increment@Adjustment@Gtk@@QEAA?AV?$PropertyProxy@N@Glib@@XZ
    ?property_step_increment@Adjustment@Gtk@@QEBA?AV?$PropertyProxy_ReadOnly@N@Glib@@XZ
    ?property_page_increment@Adjustment@Gtk@@QEAA?AV?$PropertyProxy@N@Glib@@XZ
    ?property_page_increment@Adjustment@Gtk@@QEBA?AV?$PropertyProxy_ReadOnly@N@Glib@@XZ
    ?property_page_size@Adjustment@Gtk@@QEAA?AV?$PropertyProxy@N@Glib@@XZ
    ?property_page_size@Adjustment@Gtk@@QEBA?AV?$PropertyProxy_ReadOnly@N@Glib@@XZ
    ?on_changed@Adjustment@Gtk@@MEAAXXZ
    ?on_value_changed@Adjustment@Gtk@@MEAAXXZ
    ??_DAdjustment@Gtk@@QEAAXXZ
    ?wrap@Glib@@YA?AV?$RefPtr@VAdjustment@Gtk@@@1@PEAU_GtkAdjustment@@_N@Z
    ?init@Adjustment_Class@Gtk@@QEAAAEBVClass@Glib@@XZ
    ?class_init_function@Adjustment_Class@Gtk@@SAXPEAX0@Z
    ?wrap_new@Adjustment_Class@Gtk@@SAPEAVObjectBase@Glib@@PEAU_GObject@@@Z
    ?changed_callback@Adjustment_Class@Gtk@@KAXPEAU_GtkAdjustment@@@Z
    ?value_changed_callback@Adjustment_Class@Gtk@@KAXPEAU_GtkAdjustment@@@Z
    ??0?$RefPtr@VAdjustment@Gtk@@@Glib@@QEAA@PEAVAdjustment@Gtk@@@Z
    ??0?$SignalProxy0@X@Glib@@QEAA@PEAVObjectBase@1@PEBUSignalProxyInfo@1@@Z
    ??0?$PropertyProxy@N@Glib@@QEAA@PEAVObjectBase@1@PEBD@Z
    ??0?$PropertyProxy_ReadOnly@N@Glib@@QEAA@PEBVObjectBase@1@PEBD@Z
    ??_7Adjustment@Gtk@@6B01@@
    ??_7Adjustment@Gtk@@6BObject@Glib@@@
    ??_8Adjustment@Gtk@@7BObject@Glib@@@
    ??_8Adjustment@Gtk@@7BObjectBase@Glib@@@
    ??_R0?AVObjectBase@Glib@@@8
    ??_R0?AVAdjustment@Gtk@@@8
    ??_R4Adjustment@Gtk@@6B01@@
    ??_R3Adjustment@Gtk@@8
    ??_R2Adjustment@Gtk@@8
    ??_R1A@?0A@EA@Adjustment@Gtk@@8
    ??_R17?0A@EA@Object@Glib@@8
    ??_R0?AVObject@Glib@@@8
    ??_R3Object@Glib@@8
    ??_R2Object@Glib@@8
    ??_R1A@?0A@EA@Object@Glib@@8
    ??_R1A@A@7FA@ObjectBase@Glib@@8
    ??_R3ObjectBase@Glib@@8
    ??_R2ObjectBase@Glib@@8
    ??_R1A@?0A@EA@ObjectBase@Glib@@8
    ??_R1A@73FA@trackable@sigc@@8
    ??_R0?AUtrackable@sigc@@@8
    ??_R3trackable@sigc@@8
    ??_R2trackable@sigc@@8
    ??_R1A@?0A@EA@trackable@sigc@@8
    ??_R1A@A@3FA@trackable@sigc@@8
    ??_R1A@77FA@ObjectBase@Glib@@8
    ??_R4Adjustment@Gtk@@6BObject@Glib@@@
    ?alignment_class_@Alignment@Gtk@@0VAlignment_Class@2@A
    ?__empty_global_delete@@YAXPEAX@Z
    ?__empty_global_delete@@YAXPEAX_K@Z
    ?get_type@Class@Glib@@QEBA_KXZ
    ??1Alignment@Gtk@@UEAA@XZ
    ??0Alignment@Gtk@@IEAA@AEBVConstructParams@Glib@@@Z
    ??0Alignment@Gtk@@IEAA@PEAU_GtkAlignment@@@Z
    ?get_type@Alignment@Gtk@@SA_KXZ
    ?get_base_type@Alignment@Gtk@@SA_KXZ
    ?gobj@Alignment@Gtk@@QEAAPEAU_GtkAlignment@@XZ
    ??0Alignment@Gtk@@QEAA@MMMM@Z
    ??0Alignment@Gtk@@QEAA@W4Align@1@0MM@Z
    ?set@Alignment@Gtk@@QEAAXMMMM@Z
    ?set@Alignment@Gtk@@QEAAXW4Align@2@0MM@Z
    ?set_padding@Alignment@Gtk@@QEAAXIIII@Z
    ?get_padding@Alignment@Gtk@@QEAAXAEAI000@Z
    ?property_xalign@Alignment@Gtk@@QEAA?AV?$PropertyProxy@M@Glib@@XZ
    ?property_xalign@Alignment@Gtk@@QEBA?AV?$PropertyProxy_ReadOnly@M@Glib@@XZ
    ?property_yalign@Alignment@Gtk@@QEAA?AV?$PropertyProxy@M@Glib@@XZ
    ?property_yalign@Alignment@Gtk@@QEBA?AV?$PropertyProxy_ReadOnly@M@Glib@@XZ
    ?property_xscale@Alignment@Gtk@@QEAA?AV?$PropertyProxy@M@Glib@@XZ
    ?property_xscale@Alignment@Gtk@@QEBA?AV?$PropertyProxy_ReadOnly@M@Glib@@XZ
    ?property_yscale@Alignment@Gtk@@QEAA?AV?$PropertyProxy@M@Glib@@XZ
    ?property_yscale@Alignment@Gtk@@QEBA?AV?$PropertyProxy_ReadOnly@M@Glib@@XZ
    ?property_top_padding@Alignment@Gtk@@QEAA?AV?$PropertyProxy@I@Glib@@XZ
    ?property_top_padding@Alignment@Gtk@@QEBA?AV?$PropertyProxy_ReadOnly@I@Glib@@XZ
    ?property_bottom_padding@Alignment@Gtk@@QEAA?AV?$PropertyProxy@I@Glib@@XZ
    ?property_bottom_padding@Alignment@Gtk@@QEBA?AV?$PropertyProxy_ReadOnly@I@Glib@@XZ
    ?property_left_padding@Alignment@Gtk@@QEAA?AV?$PropertyProxy@I@Glib@@XZ
    ?property_left_padding@Alignment@Gtk@@QEBA?AV?$PropertyProxy_ReadOnly@I@Glib@@XZ
    ?property_right_padding@Alignment@Gtk@@QEAA?AV?$PropertyProxy@I@Glib@@XZ
    ?property_right_padding@Alignment@Gtk@@QEBA?AV?$PropertyProxy_ReadOnly@I@Glib@@XZ
    ??_DAlignment@Gtk@@QEAAXXZ
    ?wrap@Glib@@YAPEAVAlignment@Gtk@@PEAU_GtkAlignment@@_N@Z
    ?init@Alignment_Class@Gtk@@QEAAAEBVClass@Glib@@XZ
    ?class_init_function@Alignment_Class@Gtk@@SAXPEAX0@Z
    ?wrap_new@Alignment_Class@Gtk@@SAPEAVObjectBase@Glib@@PEAU_GObject@@@Z
    ??$manage@VAlignment@Gtk@@@Gtk@@YAPEAVAlignment@0@PEAV10@@Z
    ??0?$PropertyProxy@M@Glib@@QEAA@PEAVObjectBase@1@PEBD@Z
    ??0?$PropertyProxy_ReadOnly@M@Glib@@QEAA@PEBVObjectBase@1@PEBD@Z
    ??0?$PropertyProxy@I@Glib@@QEAA@PEAVObjectBase@1@PEBD@Z
    ??0?$PropertyProxy_ReadOnly@I@Glib@@QEAA@PEBVObjectBase@1@PEBD@Z
    ?destroy_notify_@Object@Gtk@@$2PPPPPPPM@7EAAXXZ
    ?set_manage@Object@Gtk@@$4PPPPPPPM@7EAAXXZ
    ??_7Alignment@Gtk@@6BImplementor@Atk@@@
    ??_7Alignment@Gtk@@6B@
    ??_8Alignment@Gtk@@7BObject@Glib@@@
    ??_8Alignment@Gtk@@7BInterface@Glib@@Buildable@1@@
    ??_8Alignment@Gtk@@7BInterface@Glib@@Implementor@Atk@@@
    ??_8Alignment@Gtk@@7BObjectBase@Glib@@@
    ??_R0?AVObjectBase@Glib@@@8
    ??_R0?AVAlignment@Gtk@@@8
    ??_R4Alignment@Gtk@@6BImplementor@Atk@@@
    ??_R3Alignment@Gtk@@8
    ??_R2Alignment@Gtk@@8
    ??_R1A@?0A@EA@Alignment@Gtk@@8
    ??_R1A@?0A@EA@Bin@Gtk@@8
    ??_R0?AVBin@Gtk@@@8
    ??_R3Bin@Gtk@@8
    ??_R2Bin@Gtk@@8
    ??_R1A@?0A@EA@Container@Gtk@@8
    ??_R0?AVContainer@Gtk@@@8
    ??_R3Container@Gtk@@8
    ??_R2Container@Gtk@@8
    ??_R1A@?0A@EA@Widget@Gtk@@8
    ??_R0?AVWidget@Gtk@@@8
    ??_R3Widget@Gtk@@8
    ??_R2Widget@Gtk@@8
    ??_R1BA@?0A@EA@Object@Gtk@@8
    ??_R0?AVObject@Gtk@@@8
    ??_R3Object@Gtk@@8
    ??_R2Object@Gtk@@8
    ??_R1A@?0A@EA@Object@Gtk@@8
    ??_R1A@?0A@EA@Object@Glib@@8
    ??_R0?AVObject@Glib@@@8
    ??_R3Object@Glib@@8
    ??_R2Object@Glib@@8
    ??_R1A@A@7FA@ObjectBase@Glib@@8
    ??_R3ObjectBase@Glib@@8
    ??_R2ObjectBase@Glib@@8
    ??_R1A@?0A@EA@ObjectBase@Glib@@8
    ??_R1A@73FA@trackable@sigc@@8
    ??_R0?AUtrackable@sigc@@@8
    ??_R3trackable@sigc@@8
    ??_R2trackable@sigc@@8
    ??_R1A@?0A@EA@trackable@sigc@@8
    ??_R1A@A@3FA@trackable@sigc@@8
    ??_R1BA@?0A@EA@Object@Glib@@8
    ??_R1A@BA@7FA@ObjectBase@Glib@@8
    ??_R1A@BA@3FA@trackable@sigc@@8
    ??_R1CA@?0A@EA@Buildable@Gtk@@8
    ??_R0?AVBuildable@Gtk@@@8
    ??_R3Buildable@Gtk@@8
    ??_R2Buildable@Gtk@@8
    ??_R1A@?0A@EA@Buildable@Gtk@@8
    ??_R1A@?0A@EA@Interface@Glib@@8
    ??_R0?AVInterface@Glib@@@8
    ??_R3Interface@Glib@@8
    ??_R2Interface@Glib@@8
    ??_R1CA@?0A@EC@Interface@Glib@@8
    ??_R1A@?0A@EA@Implementor@Atk@@8
    ??_R0?AVImplementor@Atk@@@8
    ??_R3Implementor@Atk@@8
    ??_R2Implementor@Atk@@8
    ??_R17?0A@EA@Interface@Glib@@8
    ??_R1A@77FA@ObjectBase@Glib@@8
    ??_R17?0A@EC@Interface@Glib@@8
    ??_R4Alignment@Gtk@@6B@
    ?appchooser_class_@AppChooser@Gtk@@0VAppChooser_Class@2@A
    ?__empty_global_delete@@YAXPEAX@Z
    ?__empty_global_delete@@YAXPEAX_K@Z
    ?name@type_info@@QEBAPEBDXZ
    ?get_type@Class@Glib@@QEBA_KXZ
    ?convert_return_gchar_ptr_to_ustring@Glib@@YA?AVustring@1@PEAD@Z
    ??0?$ScopedPtr@D@Glib@@QEAA@PEAD@Z
    ??1?$ScopedPtr@D@Glib@@QEAA@XZ
    ?get@?$ScopedPtr@D@Glib@@QEBAPEADXZ
    ??0AppChooser@Gtk@@IEAA@XZ
    ??0AppChooser@Gtk@@IEAA@AEBVInterface_Class@Glib@@@Z
    ??0AppChooser@Gtk@@QEAA@PEAU_GtkAppChooser@@@Z
    ??1AppChooser@Gtk@@UEAA@XZ
    ?add_interface@AppChooser@Gtk@@SAX_K@Z
    ?get_type@AppChooser@Gtk@@SA_KXZ
    ?get_base_type@AppChooser@Gtk@@SA_KXZ
    ?gobj@AppChooser@Gtk@@QEAAPEAU_GtkAppChooser@@XZ
    ?gobj@AppChooser@Gtk@@QEBAPEBU_GtkAppChooser@@XZ
    ?get_app_info@AppChooser@Gtk@@QEAA?AV?$RefPtr@VAppInfo@Gio@@@Glib@@XZ
    ?get_app_info@AppChooser@Gtk@@QEBA?AV?$RefPtr@$$CBVAppInfo@Gio@@@Glib@@XZ
    ?get_content_type@AppChooser@Gtk@@QEBA?AVustring@Glib@@XZ
    ?refresh@AppChooser@Gtk@@QEAAXXZ
    ?property_content_type@AppChooser@Gtk@@QEBA?AV?$PropertyProxy_ReadOnly@Vustring@Glib@@@Glib@@XZ
    ??_DAppChooser@Gtk@@QEAAXXZ
    ?wrap@Glib@@YA?AV?$RefPtr@VAppChooser@Gtk@@@1@PEAU_GtkAppChooser@@_N@Z
    ?init@AppChooser_Class@Gtk@@QEAAAEBVInterface_Class@Glib@@XZ
    ?iface_init_function@AppChooser_Class@Gtk@@SAXPEAX0@Z
    ?wrap_new@AppChooser_Class@Gtk@@SAPEAVObjectBase@Glib@@PEAU_GObject@@@Z
    ??0?$RefPtr@VAppChooser@Gtk@@@Glib@@QEAA@PEAVAppChooser@Gtk@@@Z
    ??$wrap_auto_interface@VAppChooser@Gtk@@@Glib@@YAPEAVAppChooser@Gtk@@PEAU_GObject@@_N@Z
    ??1?$RefPtr@VAppInfo@Gio@@@Glib@@QEAA@XZ
    ??0?$RefPtr@VAppInfo@Gio@@@Glib@@QEAA@$$QEAV01@@Z
    ??C?$RefPtr@VAppInfo@Gio@@@Glib@@QEBAPEAVAppInfo@Gio@@XZ
    ??B?$RefPtr@VAppInfo@Gio@@@Glib@@QEBA_NXZ
    ?release@?$RefPtr@VAppInfo@Gio@@@Glib@@QEAAPEAVAppInfo@Gio@@XZ
    ??$?0VAppInfo@Gio@@@?$RefPtr@$$CBVAppInfo@Gio@@@Glib@@QEAA@$$QEAV?$RefPtr@VAppInfo@Gio@@@1@@Z
    ??0?$PropertyProxy_ReadOnly@Vustring@Glib@@@Glib@@QEAA@PEBVObjectBase@1@PEBD@Z
    ??_7AppChooser@Gtk@@6B@
    ??_8AppChooser@Gtk@@7BInterface@Glib@@@
    ??_8AppChooser@Gtk@@7BObjectBase@Glib@@@
    ??_R0?AVObjectBase@Glib@@@8
    ??_R0?AVAppChooser@Gtk@@@8
    ??_R4AppChooser@Gtk@@6B@
    ??_R3AppChooser@Gtk@@8
    ??_R2AppChooser@Gtk@@8
    ??_R1A@?0A@EA@AppChooser@Gtk@@8
    ??_R1A@?0A@EA@Interface@Glib@@8
    ??_R0?AVInterface@Glib@@@8
    ??_R3Interface@Glib@@8
    ??_R2Interface@Glib@@8
    ??_R1A@A@7FA@ObjectBase@Glib@@8
    ??_R3ObjectBase@Glib@@8
    ??_R2ObjectBase@Glib@@8
    ??_R1A@?0A@EA@ObjectBase@Glib@@8
    ??_R1A@73FA@trackable@sigc@@8
    ??_R0?AUtrackable@sigc@@@8
    ??_R3trackable@sigc@@8
    ??_R2trackable@sigc@@8
    ??_R1A@?0A@EA@trackable@sigc@@8
    ??_R1A@A@3FA@trackable@sigc@@8
    ?appchooserbutton_class_@AppChooserButton@Gtk@@0VAppChooserButton_Class@2@A
    ?__empty_global_delete@@YAXPEAX@Z
    ?__empty_global_delete@@YAXPEAX_K@Z
    ?get_type@Class@Glib@@QEBA_KXZ
    ?data_to_slot@SignalProxyBase@Glib@@SAPEAVslot_base@sigc@@PEAX@Z
    ?convert_const_gchar_ptr_to_ustring@Glib@@YA?AVustring@1@PEBD@Z
    ?gobj@Icon@Gio@@QEAAPEAU_GIcon@@XZ
    ??0?$PropertyProxy@_N@Glib@@QEAA@PEAVObjectBase@1@PEBD@Z
    ??0?$SignalProxy1@XAEBVustring@Glib@@@Glib@@QEAA@PEAVObjectBase@1@PEBUSignalProxyInfo@1@@Z
    ??R?$slot1@XAEBVustring@Glib@@@sigc@@QEBAXAEBVustring@Glib@@@Z
    ??1AppChooserButton@Gtk@@UEAA@XZ
    ??0AppChooserButton@Gtk@@IEAA@AEBVConstructParams@Glib@@@Z
    ??0AppChooserButton@Gtk@@IEAA@PEAU_GtkAppChooserButton@@@Z
    ?get_type@AppChooserButton@Gtk@@SA_KXZ
    ?get_base_type@AppChooserButton@Gtk@@SA_KXZ
    ?gobj@AppChooserButton@Gtk@@QEAAPEAU_GtkAppChooserButton@@XZ
    ?gobj@AppChooserButton@Gtk@@QEBAPEBU_GtkAppChooserButton@@XZ
    ?on_custom_item_activated@AppChooserButton@Gtk@@MEAAXAEBVustring@Glib@@@Z
    ??0AppChooserButton@Gtk@@QEAA@AEBVustring@Glib@@@Z
    ?append_separator@AppChooserButton@Gtk@@QEAAXXZ
    ?append_custom_item@AppChooserButton@Gtk@@QEAAXAEBVustring@Glib@@0AEBV?$RefPtr@VIcon@Gio@@@4@@Z
    ?set_active_custom_item@AppChooserButton@Gtk@@QEAAXAEBVustring@Glib@@@Z
    ?set_show_dialog_item@AppChooserButton@Gtk@@QEAAX_N@Z
    ?get_show_dialog_item@AppChooserButton@Gtk@@QEBA_NXZ
    ?set_heading@AppChooserButton@Gtk@@QEAAXAEBVustring@Glib@@@Z
    ?get_heading@AppChooserButton@Gtk@@QEBA?AVustring@Glib@@XZ
    ?set_show_default_item@AppChooserButton@Gtk@@QEAAX_N@Z
    ?get_show_default_item@AppChooserButton@Gtk@@QEBA_NXZ
    ?signal_custom_item_activated@AppChooserButton@Gtk@@QEAA?AV?$SignalProxy1@XAEBVustring@Glib@@@Glib@@XZ
    ?property_show_dialog_item@AppChooserButton@Gtk@@QEAA?AV?$PropertyProxy@_N@Glib@@XZ
    ?property_show_dialog_item@AppChooserButton@Gtk@@QEBA?AV?$PropertyProxy_ReadOnly@_N@Glib@@XZ
    ?property_heading@AppChooserButton@Gtk@@QEAA?AV?$PropertyProxy@Vustring@Glib@@@Glib@@XZ
    ?property_heading@AppChooserButton@Gtk@@QEBA?AV?$PropertyProxy_ReadOnly@Vustring@Glib@@@Glib@@XZ
    ?property_show_default_item@AppChooserButton@Gtk@@QEAA?AV?$PropertyProxy@_N@Glib@@XZ
    ?property_show_default_item@AppChooserButton@Gtk@@QEBA?AV?$PropertyProxy_ReadOnly@_N@Glib@@XZ
    ??_DAppChooserButton@Gtk@@QEAAXXZ
    ?wrap@Glib@@YAPEAVAppChooserButton@Gtk@@PEAU_GtkAppChooserButton@@_N@Z
    ?init@AppChooserButton_Class@Gtk@@QEAAAEBVClass@Glib@@XZ
    ?class_init_function@AppChooserButton_Class@Gtk@@SAXPEAX0@Z
    ?wrap_new@AppChooserButton_Class@Gtk@@SAPEAVObjectBase@Glib@@PEAU_GObject@@@Z
    ?custom_item_activated_callback@AppChooserButton_Class@Gtk@@KAXPEAU_GtkAppChooserButton@@PEBD@Z
    ??$manage@VAppChooserButton@Gtk@@@Gtk@@YAPEAVAppChooserButton@0@PEAV10@@Z
    ??$unwrap@VIcon@Gio@@@Glib@@YAPEAU_GIcon@@AEBV?$RefPtr@VIcon@Gio@@@0@@Z
    ??C?$RefPtr@VIcon@Gio@@@Glib@@QEBAPEAVIcon@Gio@@XZ
    ??B?$RefPtr@VIcon@Gio@@@Glib@@QEBA_NXZ
    ??0?$PropertyProxy_ReadOnly@_N@Glib@@QEAA@PEBVObjectBase@1@PEBD@Z
    ??0?$PropertyProxy@Vustring@Glib@@@Glib@@QEAA@PEAVObjectBase@1@PEBD@Z
    ??0?$PropertyProxy_ReadOnly@Vustring@Glib@@@Glib@@QEAA@PEBVObjectBase@1@PEBD@Z
    ?destroy_notify_@Object@Gtk@@$2PPPPPPPM@DA@EAAXXZ
    ?set_manage@Object@Gtk@@$4PPPPPPPM@DA@EAAXXZ
    ??_7AppChooserButton@Gtk@@6BImplementor@Atk@@@
    ??_7AppChooserButton@Gtk@@6BCellLayout@1@@
    ??_7AppChooserButton@Gtk@@6BCellEditable@1@@
    ??_7AppChooserButton@Gtk@@6B@
    ??_8AppChooserButton@Gtk@@7BObject@Glib@@@
    ??_8AppChooserButton@Gtk@@7BInterface@Glib@@Buildable@1@@
    ??_8AppChooserButton@Gtk@@7BInterface@Glib@@Implementor@Atk@@@
    ??_8AppChooserButton@Gtk@@7BInterface@Glib@@CellLayout@1@@
    ??_8AppChooserButton@Gtk@@7BInterface@Glib@@CellEditable@1@@
    ??_8AppChooserButton@Gtk@@7BInterface@Glib@@@
    ??_8AppChooserButton@Gtk@@7BObjectBase@Glib@@@
    ??_R0?AVObjectBase@Glib@@@8
    ??_R0?AVAppChooserButton@Gtk@@@8
    ??_R4AppChooserButton@Gtk@@6BImplementor@Atk@@@
    ??_R3AppChooserButton@Gtk@@8
    ??_R2AppChooserButton@Gtk@@8
    ??_R1A@?0A@EA@AppChooserButton@Gtk@@8
    ??_R1A@?0A@EA@ComboBox@Gtk@@8
    ??_R0?AVComboBox@Gtk@@@8
    ??_R3ComboBox@Gtk@@8
    ??_R2ComboBox@Gtk@@8
    ??_R1A@?0A@EA@Bin@Gtk@@8
    ??_R0?AVBin@Gtk@@@8
    ??_R3Bin@Gtk@@8
    ??_R2Bin@Gtk@@8
    ??_R1A@?0A@EA@Container@Gtk@@8
    ??_R0?AVContainer@Gtk@@@8
    ??_R3Container@Gtk@@8
    ??_R2Container@Gtk@@8
    ??_R1A@?0A@EA@Widget@Gtk@@8
    ??_R0?AVWidget@Gtk@@@8
    ??_R3Widget@Gtk@@8
    ??_R2Widget@Gtk@@8
    ??_R1BA@?0A@EA@Object@Gtk@@8
    ??_R0?AVObject@Gtk@@@8
    ??_R3Object@Gtk@@8
    ??_R2Object@Gtk@@8
    ??_R1A@?0A@EA@Object@Gtk@@8
    ??_R1A@?0A@EA@Object@Glib@@8
    ??_R0?AVObject@Glib@@@8
    ??_R3Object@Glib@@8
    ??_R2Object@Glib@@8
    ??_R1A@A@7FA@ObjectBase@Glib@@8
    ??_R3ObjectBase@Glib@@8
    ??_R2ObjectBase@Glib@@8
    ??_R1A@?0A@EA@ObjectBase@Glib@@8
    ??_R1A@73FA@trackable@sigc@@8
    ??_R0?AUtrackable@sigc@@@8
    ??_R3trackable@sigc@@8
    ??_R2trackable@sigc@@8
    ??_R1A@?0A@EA@trackable@sigc@@8
    ??_R1A@A@3FA@trackable@sigc@@8
    ??_R1BA@?0A@EA@Object@Glib@@8
    ??_R1A@BA@7FA@ObjectBase@Glib@@8
    ??_R1A@BA@3FA@trackable@sigc@@8
    ??_R1CA@?0A@EA@Buildable@Gtk@@8
    ??_R0?AVBuildable@Gtk@@@8
    ??_R3Buildable@Gtk@@8
    ??_R2Buildable@Gtk@@8
    ??_R1A@?0A@EA@Buildable@Gtk@@8
    ??_R1A@?0A@EA@Interface@Glib@@8
    ??_R0?AVInterface@Glib@@@8
    ??_R3Interface@Glib@@8
    ??_R2Interface@Glib@@8
    ??_R1CA@?0A@EC@Interface@Glib@@8
    ??_R1A@?0A@EA@Implementor@Atk@@8
    ??_R0?AVImplementor@Atk@@@8
    ??_R3Implementor@Atk@@8
    ??_R2Implementor@Atk@@8
    ??_R17?0A@EA@Interface@Glib@@8
    ??_R1A@77FA@ObjectBase@Glib@@8
    ??_R17?0A@EC@Interface@Glib@@8
    ??_R1CI@?0A@EA@CellLayout@Gtk@@8
    ??_R0?AVCellLayout@Gtk@@@8
    ??_R3CellLayout@Gtk@@8
    ??_R2CellLayout@Gtk@@8
    ??_R1A@?0A@EA@CellLayout@Gtk@@8
    ??_R1DA@?0A@EC@Interface@Glib@@8
    ??_R1DI@?0A@EA@CellEditable@Gtk@@8
    ??_R0?AVCellEditable@Gtk@@@8
    ??_R3CellEditable@Gtk@@8
    ??_R2CellEditable@Gtk@@8
    ??_R1A@?0A@EA@CellEditable@Gtk@@8
    ??_R1EA@?0A@EC@Interface@Glib@@8
    ??_R1EI@?0A@EA@AppChooser@Gtk@@8
    ??_R0?AVAppChooser@Gtk@@@8
    ??_R3AppChooser@Gtk@@8
    ??_R2AppChooser@Gtk@@8
    ??_R1A@?0A@EA@AppChooser@Gtk@@8
    ??_R1EI@?0A@EC@Interface@Glib@@8
    ??_R4AppChooserButton@Gtk@@6BCellLayout@1@@
    ??_R4AppChooserButton@Gtk@@6BCellEditable@1@@
    ??_R4AppChooserButton@Gtk@@6B@
    ?appchooserdialog_class_@AppChooserDialog@Gtk@@0VAppChooserDialog_Class@2@A
    ?__empty_global_delete@@YAXPEAX@Z
    ?__empty_global_delete@@YAXPEAX_K@Z
    ?get_type@Class@Glib@@QEBA_KXZ
    ?convert_const_gchar_ptr_to_ustring@Glib@@YA?AVustring@1@PEBD@Z
    ?gobj@File@Gio@@QEAAPEAU_GFile@@XZ
    ??$unwrap@VFile@Gio@@@Glib@@YAPEAU_GFile@@AEBV?$RefPtr@VFile@Gio@@@0@@Z
    ??C?$RefPtr@VFile@Gio@@@Glib@@QEBAPEAVFile@Gio@@XZ
    ??B?$RefPtr@VFile@Gio@@@Glib@@QEBA_NXZ
    ??1AppChooserDialog@Gtk@@UEAA@XZ
    ??0AppChooserDialog@Gtk@@IEAA@AEBVConstructParams@Glib@@@Z
    ??0AppChooserDialog@Gtk@@IEAA@PEAU_GtkAppChooserDialog@@@Z
    ?get_type@AppChooserDialog@Gtk@@SA_KXZ
    ?get_base_type@AppChooserDialog@Gtk@@SA_KXZ
    ?gobj@AppChooserDialog@Gtk@@QEAAPEAU_GtkAppChooserDialog@@XZ
    ?gobj@AppChooserDialog@Gtk@@QEBAPEBU_GtkAppChooserDialog@@XZ
    ??0AppChooserDialog@Gtk@@QEAA@AEBVustring@Glib@@@Z
    ??0AppChooserDialog@Gtk@@QEAA@AEBVustring@Glib@@AEAVWindow@1@@Z
    ??0AppChooserDialog@Gtk@@QEAA@AEBV?$RefPtr@VFile@Gio@@@Glib@@@Z
    ??0AppChooserDialog@Gtk@@QEAA@AEBV?$RefPtr@VFile@Gio@@@Glib@@AEAVWindow@1@@Z
    ?get_widget@AppChooserDialog@Gtk@@QEAAPEAVWidget@2@XZ
    ?get_widget@AppChooserDialog@Gtk@@QEBAPEBVWidget@2@XZ
    ?set_heading@AppChooserDialog@Gtk@@QEAAXAEBVustring@Glib@@@Z
    ?get_heading@AppChooserDialog@Gtk@@QEBA?AVustring@Glib@@XZ
    ?property_gfile@AppChooserDialog@Gtk@@QEBA?AV?$PropertyProxy_ReadOnly@V?$RefPtr@VFile@Gio@@@Glib@@@Glib@@XZ
    ?property_heading@AppChooserDialog@Gtk@@QEAA?AV?$PropertyProxy@Vustring@Glib@@@Glib@@XZ
    ?property_heading@AppChooserDialog@Gtk@@QEBA?AV?$PropertyProxy_ReadOnly@Vustring@Glib@@@Glib@@XZ
    ??_DAppChooserDialog@Gtk@@QEAAXXZ
    ?wrap@Glib@@YAPEAVAppChooserDialog@Gtk@@PEAU_GtkAppChooserDialog@@_N@Z
    ?init@AppChooserDialog_Class@Gtk@@QEAAAEBVClass@Glib@@XZ
    ?class_init_function@AppChooserDialog_Class@Gtk@@SAXPEAX0@Z
    ?wrap_new@AppChooserDialog_Class@Gtk@@SAPEAVObjectBase@Glib@@PEAU_GObject@@@Z
    ??$manage@VAppChooserDialog@Gtk@@@Gtk@@YAPEAVAppChooserDialog@0@PEAV10@@Z
    ??0?$PropertyProxy_ReadOnly@V?$RefPtr@VFile@Gio@@@Glib@@@Glib@@QEAA@PEBVObjectBase@1@PEBD@Z
    ??0?$PropertyProxy@Vustring@Glib@@@Glib@@QEAA@PEAVObjectBase@1@PEBD@Z
    ??0?$PropertyProxy_ReadOnly@Vustring@Glib@@@Glib@@QEAA@PEBVObjectBase@1@PEBD@Z
    ?destroy_notify_@Object@Gtk@@$2PPPPPPPM@BI@EAAXXZ
    ?set_manage@Window@Gtk@@$4PPPPPPPM@7EAAXXZ
    ??_7AppChooserDialog@Gtk@@6BImplementor@Atk@@@
    ??_7AppChooserDialog@Gtk@@6B@
    ??_8AppChooserDialog@Gtk@@7BObject@Glib@@@
    ??_8AppChooserDialog@Gtk@@7BInterface@Glib@@Buildable@1@@
    ??_8AppChooserDialog@Gtk@@7BInterface@Glib@@Implementor@Atk@@@
    ??_8AppChooserDialog@Gtk@@7BInterface@Glib@@@
    ??_8AppChooserDialog@Gtk@@7BObjectBase@Glib@@@
    ??_R0?AVObjectBase@Glib@@@8
    ??_R0?AVAppChooserDialog@Gtk@@@8
    ??_R4AppChooserDialog@Gtk@@6BImplementor@Atk@@@
    ??_R3AppChooserDialog@Gtk@@8
    ??_R2AppChooserDialog@Gtk@@8
    ??_R1A@?0A@EA@AppChooserDialog@Gtk@@8
    ??_R1A@?0A@EA@Dialog@Gtk@@8
    ??_R0?AVDialog@Gtk@@@8
    ??_R3Dialog@Gtk@@8
    ??_R2Dialog@Gtk@@8
    ??_R1A@?0A@EA@Window@Gtk@@8
    ??_R0?AVWindow@Gtk@@@8
    ??_R3Window@Gtk@@8
    ??_R2Window@Gtk@@8
    ??_R1A@?0A@EA@Bin@Gtk@@8
    ??_R0?AVBin@Gtk@@@8
    ??_R3Bin@Gtk@@8
    ??_R2Bin@Gtk@@8
    ??_R1A@?0A@EA@Container@Gtk@@8
    ??_R0?AVContainer@Gtk@@@8
    ??_R3Container@Gtk@@8
    ??_R2Container@Gtk@@8
    ??_R1A@?0A@EA@Widget@Gtk@@8
    ??_R0?AVWidget@Gtk@@@8
    ??_R3Widget@Gtk@@8
    ??_R2Widget@Gtk@@8
    ??_R1BA@?0A@EA@Object@Gtk@@8
    ??_R0?AVObject@Gtk@@@8
    ??_R3Object@Gtk@@8
    ??_R2Object@Gtk@@8
    ??_R1A@?0A@EA@Object@Gtk@@8
    ??_R1A@?0A@EA@Object@Glib@@8
    ??_R0?AVObject@Glib@@@8
    ??_R3Object@Glib@@8
    ??_R2Object@Glib@@8
    ??_R1A@A@7FA@ObjectBase@Glib@@8
    ??_R3ObjectBase@Glib@@8
    ??_R2ObjectBase@Glib@@8
    ??_R1A@?0A@EA@ObjectBase@Glib@@8
    ??_R1A@73FA@trackable@sigc@@8
    ??_R0?AUtrackable@sigc@@@8
    ??_R3trackable@sigc@@8
    ??_R2trackable@sigc@@8
    ??_R1A@?0A@EA@trackable@sigc@@8
    ??_R1A@A@3FA@trackable@sigc@@8
    ??_R1BA@?0A@EA@Object@Glib@@8
    ??_R1A@BA@7FA@ObjectBase@Glib@@8
    ??_R1A@BA@3FA@trackable@sigc@@8
    ??_R1CA@?0A@EA@Buildable@Gtk@@8
    ??_R0?AVBuildable@Gtk@@@8
    ??_R3Buildable@Gtk@@8
    ??_R2Buildable@Gtk@@8
    ??_R1A@?0A@EA@Buildable@Gtk@@8
    ??_R1A@?0A@EA@Interface@Glib@@8
    ??_R0?AVInterface@Glib@@@8
    ??_R3Interface@Glib@@8
    ??_R2Interface@Glib@@8
    ??_R1CA@?0A@EC@Interface@Glib@@8
    ??_R1A@?0A@EA@Implementor@Atk@@8
    ??_R0?AVImplementor@Atk@@@8
    ??_R3Implementor@Atk@@8
    ??_R2Implementor@Atk@@8
    ??_R17?0A@EA@Interface@Glib@@8
    ??_R1A@77FA@ObjectBase@Glib@@8
    ??_R17?0A@EC@Interface@Glib@@8
    ??_R1DA@?0A@EA@AppChooser@Gtk@@8
    ??_R0?AVAppChooser@Gtk@@@8
    ??_R3AppChooser@Gtk@@8
    ??_R2AppChooser@Gtk@@8
    ??_R1A@?0A@EA@AppChooser@Gtk@@8
    ??_R1DA@?0A@EC@Interface@Glib@@8
    ??_R4AppChooserDialog@Gtk@@6B@
    ?appchooserwidget_class_@AppChooserWidget@Gtk@@0VAppChooserWidget_Class@2@A
    ?__empty_global_delete@@YAXPEAX@Z
    ?__empty_global_delete@@YAXPEAX_K@Z
    ?get_type@Class@Glib@@QEBA_KXZ
    ?data_to_slot@SignalProxyBase@Glib@@SAPEAVslot_base@sigc@@PEAX@Z
    ?convert_const_gchar_ptr_to_ustring@Glib@@YA?AVustring@1@PEBD@Z
    ?gobj@AppInfo@Gio@@QEAAPEAU_GAppInfo@@XZ
    ?gobj@Menu@Gtk@@QEAAPEAU_GtkMenu@@XZ
    ??1AppChooserWidget@Gtk@@UEAA@XZ
    ??0AppChooserWidget@Gtk@@IEAA@AEBVConstructParams@Glib@@@Z
    ??0AppChooserWidget@Gtk@@IEAA@PEAU_GtkAppChooserWidget@@@Z
    ?get_type@AppChooserWidget@Gtk@@SA_KXZ
    ?get_base_type@AppChooserWidget@Gtk@@SA_KXZ
    ?gobj@AppChooserWidget@Gtk@@QEAAPEAU_GtkAppChooserWidget@@XZ
    ?gobj@AppChooserWidget@Gtk@@QEBAPEBU_GtkAppChooserWidget@@XZ
    ?on_application_selected@AppChooserWidget@Gtk@@MEAAXAEBV?$RefPtr@VAppInfo@Gio@@@Glib@@@Z
    ?on_application_activated@AppChooserWidget@Gtk@@MEAAXAEBV?$RefPtr@VAppInfo@Gio@@@Glib@@@Z
    ?on_populate_popup@AppChooserWidget@Gtk@@MEAAXPEAVMenu@2@AEBV?$RefPtr@VAppInfo@Gio@@@Glib@@@Z
    ??0AppChooserWidget@Gtk@@QEAA@AEBVustring@Glib@@@Z
    ?set_show_default@AppChooserWidget@Gtk@@QEAAX_N@Z
    ?get_show_default@AppChooserWidget@Gtk@@QEAA_NXZ
    ?set_show_recommended@AppChooserWidget@Gtk@@QEAAX_N@Z
    ?get_show_recommended@AppChooserWidget@Gtk@@QEBA_NXZ
    ?set_show_fallback@AppChooserWidget@Gtk@@QEAAX_N@Z
    ?get_show_fallback@AppChooserWidget@Gtk@@QEBA_NXZ
    ?set_show_other@AppChooserWidget@Gtk@@QEAAX_N@Z
    ?get_show_other@AppChooserWidget@Gtk@@QEBA_NXZ
    ?set_show_all@AppChooserWidget@Gtk@@QEAAX_N@Z
    ?get_show_all@AppChooserWidget@Gtk@@QEBA_NXZ
    ?set_default_text@AppChooserWidget@Gtk@@QEAAXAEBVustring@Glib@@@Z
    ?get_default_text@AppChooserWidget@Gtk@@QEAA?AVustring@Glib@@XZ
    ?signal_application_selected@AppChooserWidget@Gtk@@QEAA?AV?$SignalProxy1@XAEBV?$RefPtr@VAppInfo@Gio@@@Glib@@@Glib@@XZ
    ?signal_application_activated@AppChooserWidget@Gtk@@QEAA?AV?$SignalProxy1@XAEBV?$RefPtr@VAppInfo@Gio@@@Glib@@@Glib@@XZ
    ?signal_populate_popup@AppChooserWidget@Gtk@@QEAA?AV?$SignalProxy2@XPEAVMenu@Gtk@@AEBV?$RefPtr@VAppInfo@Gio@@@Glib@@@Glib@@XZ
    ?property_show_default@AppChooserWidget@Gtk@@QEAA?AV?$PropertyProxy@_N@Glib@@XZ
    ?property_show_default@AppChooserWidget@Gtk@@QEBA?AV?$PropertyProxy_ReadOnly@_N@Glib@@XZ
    ?property_show_recommended@AppChooserWidget@Gtk@@QEAA?AV?$PropertyProxy@_N@Glib@@XZ
    ?property_show_recommended@AppChooserWidget@Gtk@@QEBA?AV?$PropertyProxy_ReadOnly@_N@Glib@@XZ
    ?property_show_fallback@AppChooserWidget@Gtk@@QEAA?AV?$PropertyProxy@_N@Glib@@XZ
    ?property_show_fallback@AppChooserWidget@Gtk@@QEBA?AV?$PropertyProxy_ReadOnly@_N@Glib@@XZ
    ?property_show_other@AppChooserWidget@Gtk@@QEAA?AV?$PropertyProxy@_N@Glib@@XZ
    ?property_show_other@AppChooserWidget@Gtk@@QEBA?AV?$PropertyProxy_ReadOnly@_N@Glib@@XZ
    ?property_show_all@AppChooserWidget@Gtk@@QEAA?AV?$PropertyProxy@_N@Glib@@XZ
    ?property_show_all@AppChooserWidget@Gtk@@QEBA?AV?$PropertyProxy_ReadOnly@_N@Glib@@XZ
    ?property_default_text@AppChooserWidget@Gtk@@QEAA?AV?$PropertyProxy@Vustring@Glib@@@Glib@@XZ
    ?property_default_text@AppChooserWidget@Gtk@@QEBA?AV?$PropertyProxy_ReadOnly@Vustring@Glib@@@Glib@@XZ
    ??_DAppChooserWidget@Gtk@@QEAAXXZ
    ?wrap@Glib@@YAPEAVAppChooserWidget@Gtk@@PEAU_GtkAppChooserWidget@@_N@Z
    ?init@AppChooserWidget_Class@Gtk@@QEAAAEBVClass@Glib@@XZ
    ?class_init_function@AppChooserWidget_Class@Gtk@@SAXPEAX0@Z
    ?wrap_new@AppChooserWidget_Class@Gtk@@SAPEAVObjectBase@Glib@@PEAU_GObject@@@Z
    ?application_selected_callback@AppChooserWidget_Class@Gtk@@KAXPEAU_GtkAppChooserWidget@@PEAU_GAppInfo@@@Z
    ?application_activated_callback@AppChooserWidget_Class@Gtk@@KAXPEAU_GtkAppChooserWidget@@PEAU_GAppInfo@@@Z
    ?populate_popup_callback@AppChooserWidget_Class@Gtk@@KAXPEAU_GtkAppChooserWidget@@PEAU_GtkMenu@@PEAU_GAppInfo@@@Z
    ??R?$slot1@XAEBV?$RefPtr@VAppInfo@Gio@@@Glib@@@sigc@@QEBAXAEBV?$RefPtr@VAppInfo@Gio@@@Glib@@@Z
    ??1?$RefPtr@VAppInfo@Gio@@@Glib@@QEAA@XZ
    ??C?$RefPtr@VAppInfo@Gio@@@Glib@@QEBAPEAVAppInfo@Gio@@XZ
    ??B?$RefPtr@VAppInfo@Gio@@@Glib@@QEBA_NXZ
    ??R?$slot2@XPEAVMenu@Gtk@@AEBV?$RefPtr@VAppInfo@Gio@@@Glib@@@sigc@@QEBAXAEBQEAVMenu@Gtk@@AEBV?$RefPtr@VAppInfo@Gio@@@Glib@@@Z
    ??$manage@VAppChooserWidget@Gtk@@@Gtk@@YAPEAVAppChooserWidget@0@PEAV10@@Z
    ??0?$SignalProxy1@XAEBV?$RefPtr@VAppInfo@Gio@@@Glib@@@Glib@@QEAA@PEAVObjectBase@1@PEBUSignalProxyInfo@1@@Z
    ??0?$SignalProxy2@XPEAVMenu@Gtk@@AEBV?$RefPtr@VAppInfo@Gio@@@Glib@@@Glib@@QEAA@PEAVObjectBase@1@PEBUSignalProxyInfo@1@@Z
    ??0?$PropertyProxy@_N@Glib@@QEAA@PEAVObjectBase@1@PEBD@Z
    ??0?$PropertyProxy_ReadOnly@_N@Glib@@QEAA@PEBVObjectBase@1@PEBD@Z
    ??0?$PropertyProxy@Vustring@Glib@@@Glib@@QEAA@PEAVObjectBase@1@PEBD@Z
    ??0?$PropertyProxy_ReadOnly@Vustring@Glib@@@Glib@@QEAA@PEBVObjectBase@1@PEBD@Z
    ??$unwrap@VAppInfo@Gio@@@Glib@@YAPEAU_GAppInfo@@AEBV?$RefPtr@VAppInfo@Gio@@@0@@Z
    ??$unwrap@VMenu@Gtk@@@Glib@@YAPEAU_GtkMenu@@PEAVMenu@Gtk@@@Z
    ?destroy_notify_@Object@Gtk@@$2PPPPPPPM@BI@EAAXXZ
    ?set_manage@Object@Gtk@@$4PPPPPPPM@BI@EAAXXZ
    ??_7AppChooserWidget@Gtk@@6BImplementor@Atk@@@
    ??_7AppChooserWidget@Gtk@@6B@
    ??_8AppChooserWidget@Gtk@@7BObject@Glib@@@
    ??_8AppChooserWidget@Gtk@@7BInterface@Glib@@Buildable@1@@
    ??_8AppChooserWidget@Gtk@@7BInterface@Glib@@Implementor@Atk@@@
    ??_8AppChooserWidget@Gtk@@7BInterface@Glib@@Box@1@@
    ??_8AppChooserWidget@Gtk@@7BInterface@Glib@@AppChooser@1@@
    ??_8AppChooserWidget@Gtk@@7BObjectBase@Glib@@@
    ??_R0?AVObjectBase@Glib@@@8
    ??_R0?AVAppChooserWidget@Gtk@@@8
    ??_R4AppChooserWidget@Gtk@@6BImplementor@Atk@@@
    ??_R3AppChooserWidget@Gtk@@8
    ??_R2AppChooserWidget@Gtk@@8
    ??_R1A@?0A@EA@AppChooserWidget@Gtk@@8
    ??_R1A@?0A@EA@Box@Gtk@@8
    ??_R0?AVBox@Gtk@@@8
    ??_R3Box@Gtk@@8
    ??_R2Box@Gtk@@8
    ??_R1A@?0A@EA@Container@Gtk@@8
    ??_R0?AVContainer@Gtk@@@8
    ??_R3Container@Gtk@@8
    ??_R2Container@Gtk@@8
    ??_R1A@?0A@EA@Widget@Gtk@@8
    ??_R0?AVWidget@Gtk@@@8
    ??_R3Widget@Gtk@@8
    ??_R2Widget@Gtk@@8
    ??_R1BA@?0A@EA@Object@Gtk@@8
    ??_R0?AVObject@Gtk@@@8
    ??_R3Object@Gtk@@8
    ??_R2Object@Gtk@@8
    ??_R1A@?0A@EA@Object@Gtk@@8
    ??_R1A@?0A@EA@Object@Glib@@8
    ??_R0?AVObject@Glib@@@8
    ??_R3Object@Glib@@8
    ??_R2Object@Glib@@8
    ??_R1A@A@7FA@ObjectBase@Glib@@8
    ??_R3ObjectBase@Glib@@8
    ??_R2ObjectBase@Glib@@8
    ??_R1A@?0A@EA@ObjectBase@Glib@@8
    ??_R1A@73FA@trackable@sigc@@8
    ??_R0?AUtrackable@sigc@@@8
    ??_R3trackable@sigc@@8
    ??_R2trackable@sigc@@8
    ??_R1A@?0A@EA@trackable@sigc@@8
    ??_R1A@A@3FA@trackable@sigc@@8
    ??_R1BA@?0A@EA@Object@Glib@@8
    ??_R1A@BA@7FA@ObjectBase@Glib@@8
    ??_R1A@BA@3FA@trackable@sigc@@8
    ??_R1CA@?0A@EA@Buildable@Gtk@@8
    ??_R0?AVBuildable@Gtk@@@8
    ??_R3Buildable@Gtk@@8
    ??_R2Buildable@Gtk@@8
    ??_R1A@?0A@EA@Buildable@Gtk@@8
    ??_R1A@?0A@EA@Interface@Glib@@8
    ??_R0?AVInterface@Glib@@@8
    ??_R3Interface@Glib@@8
    ??_R2Interface@Glib@@8
    ??_R1CA@?0A@EC@Interface@Glib@@8
    ??_R1A@?0A@EA@Implementor@Atk@@8
    ??_R0?AVImplementor@Atk@@@8
    ??_R3Implementor@Atk@@8
    ??_R2Implementor@Atk@@8
    ??_R17?0A@EA@Interface@Glib@@8
    ??_R1A@77FA@ObjectBase@Glib@@8
    ??_R17?0A@EC@Interface@Glib@@8
    ??_R1CI@?0A@EA@Orientable@Gtk@@8
    ??_R0?AVOrientable@Gtk@@@8
    ??_R3Orientable@Gtk@@8
    ??_R2Orientable@Gtk@@8
    ??_R1A@?0A@EA@Orientable@Gtk@@8
    ??_R1CI@?0A@EC@Interface@Glib@@8
    ??_R1DA@?0A@EA@AppChooser@Gtk@@8
    ??_R0?AVAppChooser@Gtk@@@8
    ??_R3AppChooser@Gtk@@8
    ??_R2AppChooser@Gtk@@8
    ??_R1A@?0A@EA@AppChooser@Gtk@@8
    ??_R1DA@?0A@EC@Interface@Glib@@8
    ??_R4AppChooserWidget@Gtk@@6B@
    ?application_class_@Application@Gtk@@0VApplication_Class@2@A
    ?__empty_global_delete@@YAXPEAX@Z
    ?__empty_global_delete@@YAXPEAX_K@Z
    ??2@YAPEAX_KPEAX@Z
    ??3@YAXPEAX0@Z
    ??0_Container_proxy@std@@QEAA@XZ
    ??0_Container_base12@std@@QEAA@XZ
    ??1_Container_base12@std@@QEAA@XZ
    ?_Getpfirst@_Container_base12@std@@QEBAPEAPEAU_Iterator_base12@2@XZ
    ?_Orphan_all@_Container_base12@std@@QEAAXXZ
    ??0_Iterator_base12@std@@QEAA@XZ
    ??1_Iterator_base12@std@@QEAA@XZ
    ?_Adopt@_Iterator_base12@std@@QEAAXPEBU_Container_base12@2@@Z
    ?_Clrcont@_Iterator_base12@std@@QEAAXXZ
    ?_Getcont@_Iterator_base12@std@@QEBAPEBU_Container_base12@2@XZ
    ?_Getpnext@_Iterator_base12@std@@QEAAPEAPEAU12@XZ
    ?_Orphan_me@_Iterator_base12@std@@QEAAXXZ
    ?_Allocate@std@@YAPEAX_K0_N@Z
    ?_Deallocate@std@@YAXPEAX_K1@Z
    ?get_type@Class@Glib@@QEBA_KXZ
    ?data_to_slot@SignalProxyBase@Glib@@SAPEAVslot_base@sigc@@PEAX@Z
    ?to_c_type@?$TypeTraits@Vustring@Glib@@@Container_Helpers@Glib@@SAPEBDAEBVustring@3@@Z
    ?to_cpp_type@?$TypeTraits@Vustring@Glib@@@Container_Helpers@Glib@@SA?AVustring@3@PEBD@Z
    ?release_c_type@?$TypeTraits@Vustring@Glib@@@Container_Helpers@Glib@@SAXPEBD@Z
    ??1?$slot0@X@sigc@@QEAA@XZ
    ??1?$slot@XUnil@sigc@@U12@U12@U12@U12@U12@U12@@sigc@@QEAA@XZ
    ?gobj@MenuModel@Gio@@QEAAPEAU_GMenuModel@@XZ
    ?value_type@?$Value@W4ApplicationInhibitFlags@Gtk@@@Glib@@SA_KXZ
    ??0Application@Gtk@@IEAA@AEBVConstructParams@Glib@@@Z
    ??0Application@Gtk@@IEAA@PEAU_GtkApplication@@@Z
    ??1Application@Gtk@@UEAA@XZ
    ?get_type@Application@Gtk@@SA_KXZ
    ?get_base_type@Application@Gtk@@SA_KXZ
    ?gobj@Application@Gtk@@QEAAPEAU_GtkApplication@@XZ
    ?gobj@Application@Gtk@@QEBAPEBU_GtkApplication@@XZ
    ?gobj_copy@Application@Gtk@@QEAAPEAU_GtkApplication@@XZ
    ??0Application@Gtk@@IEAA@AEBVustring@Glib@@W4ApplicationFlags@Gio@@@Z
    ??0Application@Gtk@@IEAA@AEAHAEAPEAPEADAEBVustring@Glib@@W4ApplicationFlags@Gio@@@Z
    ?create@Application@Gtk@@SA?AV?$RefPtr@VApplication@Gtk@@@Glib@@AEBVustring@4@W4ApplicationFlags@Gio@@@Z
    ?create@Application@Gtk@@SA?AV?$RefPtr@VApplication@Gtk@@@Glib@@AEAHAEAPEAPEADAEBVustring@4@W4ApplicationFlags@Gio@@@Z
    ?get_windows@Application@Gtk@@QEAA?AV?$vector@PEAVWindow@Gtk@@V?$allocator@PEAVWindow@Gtk@@@std@@@std@@XZ
    ?get_windows@Application@Gtk@@QEBA?AV?$vector@PEBVWindow@Gtk@@V?$allocator@PEBVWindow@Gtk@@@std@@@std@@XZ
    ?add_window@Application@Gtk@@QEAAXAEAVWindow@2@@Z
    ?remove_window@Application@Gtk@@QEAAXAEAVWindow@2@@Z
    ?run@Application@Gtk@@QEAAHHPEAPEAD@Z
    ?run@Application@Gtk@@QEAAHAEAVWindow@2@HPEAPEAD@Z
    ?run@Application@Gtk@@QEAAHAEAVWindow@2@@Z
    ?run@Application@Gtk@@QEAAHXZ
    ?get_app_menu@Application@Gtk@@QEAA?AV?$RefPtr@VMenuModel@Gio@@@Glib@@XZ
    ?get_app_menu@Application@Gtk@@QEBA?AV?$RefPtr@$$CBVMenuModel@Gio@@@Glib@@XZ
    ?set_app_menu@Application@Gtk@@QEAAXAEBV?$RefPtr@VMenuModel@Gio@@@Glib@@@Z
    ?get_menubar@Application@Gtk@@QEAA?AV?$RefPtr@VMenuModel@Gio@@@Glib@@XZ
    ?get_menubar@Application@Gtk@@QEBA?AV?$RefPtr@$$CBVMenuModel@Gio@@@Glib@@XZ
    ?set_menubar@Application@Gtk@@QEAAXAEBV?$RefPtr@VMenuModel@Gio@@@Glib@@@Z
    ?add_accelerator@Application@Gtk@@QEAAXAEBVustring@Glib@@0PEAU_GVariant@@@Z
    ?add_accelerator@Application@Gtk@@QEAAXAEBVustring@Glib@@0@Z
    ?remove_accelerator@Application@Gtk@@QEAAXAEBVustring@Glib@@PEAU_GVariant@@@Z
    ?remove_accelerator@Application@Gtk@@QEAAXAEBVustring@Glib@@@Z
    ?inhibit@Application@Gtk@@QEAAIAEAVWindow@2@W4ApplicationInhibitFlags@2@AEBVustring@Glib@@@Z
    ?uninhibit@Application@Gtk@@QEAAXI@Z
    ?is_inhibited@Application@Gtk@@QEBA_NW4ApplicationInhibitFlags@2@@Z
    ?get_window_by_id@Application@Gtk@@QEAAPEAVWindow@2@I@Z
    ?get_window_by_id@Application@Gtk@@QEBAPEBVWindow@2@I@Z
    ?get_active_window@Application@Gtk@@QEAAPEAVWindow@2@XZ
    ?get_active_window@Application@Gtk@@QEBAPEBVWindow@2@XZ
    ?list_action_descriptions@Application@Gtk@@QEBA?AV?$vector@Vustring@Glib@@V?$allocator@Vustring@Glib@@@std@@@std@@XZ
    ?get_accels_for_action@Application@Gtk@@QEBA?AV?$vector@Vustring@Glib@@V?$allocator@Vustring@Glib@@@std@@@std@@AEBVustring@Glib@@@Z
    ?get_actions_for_accel@Application@Gtk@@QEBA?AV?$vector@Vustring@Glib@@V?$allocator@Vustring@Glib@@@std@@@std@@AEBVustring@Glib@@@Z
    ?set_accels_for_action@Application@Gtk@@QEAAXAEBVustring@Glib@@AEBV?$vector@Vustring@Glib@@V?$allocator@Vustring@Glib@@@std@@@std@@@Z
    ?set_accel_for_action@Application@Gtk@@QEAAXAEBVustring@Glib@@0@Z
    ?unset_accels_for_action@Application@Gtk@@QEAAXAEBVustring@Glib@@@Z
    ?prefers_app_menu@Application@Gtk@@QEBA_NXZ
    ?get_menu_by_id@Application@Gtk@@QEAA?AV?$RefPtr@VMenu@Gio@@@Glib@@AEBVustring@4@@Z
    ?get_menu_by_id@Application@Gtk@@QEBA?AV?$RefPtr@$$CBVMenu@Gio@@@Glib@@AEBVustring@4@@Z
    ?property_app_menu@Application@Gtk@@QEAA?AV?$PropertyProxy@V?$RefPtr@VMenuModel@Gio@@@Glib@@@Glib@@XZ
    ?property_app_menu@Application@Gtk@@QEBA?AV?$PropertyProxy_ReadOnly@V?$RefPtr@VMenuModel@Gio@@@Glib@@@Glib@@XZ
    ?property_menubar@Application@Gtk@@QEAA?AV?$PropertyProxy@V?$RefPtr@VMenuModel@Gio@@@Glib@@@Glib@@XZ
    ?property_menubar@Application@Gtk@@QEBA?AV?$PropertyProxy_ReadOnly@V?$RefPtr@VMenuModel@Gio@@@Glib@@@Glib@@XZ
    ?property_register_session@Application@Gtk@@QEAA?AV?$PropertyProxy@_N@Glib@@XZ
    ?property_register_session@Application@Gtk@@QEBA?AV?$PropertyProxy_ReadOnly@_N@Glib@@XZ
    ?property_active_window@Application@Gtk@@QEBA?AV?$PropertyProxy_ReadOnly@PEAVWindow@Gtk@@@Glib@@XZ
    ?signal_window_added@Application@Gtk@@QEAA?AV?$SignalProxy1@XPEAVWindow@Gtk@@@Glib@@XZ
    ?signal_window_removed@Application@Gtk@@QEAA?AV?$SignalProxy1@XPEAVWindow@Gtk@@@Glib@@XZ
    ?custom_class_init@Application@Gtk@@AEAAAEBVClass@Glib@@XZ
    ?on_activate_add_and_show_main_window@Application@Gtk@@AEAAXPEAVWindow@2@@Z
    ?on_window_hide@Application@Gtk@@AEAAXPEAVWindow@2@@Z
    ?on_window_added@Application@Gtk@@MEAAXPEAVWindow@2@@Z
    ?on_window_removed@Application@Gtk@@MEAAXPEAVWindow@2@@Z
    ??_DApplication@Gtk@@QEAAXXZ
    ?wrap@Glib@@YA?AV?$RefPtr@VApplication@Gtk@@@1@PEAU_GtkApplication@@_N@Z
    ?init@Application_Class@Gtk@@QEAAAEBVClass@Glib@@XZ
    ?class_init_function@Application_Class@Gtk@@SAXPEAX0@Z
    ?wrap_new@Application_Class@Gtk@@SAPEAVObjectBase@Glib@@PEAU_GObject@@@Z
    ?window_added_callback@Application_Class@Gtk@@KAXPEAU_GtkApplication@@PEAU_GtkWindow@@@Z
    ?window_removed_callback@Application_Class@Gtk@@KAXPEAU_GtkApplication@@PEAU_GtkWindow@@@Z
    ?gobj@Window@Gtk@@QEAAPEAU_GtkWindow@@XZ
    ??1?$RefPtr@VApplication@Gtk@@@Glib@@QEAA@XZ
    ??0?$RefPtr@VApplication@Gtk@@@Glib@@QEAA@PEAVApplication@Gtk@@@Z
    ??B?$RefPtr@VApplication@Gtk@@@Glib@@QEBA_NXZ
    ?connect@?$SignalProxy0@X@Glib@@QEAA?AUconnection@sigc@@AEBV?$slot@XUnil@sigc@@U12@U12@U12@U12@U12@U12@@4@_N@Z
    ??1?$SignalProxy0@X@Glib@@QEAA@XZ
    ??$mem_fun@PEAVWindow@Gtk@@XVApplication@2@V32@@sigc@@YA?AV?$bound_mem_functor1@XVApplication@Gtk@@PEAVWindow@2@@0@AEAVApplication@Gtk@@P823@EAAXPEAVWindow@3@@Z@Z
    ??0?$mem_functor1@XVApplication@Gtk@@PEAVWindow@2@@sigc@@QEAA@P8Application@Gtk@@EAAXPEAVWindow@3@@Z@Z
    ??0?$bound_mem_functor1@XVApplication@Gtk@@PEAVWindow@2@@sigc@@QEAA@AEAVApplication@Gtk@@P823@EAAXPEAVWindow@3@@Z@Z
    ??R?$bound_mem_functor1@XVApplication@Gtk@@PEAVWindow@2@@sigc@@QEBAXAEBQEAVWindow@Gtk@@@Z
    ??0?$limit_reference@VApplication@Gtk@@$00@sigc@@QEAA@AEAVApplication@Gtk@@@Z
    ?visit@?$limit_reference@VApplication@Gtk@@$00@sigc@@QEBAAEBUtrackable@2@XZ
    ?invoke@?$limit_reference@VApplication@Gtk@@$00@sigc@@QEBAAEAVApplication@Gtk@@XZ
    ??$bind@PEAVWindow@Gtk@@V?$bound_mem_functor1@XVApplication@Gtk@@PEAVWindow@2@@sigc@@@sigc@@YA?AU?$bind_functor@$0?0V?$bound_mem_functor1@XVApplication@Gtk@@PEAVWindow@2@@sigc@@PEAVWindow@Gtk@@Unil@2@U52@U52@U52@U52@U52@@0@AEBV?$bound_mem_functor1@XVApplication@Gtk@@PEAVWindow@2@@0@PEAVWindow@Gtk@@@Z
    ??0?$adapts@V?$bound_mem_functor1@XVApplication@Gtk@@PEAVWindow@2@@sigc@@@sigc@@QEAA@AEBV?$bound_mem_functor1@XVApplication@Gtk@@PEAVWindow@2@@1@@Z
    ??0?$adaptor_functor@V?$bound_mem_functor1@XVApplication@Gtk@@PEAVWindow@2@@sigc@@@sigc@@QEAA@AEBV?$bound_mem_functor1@XVApplication@Gtk@@PEAVWindow@2@@1@@Z
    ??R?$bind_functor@$0?0V?$bound_mem_functor1@XVApplication@Gtk@@PEAVWindow@2@@sigc@@PEAVWindow@Gtk@@Unil@2@U52@U52@U52@U52@U52@@sigc@@QEAAXXZ
    ??0?$bind_functor@$0?0V?$bound_mem_functor1@XVApplication@Gtk@@PEAVWindow@2@@sigc@@PEAVWindow@Gtk@@Unil@2@U52@U52@U52@U52@U52@@sigc@@QEAA@AEBV?$bound_mem_functor1@XVApplication@Gtk@@PEAVWindow@2@@1@AEBQEAVWindow@Gtk@@@Z
    ??0?$bound_argument@PEAVWindow@Gtk@@@sigc@@QEAA@AEBQEAVWindow@Gtk@@@Z
    ?visit@?$bound_argument@PEAVWindow@Gtk@@@sigc@@QEBAAEBQEAVWindow@Gtk@@XZ
    ?invoke@?$bound_argument@PEAVWindow@Gtk@@@sigc@@QEAAAEAPEAVWindow@Gtk@@XZ
    ??$?0U?$bind_functor@$0?0V?$bound_mem_functor1@XVApplication@Gtk@@PEAVWindow@2@@sigc@@PEAVWindow@Gtk@@Unil@2@U52@U52@U52@U52@U52@@sigc@@@?$slot@XUnil@sigc@@U12@U12@U12@U12@U12@U12@@sigc@@QEAA@AEBU?$bind_functor@$0?0V?$bound_mem_functor1@XVApplication@Gtk@@PEAVWindow@2@@sigc@@PEAVWindow@Gtk@@Unil@2@U52@U52@U52@U52@U52@@1@@Z
    ??0?$allocator@Vustring@Glib@@@std@@QEAA@XZ
    ?deallocate@?$allocator@Vustring@Glib@@@std@@QEAAXPEAVustring@Glib@@_K@Z
    ?allocate@?$allocator@Vustring@Glib@@@std@@QEAAPEAVustring@Glib@@_K@Z
    ?max_size@?$allocator@Vustring@Glib@@@std@@QEBA_KXZ
    ?max_size@?$allocator_traits@V?$allocator@Vustring@Glib@@@std@@@std@@SA_KAEBV?$allocator@Vustring@Glib@@@2@@Z
    ??0?$_Wrap_alloc@V?$allocator@Vustring@Glib@@@std@@@std@@QEAA@XZ
    ?allocate@?$_Wrap_alloc@V?$allocator@Vustring@Glib@@@std@@@std@@QEAAPEAVustring@Glib@@_K@Z
    ?deallocate@?$_Wrap_alloc@V?$allocator@Vustring@Glib@@@std@@@std@@QEAAXPEAVustring@Glib@@_K@Z
    ?max_size@?$_Wrap_alloc@V?$allocator@Vustring@Glib@@@std@@@std@@QEBA_KU_Nil@2@@Z
    ??0?$_Vector_alloc@U?$_Vec_base_types@Vustring@Glib@@V?$allocator@Vustring@Glib@@@std@@@std@@@std@@QEAA@XZ
    ??1?$_Vector_alloc@U?$_Vec_base_types@Vustring@Glib@@V?$allocator@Vustring@Glib@@@std@@@std@@@std@@QEAA@XZ
    ?_Alloc_proxy@?$_Vector_alloc@U?$_Vec_base_types@Vustring@Glib@@V?$allocator@Vustring@Glib@@@std@@@std@@@std@@QEAAXXZ
    ?_Free_proxy@?$_Vector_alloc@U?$_Vec_base_types@Vustring@Glib@@V?$allocator@Vustring@Glib@@@std@@@std@@@std@@QEAAXXZ
    ?_Getpfirst@?$_Vector_alloc@U?$_Vec_base_types@Vustring@Glib@@V?$allocator@Vustring@Glib@@@std@@@std@@@std@@QEBAPEAPEAU_Iterator_base12@2@XZ
    ?_Myproxy@?$_Vector_alloc@U?$_Vec_base_types@Vustring@Glib@@V?$allocator@Vustring@Glib@@@std@@@std@@@std@@QEAAAEAPEAU_Container_proxy@2@XZ
    ?_Orphan_all@?$_Vector_alloc@U?$_Vec_base_types@Vustring@Glib@@V?$allocator@Vustring@Glib@@@std@@@std@@@std@@QEAAXXZ
    ?_Getal@?$_Vector_alloc@U?$_Vec_base_types@Vustring@Glib@@V?$allocator@Vustring@Glib@@@std@@@std@@@std@@QEAAAEAU?$_Wrap_alloc@V?$allocator@Vustring@Glib@@@std@@@2@XZ
    ?_Getal@?$_Vector_alloc@U?$_Vec_base_types@Vustring@Glib@@V?$allocator@Vustring@Glib@@@std@@@std@@@std@@QEBAAEBU?$_Wrap_alloc@V?$allocator@Vustring@Glib@@@std@@@2@XZ
    ?_Get_data@?$_Vector_alloc@U?$_Vec_base_types@Vustring@Glib@@V?$allocator@Vustring@Glib@@@std@@@std@@@std@@QEAAAEAV?$_Vector_val@U?$_Simple_types@Vustring@Glib@@@std@@@2@XZ
    ?_Get_data@?$_Vector_alloc@U?$_Vec_base_types@Vustring@Glib@@V?$allocator@Vustring@Glib@@@std@@@std@@@std@@QEBAAEBV?$_Vector_val@U?$_Simple_types@Vustring@Glib@@@std@@@2@XZ
    ?_Myfirst@?$_Vector_alloc@U?$_Vec_base_types@Vustring@Glib@@V?$allocator@Vustring@Glib@@@std@@@std@@@std@@QEAAAEAPEAVustring@Glib@@XZ
    ?_Myfirst@?$_Vector_alloc@U?$_Vec_base_types@Vustring@Glib@@V?$allocator@Vustring@Glib@@@std@@@std@@@std@@QEBAAEBQEAVustring@Glib@@XZ
    ?_Mylast@?$_Vector_alloc@U?$_Vec_base_types@Vustring@Glib@@V?$allocator@Vustring@Glib@@@std@@@std@@@std@@QEAAAEAPEAVustring@Glib@@XZ
    ?_Mylast@?$_Vector_alloc@U?$_Vec_base_types@Vustring@Glib@@V?$allocator@Vustring@Glib@@@std@@@std@@@std@@QEBAAEBQEAVustring@Glib@@XZ
    ?_Myend@?$_Vector_alloc@U?$_Vec_base_types@Vustring@Glib@@V?$allocator@Vustring@Glib@@@std@@@std@@@std@@QEAAAEAPEAVustring@Glib@@XZ
    ?_Myend@?$_Vector_alloc@U?$_Vec_base_types@Vustring@Glib@@V?$allocator@Vustring@Glib@@@std@@@std@@@std@@QEBAAEBQEAVustring@Glib@@XZ
    ??0?$_Vector_val@U?$_Simple_types@Vustring@Glib@@@std@@@std@@QEAA@XZ
    ??1?$_Vector_val@U?$_Simple_types@Vustring@Glib@@@std@@@std@@QEAA@XZ
    ?_Get_first@?$_Compressed_pair@U?$_Wrap_alloc@V?$allocator@Vustring@Glib@@@std@@@std@@V?$_Vector_val@U?$_Simple_types@Vustring@Glib@@@std@@@2@$00@std@@QEAAAEAU?$_Wrap_alloc@V?$allocator@Vustring@Glib@@@std@@@2@XZ
    ?_Get_first@?$_Compressed_pair@U?$_Wrap_alloc@V?$allocator@Vustring@Glib@@@std@@@std@@V?$_Vector_val@U?$_Simple_types@Vustring@Glib@@@std@@@2@$00@std@@QEBAAEBU?$_Wrap_alloc@V?$allocator@Vustring@Glib@@@std@@@2@XZ
    ?_Get_second@?$_Compressed_pair@U?$_Wrap_alloc@V?$allocator@Vustring@Glib@@@std@@@std@@V?$_Vector_val@U?$_Simple_types@Vustring@Glib@@@std@@@2@$00@std@@QEAAAEAV?$_Vector_val@U?$_Simple_types@Vustring@Glib@@@std@@@2@XZ
    ?_Get_second@?$_Compressed_pair@U?$_Wrap_alloc@V?$allocator@Vustring@Glib@@@std@@@std@@V?$_Vector_val@U?$_Simple_types@Vustring@Glib@@@std@@@2@$00@std@@QEBAAEBV?$_Vector_val@U?$_Simple_types@Vustring@Glib@@@std@@@2@XZ
    ??1?$_Compressed_pair@U?$_Wrap_alloc@V?$allocator@Vustring@Glib@@@std@@@std@@V?$_Vector_val@U?$_Simple_types@Vustring@Glib@@@std@@@2@$00@std@@QEAA@XZ
    ??0?$vector@Vustring@Glib@@V?$allocator@Vustring@Glib@@@std@@@std@@QEAA@XZ
    ??1?$vector@Vustring@Glib@@V?$allocator@Vustring@Glib@@@std@@@std@@QEAA@XZ
    ?capacity@?$vector@Vustring@Glib@@V?$allocator@Vustring@Glib@@@std@@@std@@QEBA_KXZ
    ?_Unused_capacity@?$vector@Vustring@Glib@@V?$allocator@Vustring@Glib@@@std@@@std@@QEBA_KXZ
    ?begin@?$vector@Vustring@Glib@@V?$allocator@Vustring@Glib@@@std@@@std@@QEBA?AV?$_Vector_const_iterator@V?$_Vector_val@U?$_Simple_types@Vustring@Glib@@@std@@@std@@@2@XZ
    ?size@?$vector@Vustring@Glib@@V?$allocator@Vustring@Glib@@@std@@@std@@QEBA_KXZ
    ?max_size@?$vector@Vustring@Glib@@V?$allocator@Vustring@Glib@@@std@@@std@@QEBA_KXZ
    ?push_back@?$vector@Vustring@Glib@@V?$allocator@Vustring@Glib@@@std@@@std@@QEAAXAEBVustring@Glib@@@Z
    ?_Buy@?$vector@Vustring@Glib@@V?$allocator@Vustring@Glib@@@std@@@std@@IEAA_N_K@Z
    ?_Destroy@?$vector@Vustring@Glib@@V?$allocator@Vustring@Glib@@@std@@@std@@IEAAXPEAVustring@Glib@@0@Z
    ?_Grow_to@?$vector@Vustring@Glib@@V?$allocator@Vustring@Glib@@@std@@@std@@IEBA_K_K@Z
    ?_Inside@?$vector@Vustring@Glib@@V?$allocator@Vustring@Glib@@@std@@@std@@IEBA_NPEBVustring@Glib@@@Z
    ?_Reallocate@?$vector@Vustring@Glib@@V?$allocator@Vustring@Glib@@@std@@@std@@IEAAX_K@Z
    ?_Reserve@?$vector@Vustring@Glib@@V?$allocator@Vustring@Glib@@@std@@@std@@IEAAX_K@Z
    ?_Tidy@?$vector@Vustring@Glib@@V?$allocator@Vustring@Glib@@@std@@@std@@IEAAXXZ
    ?_Xlen@?$vector@Vustring@Glib@@V?$allocator@Vustring@Glib@@@std@@@std@@IEBAXXZ
    ?_Orphan_range@?$vector@Vustring@Glib@@V?$allocator@Vustring@Glib@@@std@@@std@@IEBAXPEAVustring@Glib@@0@Z
    ??R?$slot1@XPEAVWindow@Gtk@@@sigc@@QEBAXAEBQEAVWindow@Gtk@@@Z
    ??0?$allocator@PEAVWindow@Gtk@@@std@@QEAA@XZ
    ?deallocate@?$allocator@PEAVWindow@Gtk@@@std@@QEAAXPEAPEAVWindow@Gtk@@_K@Z
    ?allocate@?$allocator@PEAVWindow@Gtk@@@std@@QEAAPEAPEAVWindow@Gtk@@_K@Z
    ?max_size@?$allocator@PEAVWindow@Gtk@@@std@@QEBA_KXZ
    ?max_size@?$allocator_traits@V?$allocator@PEAVWindow@Gtk@@@std@@@std@@SA_KAEBV?$allocator@PEAVWindow@Gtk@@@2@@Z
    ??0?$_Wrap_alloc@V?$allocator@PEAVWindow@Gtk@@@std@@@std@@QEAA@XZ
    ?allocate@?$_Wrap_alloc@V?$allocator@PEAVWindow@Gtk@@@std@@@std@@QEAAPEAPEAVWindow@Gtk@@_K@Z
    ?deallocate@?$_Wrap_alloc@V?$allocator@PEAVWindow@Gtk@@@std@@@std@@QEAAXPEAPEAVWindow@Gtk@@_K@Z
    ?max_size@?$_Wrap_alloc@V?$allocator@PEAVWindow@Gtk@@@std@@@std@@QEBA_KU_Nil@2@@Z
    ??0?$_Vector_alloc@U?$_Vec_base_types@PEAVWindow@Gtk@@V?$allocator@PEAVWindow@Gtk@@@std@@@std@@@std@@QEAA@XZ
    ??1?$_Vector_alloc@U?$_Vec_base_types@PEAVWindow@Gtk@@V?$allocator@PEAVWindow@Gtk@@@std@@@std@@@std@@QEAA@XZ
    ?_Alloc_proxy@?$_Vector_alloc@U?$_Vec_base_types@PEAVWindow@Gtk@@V?$allocator@PEAVWindow@Gtk@@@std@@@std@@@std@@QEAAXXZ
    ?_Free_proxy@?$_Vector_alloc@U?$_Vec_base_types@PEAVWindow@Gtk@@V?$allocator@PEAVWindow@Gtk@@@std@@@std@@@std@@QEAAXXZ
    ?_Myproxy@?$_Vector_alloc@U?$_Vec_base_types@PEAVWindow@Gtk@@V?$allocator@PEAVWindow@Gtk@@@std@@@std@@@std@@QEAAAEAPEAU_Container_proxy@2@XZ
    ?_Orphan_all@?$_Vector_alloc@U?$_Vec_base_types@PEAVWindow@Gtk@@V?$allocator@PEAVWindow@Gtk@@@std@@@std@@@std@@QEAAXXZ
    ?_Getal@?$_Vector_alloc@U?$_Vec_base_types@PEAVWindow@Gtk@@V?$allocator@PEAVWindow@Gtk@@@std@@@std@@@std@@QEAAAEAU?$_Wrap_alloc@V?$allocator@PEAVWindow@Gtk@@@std@@@2@XZ
    ?_Getal@?$_Vector_alloc@U?$_Vec_base_types@PEAVWindow@Gtk@@V?$allocator@PEAVWindow@Gtk@@@std@@@std@@@std@@QEBAAEBU?$_Wrap_alloc@V?$allocator@PEAVWindow@Gtk@@@std@@@2@XZ
    ?_Get_data@?$_Vector_alloc@U?$_Vec_base_types@PEAVWindow@Gtk@@V?$allocator@PEAVWindow@Gtk@@@std@@@std@@@std@@QEAAAEAV?$_Vector_val@U?$_Simple_types@PEAVWindow@Gtk@@@std@@@2@XZ
    ?_Myfirst@?$_Vector_alloc@U?$_Vec_base_types@PEAVWindow@Gtk@@V?$allocator@PEAVWindow@Gtk@@@std@@@std@@@std@@QEAAAEAPEAPEAVWindow@Gtk@@XZ
    ?_Mylast@?$_Vector_alloc@U?$_Vec_base_types@PEAVWindow@Gtk@@V?$allocator@PEAVWindow@Gtk@@@std@@@std@@@std@@QEAAAEAPEAPEAVWindow@Gtk@@XZ
    ?_Myend@?$_Vector_alloc@U?$_Vec_base_types@PEAVWindow@Gtk@@V?$allocator@PEAVWindow@Gtk@@@std@@@std@@@std@@QEAAAEAPEAPEAVWindow@Gtk@@XZ
    ??0?$_Vector_val@U?$_Simple_types@PEAVWindow@Gtk@@@std@@@std@@QEAA@XZ
    ??1?$_Vector_val@U?$_Simple_types@PEAVWindow@Gtk@@@std@@@std@@QEAA@XZ
    ?_Get_first@?$_Compressed_pair@U?$_Wrap_alloc@V?$allocator@PEAVWindow@Gtk@@@std@@@std@@V?$_Vector_val@U?$_Simple_types@PEAVWindow@Gtk@@@std@@@2@$00@std@@QEAAAEAU?$_Wrap_alloc@V?$allocator@PEAVWindow@Gtk@@@std@@@2@XZ
    ?_Get_first@?$_Compressed_pair@U?$_Wrap_alloc@V?$allocator@PEAVWindow@Gtk@@@std@@@std@@V?$_Vector_val@U?$_Simple_types@PEAVWindow@Gtk@@@std@@@2@$00@std@@QEBAAEBU?$_Wrap_alloc@V?$allocator@PEAVWindow@Gtk@@@std@@@2@XZ
    ?_Get_second@?$_Compressed_pair@U?$_Wrap_alloc@V?$allocator@PEAVWindow@Gtk@@@std@@@std@@V?$_Vector_val@U?$_Simple_types@PEAVWindow@Gtk@@@std@@@2@$00@std@@QEAAAEAV?$_Vector_val@U?$_Simple_types@PEAVWindow@Gtk@@@std@@@2@XZ
    ??1?$_Compressed_pair@U?$_Wrap_alloc@V?$allocator@PEAVWindow@Gtk@@@std@@@std@@V?$_Vector_val@U?$_Simple_types@PEAVWindow@Gtk@@@std@@@2@$00@std@@QEAA@XZ
    ?max_size@?$vector@PEAVWindow@Gtk@@V?$allocator@PEAVWindow@Gtk@@@std@@@std@@QEBA_KXZ
    ?_Buy@?$vector@PEAVWindow@Gtk@@V?$allocator@PEAVWindow@Gtk@@@std@@@std@@IEAA_N_K@Z
    ?_Destroy@?$vector@PEAVWindow@Gtk@@V?$allocator@PEAVWindow@Gtk@@@std@@@std@@IEAAXPEAPEAVWindow@Gtk@@0@Z
    ?_Tidy@?$vector@PEAVWindow@Gtk@@V?$allocator@PEAVWindow@Gtk@@@std@@@std@@IEAAXXZ
    ?_Xlen@?$vector@PEAVWindow@Gtk@@V?$allocator@PEAVWindow@Gtk@@@std@@@std@@IEBAXXZ
    ?to_cpp_type@?$TypeTraits@PEAVWindow@Gtk@@@Container_Helpers@Glib@@SAPEAVWindow@Gtk@@PEAU_GtkWindow@@@Z
    ?release_c_type@?$TypeTraits@PEAVWindow@Gtk@@@Container_Helpers@Glib@@SAXPEAU_GtkWindow@@@Z
    ?list_to_vector@?$ListHandler@PEAVWindow@Gtk@@U?$TypeTraits@PEAVWindow@Gtk@@@Container_Helpers@Glib@@@Glib@@SA?AV?$vector@PEAVWindow@Gtk@@V?$allocator@PEAVWindow@Gtk@@@std@@@std@@PEAU_GList@@W4OwnershipType@2@@Z
    ??0?$allocator@PEBVWindow@Gtk@@@std@@QEAA@XZ
    ?deallocate@?$allocator@PEBVWindow@Gtk@@@std@@QEAAXPEAPEBVWindow@Gtk@@_K@Z
    ?allocate@?$allocator@PEBVWindow@Gtk@@@std@@QEAAPEAPEBVWindow@Gtk@@_K@Z
    ?max_size@?$allocator@PEBVWindow@Gtk@@@std@@QEBA_KXZ
    ?max_size@?$allocator_traits@V?$allocator@PEBVWindow@Gtk@@@std@@@std@@SA_KAEBV?$allocator@PEBVWindow@Gtk@@@2@@Z
    ??0?$_Wrap_alloc@V?$allocator@PEBVWindow@Gtk@@@std@@@std@@QEAA@XZ
    ?allocate@?$_Wrap_alloc@V?$allocator@PEBVWindow@Gtk@@@std@@@std@@QEAAPEAPEBVWindow@Gtk@@_K@Z
    ?deallocate@?$_Wrap_alloc@V?$allocator@PEBVWindow@Gtk@@@std@@@std@@QEAAXPEAPEBVWindow@Gtk@@_K@Z
    ?max_size@?$_Wrap_alloc@V?$allocator@PEBVWindow@Gtk@@@std@@@std@@QEBA_KU_Nil@2@@Z
    ??0?$_Vector_alloc@U?$_Vec_base_types@PEBVWindow@Gtk@@V?$allocator@PEBVWindow@Gtk@@@std@@@std@@@std@@QEAA@XZ
    ??1?$_Vector_alloc@U?$_Vec_base_types@PEBVWindow@Gtk@@V?$allocator@PEBVWindow@Gtk@@@std@@@std@@@std@@QEAA@XZ
    ?_Alloc_proxy@?$_Vector_alloc@U?$_Vec_base_types@PEBVWindow@Gtk@@V?$allocator@PEBVWindow@Gtk@@@std@@@std@@@std@@QEAAXXZ
    ?_Free_proxy@?$_Vector_alloc@U?$_Vec_base_types@PEBVWindow@Gtk@@V?$allocator@PEBVWindow@Gtk@@@std@@@std@@@std@@QEAAXXZ
    ?_Myproxy@?$_Vector_alloc@U?$_Vec_base_types@PEBVWindow@Gtk@@V?$allocator@PEBVWindow@Gtk@@@std@@@std@@@std@@QEAAAEAPEAU_Container_proxy@2@XZ
    ?_Orphan_all@?$_Vector_alloc@U?$_Vec_base_types@PEBVWindow@Gtk@@V?$allocator@PEBVWindow@Gtk@@@std@@@std@@@std@@QEAAXXZ
    ?_Getal@?$_Vector_alloc@U?$_Vec_base_types@PEBVWindow@Gtk@@V?$allocator@PEBVWindow@Gtk@@@std@@@std@@@std@@QEAAAEAU?$_Wrap_alloc@V?$allocator@PEBVWindow@Gtk@@@std@@@2@XZ
    ?_Getal@?$_Vector_alloc@U?$_Vec_base_types@PEBVWindow@Gtk@@V?$allocator@PEBVWindow@Gtk@@@std@@@std@@@std@@QEBAAEBU?$_Wrap_alloc@V?$allocator@PEBVWindow@Gtk@@@std@@@2@XZ
    ?_Get_data@?$_Vector_alloc@U?$_Vec_base_types@PEBVWindow@Gtk@@V?$allocator@PEBVWindow@Gtk@@@std@@@std@@@std@@QEAAAEAV?$_Vector_val@U?$_Simple_types@PEBVWindow@Gtk@@@std@@@2@XZ
    ?_Myfirst@?$_Vector_alloc@U?$_Vec_base_types@PEBVWindow@Gtk@@V?$allocator@PEBVWindow@Gtk@@@std@@@std@@@std@@QEAAAEAPEAPEBVWindow@Gtk@@XZ
    ?_Mylast@?$_Vector_alloc@U?$_Vec_base_types@PEBVWindow@Gtk@@V?$allocator@PEBVWindow@Gtk@@@std@@@std@@@std@@QEAAAEAPEAPEBVWindow@Gtk@@XZ
    ?_Myend@?$_Vector_alloc@U?$_Vec_base_types@PEBVWindow@Gtk@@V?$allocator@PEBVWindow@Gtk@@@std@@@std@@@std@@QEAAAEAPEAPEBVWindow@Gtk@@XZ
    ??0?$_Vector_val@U?$_Simple_types@PEBVWindow@Gtk@@@std@@@std@@QEAA@XZ
    ??1?$_Vector_val@U?$_Simple_types@PEBVWindow@Gtk@@@std@@@std@@QEAA@XZ
    ?_Get_first@?$_Compressed_pair@U?$_Wrap_alloc@V?$allocator@PEBVWindow@Gtk@@@std@@@std@@V?$_Vector_val@U?$_Simple_types@PEBVWindow@Gtk@@@std@@@2@$00@std@@QEAAAEAU?$_Wrap_alloc@V?$allocator@PEBVWindow@Gtk@@@std@@@2@XZ
    ?_Get_first@?$_Compressed_pair@U?$_Wrap_alloc@V?$allocator@PEBVWindow@Gtk@@@std@@@std@@V?$_Vector_val@U?$_Simple_types@PEBVWindow@Gtk@@@std@@@2@$00@std@@QEBAAEBU?$_Wrap_alloc@V?$allocator@PEBVWindow@Gtk@@@std@@@2@XZ
    ?_Get_second@?$_Compressed_pair@U?$_Wrap_alloc@V?$allocator@PEBVWindow@Gtk@@@std@@@std@@V?$_Vector_val@U?$_Simple_types@PEBVWindow@Gtk@@@std@@@2@$00@std@@QEAAAEAV?$_Vector_val@U?$_Simple_types@PEBVWindow@Gtk@@@std@@@2@XZ
    ??1?$_Compressed_pair@U?$_Wrap_alloc@V?$allocator@PEBVWindow@Gtk@@@std@@@std@@V?$_Vector_val@U?$_Simple_types@PEBVWindow@Gtk@@@std@@@2@$00@std@@QEAA@XZ
    ?max_size@?$vector@PEBVWindow@Gtk@@V?$allocator@PEBVWindow@Gtk@@@std@@@std@@QEBA_KXZ
    ?_Buy@?$vector@PEBVWindow@Gtk@@V?$allocator@PEBVWindow@Gtk@@@std@@@std@@IEAA_N_K@Z
    ?_Destroy@?$vector@PEBVWindow@Gtk@@V?$allocator@PEBVWindow@Gtk@@@std@@@std@@IEAAXPEAPEBVWindow@Gtk@@0@Z
    ?_Tidy@?$vector@PEBVWindow@Gtk@@V?$allocator@PEBVWindow@Gtk@@@std@@@std@@IEAAXXZ
    ?_Xlen@?$vector@PEBVWindow@Gtk@@V?$allocator@PEBVWindow@Gtk@@@std@@@std@@IEBAXXZ
    ?to_cpp_type@?$TypeTraits@PEBVWindow@Gtk@@@Container_Helpers@Glib@@SAPEBVWindow@Gtk@@PEBU_GtkWindow@@@Z
    ?release_c_type@?$TypeTraits@PEBVWindow@Gtk@@@Container_Helpers@Glib@@SAXPEBU_GtkWindow@@@Z
    ?list_to_vector@?$ListHandler@PEBVWindow@Gtk@@U?$TypeTraits@PEBVWindow@Gtk@@@Container_Helpers@Glib@@@Glib@@SA?AV?$vector@PEBVWindow@Gtk@@V?$allocator@PEBVWindow@Gtk@@@std@@@std@@PEAU_GList@@W4OwnershipType@2@@Z
    ??1?$RefPtr@VMenuModel@Gio@@@Glib@@QEAA@XZ
    ??0?$RefPtr@VMenuModel@Gio@@@Glib@@QEAA@$$QEAV01@@Z
    ??C?$RefPtr@VMenuModel@Gio@@@Glib@@QEBAPEAVMenuModel@Gio@@XZ
    ??B?$RefPtr@VMenuModel@Gio@@@Glib@@QEBA_NXZ
    ?release@?$RefPtr@VMenuModel@Gio@@@Glib@@QEAAPEAVMenuModel@Gio@@XZ
    ??$?0VMenuModel@Gio@@@?$RefPtr@$$CBVMenuModel@Gio@@@Glib@@QEAA@$$QEAV?$RefPtr@VMenuModel@Gio@@@1@@Z
    ??$unwrap@VMenuModel@Gio@@@Glib@@YAPEAU_GMenuModel@@AEBV?$RefPtr@VMenuModel@Gio@@@0@@Z
    ?array_to_vector@?$ArrayHandler@Vustring@Glib@@U?$TypeTraits@Vustring@Glib@@@Container_Helpers@2@@Glib@@SA?AV?$vector@Vustring@Glib@@V?$allocator@Vustring@Glib@@@std@@@std@@PEBQEBD_KW4OwnershipType@2@@Z
    ?array_to_vector@?$ArrayHandler@Vustring@Glib@@U?$TypeTraits@Vustring@Glib@@@Container_Helpers@2@@Glib@@SA?AV?$vector@Vustring@Glib@@V?$allocator@Vustring@Glib@@@std@@@std@@PEBQEBDW4OwnershipType@2@@Z
    ?vector_to_array@?$ArrayHandler@Vustring@Glib@@U?$TypeTraits@Vustring@Glib@@@Container_Helpers@2@@Glib@@SA?AV?$ArrayKeeper@U?$TypeTraits@Vustring@Glib@@@Container_Helpers@Glib@@@Container_Helpers@2@AEBV?$vector@Vustring@Glib@@V?$allocator@Vustring@Glib@@@std@@@std@@@Z
    ??0?$ArrayKeeper@U?$TypeTraits@Vustring@Glib@@@Container_Helpers@Glib@@@Container_Helpers@Glib@@QEAA@PEBQEBD_KW4OwnershipType@2@@Z
    ??1?$ArrayKeeper@U?$TypeTraits@Vustring@Glib@@@Container_Helpers@Glib@@@Container_Helpers@Glib@@QEAA@XZ
    ?data@?$ArrayKeeper@U?$TypeTraits@Vustring@Glib@@@Container_Helpers@Glib@@@Container_Helpers@Glib@@QEBAPEAPEBDXZ
    ??1?$RefPtr@VMenu@Gio@@@Glib@@QEAA@XZ
    ??0?$RefPtr@VMenu@Gio@@@Glib@@QEAA@$$QEAV01@@Z
    ??C?$RefPtr@VMenu@Gio@@@Glib@@QEBAPEAVMenu@Gio@@XZ
    ??B?$RefPtr@VMenu@Gio@@@Glib@@QEBA_NXZ
    ?release@?$RefPtr@VMenu@Gio@@@Glib@@QEAAPEAVMenu@Gio@@XZ
    ??$?0VMenu@Gio@@@?$RefPtr@$$CBVMenu@Gio@@@Glib@@QEAA@$$QEAV?$RefPtr@VMenu@Gio@@@1@@Z
    ??0?$SignalProxy1@XPEAVWindow@Gtk@@@Glib@@QEAA@PEAVObjectBase@1@PEBUSignalProxyInfo@1@@Z
    ??0?$PropertyProxy@V?$RefPtr@VMenuModel@Gio@@@Glib@@@Glib@@QEAA@PEAVObjectBase@1@PEBD@Z
    ??0?$PropertyProxy_ReadOnly@V?$RefPtr@VMenuModel@Gio@@@Glib@@@Glib@@QEAA@PEBVObjectBase@1@PEBD@Z
    ??0?$PropertyProxy@_N@Glib@@QEAA@PEAVObjectBase@1@PEBD@Z
    ??0?$PropertyProxy_ReadOnly@_N@Glib@@QEAA@PEBVObjectBase@1@PEBD@Z
    ??0?$PropertyProxy_ReadOnly@PEAVWindow@Gtk@@@Glib@@QEAA@PEBVObjectBase@1@PEBD@Z
    ??$unwrap@VWindow@Gtk@@@Glib@@YAPEAU_GtkWindow@@PEAVWindow@Gtk@@@Z
    ??$addressof@$$CBVustring@Glib@@@std@@YAPEBVustring@Glib@@AEBV12@@Z
    ??$construct@Vustring@Glib@@AEAV12@@?$_Wrap_alloc@V?$allocator@Vustring@Glib@@@std@@@std@@QEAAXPEAVustring@Glib@@AEAV23@@Z
    ??$construct@Vustring@Glib@@AEBV12@@?$_Wrap_alloc@V?$allocator@Vustring@Glib@@@std@@@std@@QEAAXPEAVustring@Glib@@AEBV23@@Z
    ??$?0$$V@?$_Compressed_pair@U?$_Wrap_alloc@V?$allocator@Vustring@Glib@@@std@@@std@@V?$_Vector_val@U?$_Simple_types@Vustring@Glib@@@std@@@2@$00@std@@QEAA@U_Zero_then_variadic_args_t@1@@Z
    ??0?$_Iterator012@Urandom_access_iterator_tag@std@@Vustring@Glib@@_JPEBV34@AEBV34@U_Iterator_base12@2@@std@@QEAA@XZ
    ??1?$_Iterator012@Urandom_access_iterator_tag@std@@Vustring@Glib@@_JPEBV34@AEBV34@U_Iterator_base12@2@@std@@QEAA@XZ
    ??0?$_Vector_const_iterator@V?$_Vector_val@U?$_Simple_types@Vustring@Glib@@@std@@@std@@@std@@QEAA@PEAVustring@Glib@@PEBU_Container_base12@1@@Z
    ??D?$_Vector_const_iterator@V?$_Vector_val@U?$_Simple_types@Vustring@Glib@@@std@@@std@@@std@@QEBAAEBVustring@Glib@@XZ
    ??E?$_Vector_const_iterator@V?$_Vector_val@U?$_Simple_types@Vustring@Glib@@@std@@@std@@@std@@QEAAAEAV01@XZ
    ??1?$_Vector_const_iterator@V?$_Vector_val@U?$_Simple_types@Vustring@Glib@@@std@@@std@@@std@@QEAA@XZ
    ?deallocate@?$allocator@U_Container_proxy@std@@@std@@QEAAXPEAU_Container_proxy@2@_K@Z
    ?allocate@?$allocator@U_Container_proxy@std@@@std@@QEAAPEAU_Container_proxy@2@_K@Z
    ?allocate@?$_Wrap_alloc@V?$allocator@U_Container_proxy@std@@@std@@@std@@QEAAPEAU_Container_proxy@2@_K@Z
    ?deallocate@?$_Wrap_alloc@V?$allocator@U_Container_proxy@std@@@std@@@std@@QEAAXPEAU_Container_proxy@2@_K@Z
    ??$?0AEAU?$_Wrap_alloc@V?$allocator@PEBVWindow@Gtk@@@std@@@std@@@?$_Wrap_alloc@V?$allocator@U_Container_proxy@std@@@std@@@std@@QEAA@AEAU?$_Wrap_alloc@V?$allocator@PEBVWindow@Gtk@@@std@@@1@@Z
    ??$destroy@U_Container_proxy@std@@@?$_Wrap_alloc@V?$allocator@U_Container_proxy@std@@@std@@@std@@QEAAXPEAU_Container_proxy@1@@Z
    ??$?0AEAU?$_Wrap_alloc@V?$allocator@PEAVWindow@Gtk@@@std@@@std@@@?$_Wrap_alloc@V?$allocator@U_Container_proxy@std@@@std@@@std@@QEAA@AEAU?$_Wrap_alloc@V?$allocator@PEAVWindow@Gtk@@@std@@@1@@Z
    ??$?0AEAU?$_Wrap_alloc@V?$allocator@Vustring@Glib@@@std@@@std@@@?$_Wrap_alloc@V?$allocator@U_Container_proxy@std@@@std@@@std@@QEAA@AEAU?$_Wrap_alloc@V?$allocator@Vustring@Glib@@@std@@@1@@Z
    ??$construct@U_Container_proxy@std@@U12@@?$_Wrap_alloc@V?$allocator@U_Container_proxy@std@@@std@@@std@@QEAAXPEAU_Container_proxy@1@$$QEAU21@@Z
    ??$_Destroy_range@U?$_Wrap_alloc@V?$allocator@PEBVWindow@Gtk@@@std@@@std@@@std@@YAXPEAPEBVWindow@Gtk@@0AEAU?$_Wrap_alloc@V?$allocator@PEBVWindow@Gtk@@@std@@@0@@Z
    ??$_Destroy_range@U?$_Wrap_alloc@V?$allocator@PEAVWindow@Gtk@@@std@@@std@@@std@@YAXPEAPEAVWindow@Gtk@@0AEAU?$_Wrap_alloc@V?$allocator@PEAVWindow@Gtk@@@std@@@0@@Z
    ??$_Umove@PEAVustring@Glib@@@?$vector@Vustring@Glib@@V?$allocator@Vustring@Glib@@@std@@@std@@IEAAPEAVustring@Glib@@PEAV23@00@Z
    ??$_Destroy_range@U?$_Wrap_alloc@V?$allocator@Vustring@Glib@@@std@@@std@@@std@@YAXPEAVustring@Glib@@0AEAU?$_Wrap_alloc@V?$allocator@Vustring@Glib@@@std@@@0@@Z
    ??$?0U?$bind_functor@$0?0V?$bound_mem_functor1@XVApplication@Gtk@@PEAVWindow@2@@sigc@@PEAVWindow@Gtk@@Unil@2@U52@U52@U52@U52@U52@@sigc@@@?$slot0@X@sigc@@QEAA@AEBU?$bind_functor@$0?0V?$bound_mem_functor1@XVApplication@Gtk@@PEAVWindow@2@@sigc@@PEAVWindow@Gtk@@Unil@2@U52@U52@U52@U52@U52@@1@@Z
    ??0?$GListKeeper@U?$TypeTraits@PEAVWindow@Gtk@@@Container_Helpers@Glib@@@Container_Helpers@Glib@@QEAA@PEBU_GList@@W4OwnershipType@2@@Z
    ??1?$GListKeeper@U?$TypeTraits@PEAVWindow@Gtk@@@Container_Helpers@Glib@@@Container_Helpers@Glib@@QEAA@XZ
    ??0?$ListIterator@U?$TypeTraits@PEAVWindow@Gtk@@@Container_Helpers@Glib@@@Container_Helpers@Glib@@QEAA@PEBU_GList@@@Z
    ??D?$ListIterator@U?$TypeTraits@PEAVWindow@Gtk@@@Container_Helpers@Glib@@@Container_Helpers@Glib@@QEBAPEAVWindow@Gtk@@XZ
    ??E?$ListIterator@U?$TypeTraits@PEAVWindow@Gtk@@@Container_Helpers@Glib@@@Container_Helpers@Glib@@QEAAAEAV012@XZ
    ??9?$ListIterator@U?$TypeTraits@PEAVWindow@Gtk@@@Container_Helpers@Glib@@@Container_Helpers@Glib@@QEBA_NAEBV012@@Z
    ??$?0V?$ListIterator@U?$TypeTraits@PEAVWindow@Gtk@@@Container_Helpers@Glib@@@Container_Helpers@Glib@@X@?$vector@PEAVWindow@Gtk@@V?$allocator@PEAVWindow@Gtk@@@std@@@std@@QEAA@V?$ListIterator@U?$TypeTraits@PEAVWindow@Gtk@@@Container_Helpers@Glib@@@Container_Helpers@Glib@@0@Z
    ??0?$GListKeeper@U?$TypeTraits@PEBVWindow@Gtk@@@Container_Helpers@Glib@@@Container_Helpers@Glib@@QEAA@PEBU_GList@@W4OwnershipType@2@@Z
    ??1?$GListKeeper@U?$TypeTraits@PEBVWindow@Gtk@@@Container_Helpers@Glib@@@Container_Helpers@Glib@@QEAA@XZ
    ??0?$ListIterator@U?$TypeTraits@PEBVWindow@Gtk@@@Container_Helpers@Glib@@@Container_Helpers@Glib@@QEAA@PEBU_GList@@@Z
    ??D?$ListIterator@U?$TypeTraits@PEBVWindow@Gtk@@@Container_Helpers@Glib@@@Container_Helpers@Glib@@QEBAPEBVWindow@Gtk@@XZ
    ??E?$ListIterator@U?$TypeTraits@PEBVWindow@Gtk@@@Container_Helpers@Glib@@@Container_Helpers@Glib@@QEAAAEAV012@XZ
    ??9?$ListIterator@U?$TypeTraits@PEBVWindow@Gtk@@@Container_Helpers@Glib@@@Container_Helpers@Glib@@QEBA_NAEBV012@@Z
    ??$?0V?$ListIterator@U?$TypeTraits@PEBVWindow@Gtk@@@Container_Helpers@Glib@@@Container_Helpers@Glib@@X@?$vector@PEBVWindow@Gtk@@V?$allocator@PEBVWindow@Gtk@@@std@@@std@@QEAA@V?$ListIterator@U?$TypeTraits@PEBVWindow@Gtk@@@Container_Helpers@Glib@@@Container_Helpers@Glib@@0@Z
    ??$compute_array_size2@PEBD@Container_Helpers@Glib@@YA_KPEBQEBD@Z
    ??$create_array@U?$TypeTraits@Vustring@Glib@@@Container_Helpers@Glib@@@Container_Helpers@Glib@@YAPEAPEBDV?$_Vector_const_iterator@V?$_Vector_val@U?$_Simple_types@Vustring@Glib@@@std@@@std@@@std@@_K@Z
    ??$_Addressof@$$CBVustring@Glib@@@std@@YAPEBVustring@Glib@@AEBV12@U?$integral_constant@_N$0A@@0@@Z
    ??$forward@AEAVustring@Glib@@@std@@YAAEAVustring@Glib@@AEAV12@@Z
    ??$construct@Vustring@Glib@@AEAV12@@?$allocator_traits@V?$allocator@Vustring@Glib@@@std@@@std@@SAXAEAV?$allocator@Vustring@Glib@@@1@PEAVustring@Glib@@AEAV34@@Z
    ??$forward@AEBVustring@Glib@@@std@@YAAEBVustring@Glib@@AEBV12@@Z
    ??$construct@Vustring@Glib@@AEBV12@@?$allocator_traits@V?$allocator@Vustring@Glib@@@std@@@std@@SAXAEAV?$allocator@Vustring@Glib@@@1@PEAVustring@Glib@@AEBV34@@Z
    ??$forward@AEAU?$_Wrap_alloc@V?$allocator@PEBVWindow@Gtk@@@std@@@std@@@std@@YAAEAU?$_Wrap_alloc@V?$allocator@PEBVWindow@Gtk@@@std@@@0@AEAU10@@Z
    ??$?0PEBVWindow@Gtk@@@?$allocator@U_Container_proxy@std@@@std@@QEAA@AEBV?$allocator@PEBVWindow@Gtk@@@1@@Z
    ??$destroy@U_Container_proxy@std@@@?$allocator_traits@V?$allocator@U_Container_proxy@std@@@std@@@std@@SAXAEAV?$allocator@U_Container_proxy@std@@@1@PEAU_Container_proxy@1@@Z
    ??$forward@AEAU?$_Wrap_alloc@V?$allocator@PEAVWindow@Gtk@@@std@@@std@@@std@@YAAEAU?$_Wrap_alloc@V?$allocator@PEAVWindow@Gtk@@@std@@@0@AEAU10@@Z
    ??$?0PEAVWindow@Gtk@@@?$allocator@U_Container_proxy@std@@@std@@QEAA@AEBV?$allocator@PEAVWindow@Gtk@@@1@@Z
    ??$forward@AEAU?$_Wrap_alloc@V?$allocator@Vustring@Glib@@@std@@@std@@@std@@YAAEAU?$_Wrap_alloc@V?$allocator@Vustring@Glib@@@std@@@0@AEAU10@@Z
    ??$?0Vustring@Glib@@@?$allocator@U_Container_proxy@std@@@std@@QEAA@AEBV?$allocator@Vustring@Glib@@@1@@Z
    ??$forward@U_Container_proxy@std@@@std@@YA$$QEAU_Container_proxy@0@AEAU10@@Z
    ??$construct@U_Container_proxy@std@@U12@@?$allocator_traits@V?$allocator@U_Container_proxy@std@@@std@@@std@@SAXAEAV?$allocator@U_Container_proxy@std@@@1@PEAU_Container_proxy@1@$$QEAU31@@Z
    ??$addressof@PEBVWindow@Gtk@@@std@@YAPEAPEBVWindow@Gtk@@AEAPEBV12@@Z
    ??$destroy@PEBVWindow@Gtk@@@?$_Wrap_alloc@V?$allocator@PEBVWindow@Gtk@@@std@@@std@@QEAAXPEAPEBVWindow@Gtk@@@Z
    ??$addressof@PEAVWindow@Gtk@@@std@@YAPEAPEAVWindow@Gtk@@AEAPEAV12@@Z
    ??$destroy@PEAVWindow@Gtk@@@?$_Wrap_alloc@V?$allocator@PEAVWindow@Gtk@@@std@@@std@@QEAAXPEAPEAVWindow@Gtk@@@Z
    ??$_Uninitialized_move@PEAVustring@Glib@@PEAV12@U?$_Wrap_alloc@V?$allocator@Vustring@Glib@@@std@@@std@@@std@@YAPEAVustring@Glib@@PEAV12@00AEAU?$_Wrap_alloc@V?$allocator@Vustring@Glib@@@std@@@0@@Z
    ??$addressof@Vustring@Glib@@@std@@YAPEAVustring@Glib@@AEAV12@@Z
    ??$destroy@Vustring@Glib@@@?$_Wrap_alloc@V?$allocator@Vustring@Glib@@@std@@@std@@QEAAXPEAVustring@Glib@@@Z
    ??0?$ArrayIterator@U?$TypeTraits@Vustring@Glib@@@Container_Helpers@Glib@@@Container_Helpers@Glib@@QEAA@PEBQEBD@Z
    ??D?$ArrayIterator@U?$TypeTraits@Vustring@Glib@@@Container_Helpers@Glib@@@Container_Helpers@Glib@@QEBA?AVustring@2@XZ
    ??E?$ArrayIterator@U?$TypeTraits@Vustring@Glib@@@Container_Helpers@Glib@@@Container_Helpers@Glib@@QEAAAEAV012@XZ
    ??G?$ArrayIterator@U?$TypeTraits@Vustring@Glib@@@Container_Helpers@Glib@@@Container_Helpers@Glib@@QEBA_JAEBV012@@Z
    ??9?$ArrayIterator@U?$TypeTraits@Vustring@Glib@@@Container_Helpers@Glib@@@Container_Helpers@Glib@@QEBA_NAEBV012@@Z
    ??$?0V?$ArrayIterator@U?$TypeTraits@Vustring@Glib@@@Container_Helpers@Glib@@@Container_Helpers@Glib@@X@?$vector@Vustring@Glib@@V?$allocator@Vustring@Glib@@@std@@@std@@QEAA@V?$ArrayIterator@U?$TypeTraits@Vustring@Glib@@@Container_Helpers@Glib@@@Container_Helpers@Glib@@0@Z
    ??0?$typed_slot_rep@U?$bind_functor@$0?0V?$bound_mem_functor1@XVApplication@Gtk@@PEAVWindow@2@@sigc@@PEAVWindow@Gtk@@Unil@2@U52@U52@U52@U52@U52@@sigc@@@internal@sigc@@QEAA@AEBU?$bind_functor@$0?0V?$bound_mem_functor1@XVApplication@Gtk@@PEAVWindow@2@@sigc@@PEAVWindow@Gtk@@Unil@2@U52@U52@U52@U52@U52@@2@@Z
    ??0?$typed_slot_rep@U?$bind_functor@$0?0V?$bound_mem_functor1@XVApplication@Gtk@@PEAVWindow@2@@sigc@@PEAVWindow@Gtk@@Unil@2@U52@U52@U52@U52@U52@@sigc@@@internal@sigc@@QEAA@AEBU012@@Z
    ?destroy@?$typed_slot_rep@U?$bind_functor@$0?0V?$bound_mem_functor1@XVApplication@Gtk@@PEAVWindow@2@@sigc@@PEAVWindow@Gtk@@Unil@2@U52@U52@U52@U52@U52@@sigc@@@internal@sigc@@SAPEAXPEAX@Z
    ?dup@?$typed_slot_rep@U?$bind_functor@$0?0V?$bound_mem_functor1@XVApplication@Gtk@@PEAVWindow@2@@sigc@@PEAVWindow@Gtk@@Unil@2@U52@U52@U52@U52@U52@@sigc@@@internal@sigc@@SAPEAXPEAX@Z
    ?call_it@?$slot_call0@U?$bind_functor@$0?0V?$bound_mem_functor1@XVApplication@Gtk@@PEAVWindow@2@@sigc@@PEAVWindow@Gtk@@Unil@2@U52@U52@U52@U52@U52@@sigc@@X@internal@sigc@@SAXPEAUslot_rep@23@@Z
    ?address@?$slot_call0@U?$bind_functor@$0?0V?$bound_mem_functor1@XVApplication@Gtk@@PEAVWindow@2@@sigc@@PEAVWindow@Gtk@@Unil@2@U52@U52@U52@U52@U52@@sigc@@X@internal@sigc@@SAP6APEAXPEAX@ZXZ
    ??$_Construct@V?$ListIterator@U?$TypeTraits@PEAVWindow@Gtk@@@Container_Helpers@Glib@@@Container_Helpers@Glib@@@?$vector@PEAVWindow@Gtk@@V?$allocator@PEAVWindow@Gtk@@@std@@@std@@QEAAXV?$ListIterator@U?$TypeTraits@PEAVWindow@Gtk@@@Container_Helpers@Glib@@@Container_Helpers@Glib@@0@Z
    ??$_Construct@V?$ListIterator@U?$TypeTraits@PEBVWindow@Gtk@@@Container_Helpers@Glib@@@Container_Helpers@Glib@@@?$vector@PEBVWindow@Gtk@@V?$allocator@PEBVWindow@Gtk@@@std@@@std@@QEAAXV?$ListIterator@U?$TypeTraits@PEBVWindow@Gtk@@@Container_Helpers@Glib@@@Container_Helpers@Glib@@0@Z
    ??$construct@Vustring@Glib@@AEAV12@@?$allocator@Vustring@Glib@@@std@@QEAAXPEAVustring@Glib@@AEAV23@@Z
    ??$construct@Vustring@Glib@@AEBV12@@?$allocator@Vustring@Glib@@@std@@QEAAXPEAVustring@Glib@@AEBV23@@Z
    ??$destroy@U_Container_proxy@std@@@?$allocator@U_Container_proxy@std@@@std@@QEAAXPEAU_Container_proxy@1@@Z
    ??$construct@U_Container_proxy@std@@U12@@?$allocator@U_Container_proxy@std@@@std@@QEAAXPEAU_Container_proxy@1@$$QEAU21@@Z
    ??$_Addressof@PEBVWindow@Gtk@@@std@@YAPEAPEBVWindow@Gtk@@AEAPEBV12@U?$integral_constant@_N$0A@@0@@Z
    ??$destroy@PEBVWindow@Gtk@@@?$allocator_traits@V?$allocator@PEBVWindow@Gtk@@@std@@@std@@SAXAEAV?$allocator@PEBVWindow@Gtk@@@1@PEAPEBVWindow@Gtk@@@Z
    ??$_Addressof@PEAVWindow@Gtk@@@std@@YAPEAPEAVWindow@Gtk@@AEAPEAV12@U?$integral_constant@_N$0A@@0@@Z
    ??$destroy@PEAVWindow@Gtk@@@?$allocator_traits@V?$allocator@PEAVWindow@Gtk@@@std@@@std@@SAXAEAV?$allocator@PEAVWindow@Gtk@@@1@PEAPEAVWindow@Gtk@@@Z
    ??$_Unchecked@PEAVustring@Glib@@@std@@YAPEAVustring@Glib@@PEAV12@@Z
    ??$_Uninitialized_move_al_unchecked@PEAVustring@Glib@@PEAV12@U?$_Wrap_alloc@V?$allocator@Vustring@Glib@@@std@@@std@@@std@@YAPEAVustring@Glib@@PEAV12@00AEAU?$_Wrap_alloc@V?$allocator@Vustring@Glib@@@std@@@0@@Z
    ??$_Rechecked@PEAVustring@Glib@@PEAV12@@std@@YAAEAPEAVustring@Glib@@AEAPEAV12@PEAV12@@Z
    ??$_Addressof@Vustring@Glib@@@std@@YAPEAVustring@Glib@@AEAV12@U?$integral_constant@_N$0A@@0@@Z
    ??$destroy@Vustring@Glib@@@?$allocator_traits@V?$allocator@Vustring@Glib@@@std@@@std@@SAXAEAV?$allocator@Vustring@Glib@@@1@PEAVustring@Glib@@@Z
    ??$visit_each_type@PEAUtrackable@sigc@@Uslot_do_bind@internal@2@U?$bind_functor@$0?0V?$bound_mem_functor1@XVApplication@Gtk@@PEAVWindow@2@@sigc@@PEAVWindow@Gtk@@Unil@2@U52@U52@U52@U52@U52@@2@@sigc@@YAXAEBUslot_do_bind@internal@0@AEBU?$bind_functor@$0?0V?$bound_mem_functor1@XVApplication@Gtk@@PEAVWindow@2@@sigc@@PEAVWindow@Gtk@@Unil@2@U52@U52@U52@U52@U52@@0@@Z
    ??$?0$$V@?$_Compressed_pair@U?$_Wrap_alloc@V?$allocator@PEBVWindow@Gtk@@@std@@@std@@V?$_Vector_val@U?$_Simple_types@PEBVWindow@Gtk@@@std@@@2@$00@std@@QEAA@U_Zero_then_variadic_args_t@1@@Z
    ??$?0$$V@?$_Compressed_pair@U?$_Wrap_alloc@V?$allocator@PEAVWindow@Gtk@@@std@@@std@@V?$_Vector_val@U?$_Simple_types@PEAVWindow@Gtk@@@std@@@2@$00@std@@QEAA@U_Zero_then_variadic_args_t@1@@Z
    ??$visit_each_type@PEAUtrackable@sigc@@Uslot_do_unbind@internal@2@U?$bind_functor@$0?0V?$bound_mem_functor1@XVApplication@Gtk@@PEAVWindow@2@@sigc@@PEAVWindow@Gtk@@Unil@2@U52@U52@U52@U52@U52@@2@@sigc@@YAXAEBUslot_do_unbind@internal@0@AEBU?$bind_functor@$0?0V?$bound_mem_functor1@XVApplication@Gtk@@PEAVWindow@2@@sigc@@PEAVWindow@Gtk@@Unil@2@U52@U52@U52@U52@U52@@0@@Z
    ??$?RAEAPEAVWindow@Gtk@@@?$adaptor_functor@V?$bound_mem_functor1@XVApplication@Gtk@@PEAVWindow@2@@sigc@@@sigc@@QEBAXAEAPEAVWindow@Gtk@@@Z
    ??$_Construct@V?$ArrayIterator@U?$TypeTraits@Vustring@Glib@@@Container_Helpers@Glib@@@Container_Helpers@Glib@@@?$vector@Vustring@Glib@@V?$allocator@Vustring@Glib@@@std@@@std@@QEAAXV?$ArrayIterator@U?$TypeTraits@Vustring@Glib@@@Container_Helpers@Glib@@@Container_Helpers@Glib@@0@Z
    ??$_Iter_cat@V?$ListIterator@U?$TypeTraits@PEAVWindow@Gtk@@@Container_Helpers@Glib@@@Container_Helpers@Glib@@@std@@YA?AUforward_iterator_tag@0@AEBV?$ListIterator@U?$TypeTraits@PEAVWindow@Gtk@@@Container_Helpers@Glib@@@Container_Helpers@Glib@@@Z
    ??$_Construct@V?$ListIterator@U?$TypeTraits@PEAVWindow@Gtk@@@Container_Helpers@Glib@@@Container_Helpers@Glib@@@?$vector@PEAVWindow@Gtk@@V?$allocator@PEAVWindow@Gtk@@@std@@@std@@QEAAXV?$ListIterator@U?$TypeTraits@PEAVWindow@Gtk@@@Container_Helpers@Glib@@@Container_Helpers@Glib@@0Uforward_iterator_tag@1@@Z
    ??$_Iter_cat@V?$ListIterator@U?$TypeTraits@PEBVWindow@Gtk@@@Container_Helpers@Glib@@@Container_Helpers@Glib@@@std@@YA?AUforward_iterator_tag@0@AEBV?$ListIterator@U?$TypeTraits@PEBVWindow@Gtk@@@Container_Helpers@Glib@@@Container_Helpers@Glib@@@Z
    ??$_Construct@V?$ListIterator@U?$TypeTraits@PEBVWindow@Gtk@@@Container_Helpers@Glib@@@Container_Helpers@Glib@@@?$vector@PEBVWindow@Gtk@@V?$allocator@PEBVWindow@Gtk@@@std@@@std@@QEAAXV?$ListIterator@U?$TypeTraits@PEBVWindow@Gtk@@@Container_Helpers@Glib@@@Container_Helpers@Glib@@0Uforward_iterator_tag@1@@Z
    ??$destroy@PEBVWindow@Gtk@@@?$allocator@PEBVWindow@Gtk@@@std@@QEAAXPEAPEBVWindow@Gtk@@@Z
    ??$destroy@PEAVWindow@Gtk@@@?$allocator@PEAVWindow@Gtk@@@std@@QEAAXPEAPEAVWindow@Gtk@@@Z
    ??$_Ptr_move_cat@Vustring@Glib@@V12@@std@@YA?AU_General_ptr_iterator_tag@0@AEBQEAVustring@Glib@@0@Z
    ??$_Uninitialized_move_al_unchecked1@PEAVustring@Glib@@PEAV12@V?$allocator@Vustring@Glib@@@std@@@std@@YAPEAVustring@Glib@@PEAV12@00AEAU?$_Wrap_alloc@V?$allocator@Vustring@Glib@@@std@@@0@U_General_ptr_iterator_tag@0@@Z
    ??$destroy@Vustring@Glib@@@?$allocator@Vustring@Glib@@@std@@QEAAXPEAVustring@Glib@@@Z
    ??0?$limit_derived_target@PEAUtrackable@sigc@@Uslot_do_bind@internal@2@@internal@sigc@@QEAA@AEBUslot_do_bind@12@@Z
    ??$visit_each@U?$limit_derived_target@PEAUtrackable@sigc@@Uslot_do_bind@internal@2@@internal@sigc@@U?$bind_functor@$0?0V?$bound_mem_functor1@XVApplication@Gtk@@PEAVWindow@2@@sigc@@PEAVWindow@Gtk@@Unil@2@U52@U52@U52@U52@U52@@3@@sigc@@YAXAEBU?$limit_derived_target@PEAUtrackable@sigc@@Uslot_do_bind@internal@2@@internal@0@AEBU?$bind_functor@$0?0V?$bound_mem_functor1@XVApplication@Gtk@@PEAVWindow@2@@sigc@@PEAVWindow@Gtk@@Unil@2@U52@U52@U52@U52@U52@@0@@Z
    ??0?$limit_derived_target@PEAUtrackable@sigc@@Uslot_do_unbind@internal@2@@internal@sigc@@QEAA@AEBUslot_do_unbind@12@@Z
    ??$visit_each@U?$limit_derived_target@PEAUtrackable@sigc@@Uslot_do_unbind@internal@2@@internal@sigc@@U?$bind_functor@$0?0V?$bound_mem_functor1@XVApplication@Gtk@@PEAVWindow@2@@sigc@@PEAVWindow@Gtk@@Unil@2@U52@U52@U52@U52@U52@@3@@sigc@@YAXAEBU?$limit_derived_target@PEAUtrackable@sigc@@Uslot_do_unbind@internal@2@@internal@0@AEBU?$bind_functor@$0?0V?$bound_mem_functor1@XVApplication@Gtk@@PEAVWindow@2@@sigc@@PEAVWindow@Gtk@@Unil@2@U52@U52@U52@U52@U52@@0@@Z
    ??$_Iter_cat@V?$ArrayIterator@U?$TypeTraits@Vustring@Glib@@@Container_Helpers@Glib@@@Container_Helpers@Glib@@@std@@YA?AUrandom_access_iterator_tag@0@AEBV?$ArrayIterator@U?$TypeTraits@Vustring@Glib@@@Container_Helpers@Glib@@@Container_Helpers@Glib@@@Z
    ??$_Construct@V?$ArrayIterator@U?$TypeTraits@Vustring@Glib@@@Container_Helpers@Glib@@@Container_Helpers@Glib@@@?$vector@Vustring@Glib@@V?$allocator@Vustring@Glib@@@std@@@std@@QEAAXV?$ArrayIterator@U?$TypeTraits@Vustring@Glib@@@Container_Helpers@Glib@@@Container_Helpers@Glib@@0Uforward_iterator_tag@1@@Z
    ??$distance@V?$ListIterator@U?$TypeTraits@PEAVWindow@Gtk@@@Container_Helpers@Glib@@@Container_Helpers@Glib@@@std@@YA_JV?$ListIterator@U?$TypeTraits@PEAVWindow@Gtk@@@Container_Helpers@Glib@@@Container_Helpers@Glib@@0@Z
    ??$_Ucopy@V?$ListIterator@U?$TypeTraits@PEAVWindow@Gtk@@@Container_Helpers@Glib@@@Container_Helpers@Glib@@@?$vector@PEAVWindow@Gtk@@V?$allocator@PEAVWindow@Gtk@@@std@@@std@@IEAAPEAPEAVWindow@Gtk@@V?$ListIterator@U?$TypeTraits@PEAVWindow@Gtk@@@Container_Helpers@Glib@@@Container_Helpers@Glib@@0PEAPEAV23@@Z
    ??$distance@V?$ListIterator@U?$TypeTraits@PEBVWindow@Gtk@@@Container_Helpers@Glib@@@Container_Helpers@Glib@@@std@@YA_JV?$ListIterator@U?$TypeTraits@PEBVWindow@Gtk@@@Container_Helpers@Glib@@@Container_Helpers@Glib@@0@Z
    ??$_Ucopy@V?$ListIterator@U?$TypeTraits@PEBVWindow@Gtk@@@Container_Helpers@Glib@@@Container_Helpers@Glib@@@?$vector@PEBVWindow@Gtk@@V?$allocator@PEBVWindow@Gtk@@@std@@@std@@IEAAPEAPEBVWindow@Gtk@@V?$ListIterator@U?$TypeTraits@PEBVWindow@Gtk@@@Container_Helpers@Glib@@@Container_Helpers@Glib@@0PEAPEBV23@@Z
    ??$move@AEAVustring@Glib@@@std@@YA$$QEAVustring@Glib@@AEAV12@@Z
    ??$construct@Vustring@Glib@@V12@@?$_Wrap_alloc@V?$allocator@Vustring@Glib@@@std@@@std@@QEAAXPEAVustring@Glib@@$$QEAV23@@Z
    ??$do_visit_each@U?$limit_derived_target@PEAUtrackable@sigc@@Uslot_do_bind@internal@2@@internal@sigc@@@?$visitor@U?$bind_functor@$0?0V?$bound_mem_functor1@XVApplication@Gtk@@PEAVWindow@2@@sigc@@PEAVWindow@Gtk@@Unil@2@U52@U52@U52@U52@U52@@sigc@@@sigc@@SAXAEBU?$limit_derived_target@PEAUtrackable@sigc@@Uslot_do_bind@internal@2@@internal@1@AEBU?$bind_functor@$0?0V?$bound_mem_functor1@XVApplication@Gtk@@PEAVWindow@2@@sigc@@PEAVWindow@Gtk@@Unil@2@U52@U52@U52@U52@U52@@1@@Z
    ??$do_visit_each@U?$limit_derived_target@PEAUtrackable@sigc@@Uslot_do_unbind@internal@2@@internal@sigc@@@?$visitor@U?$bind_functor@$0?0V?$bound_mem_functor1@XVApplication@Gtk@@PEAVWindow@2@@sigc@@PEAVWindow@Gtk@@Unil@2@U52@U52@U52@U52@U52@@sigc@@@sigc@@SAXAEBU?$limit_derived_target@PEAUtrackable@sigc@@Uslot_do_unbind@internal@2@@internal@1@AEBU?$bind_functor@$0?0V?$bound_mem_functor1@XVApplication@Gtk@@PEAVWindow@2@@sigc@@PEAVWindow@Gtk@@Unil@2@U52@U52@U52@U52@U52@@1@@Z
    ??$distance@V?$ArrayIterator@U?$TypeTraits@Vustring@Glib@@@Container_Helpers@Glib@@@Container_Helpers@Glib@@@std@@YA_JV?$ArrayIterator@U?$TypeTraits@Vustring@Glib@@@Container_Helpers@Glib@@@Container_Helpers@Glib@@0@Z
    ??$_Ucopy@V?$ArrayIterator@U?$TypeTraits@Vustring@Glib@@@Container_Helpers@Glib@@@Container_Helpers@Glib@@@?$vector@Vustring@Glib@@V?$allocator@Vustring@Glib@@@std@@@std@@IEAAPEAVustring@Glib@@V?$ArrayIterator@U?$TypeTraits@Vustring@Glib@@@Container_Helpers@Glib@@@Container_Helpers@3@0PEAV23@@Z
    ??$_Distance2@V?$ListIterator@U?$TypeTraits@PEAVWindow@Gtk@@@Container_Helpers@Glib@@@Container_Helpers@Glib@@_J@std@@YAXV?$ListIterator@U?$TypeTraits@PEAVWindow@Gtk@@@Container_Helpers@Glib@@@Container_Helpers@Glib@@0AEA_JUforward_iterator_tag@0@@Z
    ??$_Uninitialized_copy@V?$ListIterator@U?$TypeTraits@PEAVWindow@Gtk@@@Container_Helpers@Glib@@@Container_Helpers@Glib@@PEAPEAVWindow@Gtk@@U?$_Wrap_alloc@V?$allocator@PEAVWindow@Gtk@@@std@@@std@@@std@@YAPEAPEAVWindow@Gtk@@V?$ListIterator@U?$TypeTraits@PEAVWindow@Gtk@@@Container_Helpers@Glib@@@Container_Helpers@Glib@@0PEAPEAV12@AEAU?$_Wrap_alloc@V?$allocator@PEAVWindow@Gtk@@@std@@@0@@Z
    ??$_Distance2@V?$ListIterator@U?$TypeTraits@PEBVWindow@Gtk@@@Container_Helpers@Glib@@@Container_Helpers@Glib@@_J@std@@YAXV?$ListIterator@U?$TypeTraits@PEBVWindow@Gtk@@@Container_Helpers@Glib@@@Container_Helpers@Glib@@0AEA_JUforward_iterator_tag@0@@Z
    ??$_Uninitialized_copy@V?$ListIterator@U?$TypeTraits@PEBVWindow@Gtk@@@Container_Helpers@Glib@@@Container_Helpers@Glib@@PEAPEBVWindow@Gtk@@U?$_Wrap_alloc@V?$allocator@PEBVWindow@Gtk@@@std@@@std@@@std@@YAPEAPEBVWindow@Gtk@@V?$ListIterator@U?$TypeTraits@PEBVWindow@Gtk@@@Container_Helpers@Glib@@@Container_Helpers@Glib@@0PEAPEBV12@AEAU?$_Wrap_alloc@V?$allocator@PEBVWindow@Gtk@@@std@@@0@@Z
    ??$forward@Vustring@Glib@@@std@@YA$$QEAVustring@Glib@@AEAV12@@Z
    ??$construct@Vustring@Glib@@V12@@?$allocator_traits@V?$allocator@Vustring@Glib@@@std@@@std@@SAXAEAV?$allocator@Vustring@Glib@@@1@PEAVustring@Glib@@$$QEAV34@@Z
    ??$visit_each@U?$limit_derived_target@PEAUtrackable@sigc@@Uslot_do_bind@internal@2@@internal@sigc@@U?$adaptor_functor@V?$bound_mem_functor1@XVApplication@Gtk@@PEAVWindow@2@@sigc@@@3@@sigc@@YAXAEBU?$limit_derived_target@PEAUtrackable@sigc@@Uslot_do_bind@internal@2@@internal@0@AEBU?$adaptor_functor@V?$bound_mem_functor1@XVApplication@Gtk@@PEAVWindow@2@@sigc@@@0@@Z
    ??$visit_each@U?$limit_derived_target@PEAUtrackable@sigc@@Uslot_do_bind@internal@2@@internal@sigc@@V?$bound_argument@PEAVWindow@Gtk@@@3@@sigc@@YAXAEBU?$limit_derived_target@PEAUtrackable@sigc@@Uslot_do_bind@internal@2@@internal@0@AEBV?$bound_argument@PEAVWindow@Gtk@@@0@@Z
    ??$visit_each@U?$limit_derived_target@PEAUtrackable@sigc@@Uslot_do_unbind@internal@2@@internal@sigc@@U?$adaptor_functor@V?$bound_mem_functor1@XVApplication@Gtk@@PEAVWindow@2@@sigc@@@3@@sigc@@YAXAEBU?$limit_derived_target@PEAUtrackable@sigc@@Uslot_do_unbind@internal@2@@internal@0@AEBU?$adaptor_functor@V?$bound_mem_functor1@XVApplication@Gtk@@PEAVWindow@2@@sigc@@@0@@Z
    ??$visit_each@U?$limit_derived_target@PEAUtrackable@sigc@@Uslot_do_unbind@internal@2@@internal@sigc@@V?$bound_argument@PEAVWindow@Gtk@@@3@@sigc@@YAXAEBU?$limit_derived_target@PEAUtrackable@sigc@@Uslot_do_unbind@internal@2@@internal@0@AEBV?$bound_argument@PEAVWindow@Gtk@@@0@@Z
    ??$_Distance2@V?$ArrayIterator@U?$TypeTraits@Vustring@Glib@@@Container_Helpers@Glib@@@Container_Helpers@Glib@@_J@std@@YAXV?$ArrayIterator@U?$TypeTraits@Vustring@Glib@@@Container_Helpers@Glib@@@Container_Helpers@Glib@@0AEA_JUrandom_access_iterator_tag@0@@Z
    ??$_Uninitialized_copy@V?$ArrayIterator@U?$TypeTraits@Vustring@Glib@@@Container_Helpers@Glib@@@Container_Helpers@Glib@@PEAVustring@3@U?$_Wrap_alloc@V?$allocator@Vustring@Glib@@@std@@@std@@@std@@YAPEAVustring@Glib@@V?$ArrayIterator@U?$TypeTraits@Vustring@Glib@@@Container_Helpers@Glib@@@Container_Helpers@2@0PEAV12@AEAU?$_Wrap_alloc@V?$allocator@Vustring@Glib@@@std@@@0@@Z
    ??$_Unchecked@V?$ListIterator@U?$TypeTraits@PEAVWindow@Gtk@@@Container_Helpers@Glib@@@Container_Helpers@Glib@@@std@@YA?AV?$ListIterator@U?$TypeTraits@PEAVWindow@Gtk@@@Container_Helpers@Glib@@@Container_Helpers@Glib@@V123@@Z
    ??$_Unchecked@PEAPEAVWindow@Gtk@@@std@@YAPEAPEAVWindow@Gtk@@PEAPEAV12@@Z
    ??$_Uninitialized_copy_al_unchecked@V?$ListIterator@U?$TypeTraits@PEAVWindow@Gtk@@@Container_Helpers@Glib@@@Container_Helpers@Glib@@PEAPEAVWindow@Gtk@@U?$_Wrap_alloc@V?$allocator@PEAVWindow@Gtk@@@std@@@std@@@std@@YAPEAPEAVWindow@Gtk@@V?$ListIterator@U?$TypeTraits@PEAVWindow@Gtk@@@Container_Helpers@Glib@@@Container_Helpers@Glib@@0PEAPEAV12@AEAU?$_Wrap_alloc@V?$allocator@PEAVWindow@Gtk@@@std@@@0@@Z
    ??$_Rechecked@PEAPEAVWindow@Gtk@@PEAPEAV12@@std@@YAAEAPEAPEAVWindow@Gtk@@AEAPEAPEAV12@PEAPEAV12@@Z
    ??$_Unchecked@V?$ListIterator@U?$TypeTraits@PEBVWindow@Gtk@@@Container_Helpers@Glib@@@Container_Helpers@Glib@@@std@@YA?AV?$ListIterator@U?$TypeTraits@PEBVWindow@Gtk@@@Container_Helpers@Glib@@@Container_Helpers@Glib@@V123@@Z
    ??$_Unchecked@PEAPEBVWindow@Gtk@@@std@@YAPEAPEBVWindow@Gtk@@PEAPEBV12@@Z
    ??$_Uninitialized_copy_al_unchecked@V?$ListIterator@U?$TypeTraits@PEBVWindow@Gtk@@@Container_Helpers@Glib@@@Container_Helpers@Glib@@PEAPEBVWindow@Gtk@@U?$_Wrap_alloc@V?$allocator@PEBVWindow@Gtk@@@std@@@std@@@std@@YAPEAPEBVWindow@Gtk@@V?$ListIterator@U?$TypeTraits@PEBVWindow@Gtk@@@Container_Helpers@Glib@@@Container_Helpers@Glib@@0PEAPEBV12@AEAU?$_Wrap_alloc@V?$allocator@PEBVWindow@Gtk@@@std@@@0@@Z
    ??$_Rechecked@PEAPEBVWindow@Gtk@@PEAPEBV12@@std@@YAAEAPEAPEBVWindow@Gtk@@AEAPEAPEBV12@PEAPEBV12@@Z
    ??$construct@Vustring@Glib@@V12@@?$allocator@Vustring@Glib@@@std@@QEAAXPEAVustring@Glib@@$$QEAV23@@Z
    ??$do_visit_each@U?$limit_derived_target@PEAUtrackable@sigc@@Uslot_do_bind@internal@2@@internal@sigc@@@?$visitor@U?$adaptor_functor@V?$bound_mem_functor1@XVApplication@Gtk@@PEAVWindow@2@@sigc@@@sigc@@@sigc@@SAXAEBU?$limit_derived_target@PEAUtrackable@sigc@@Uslot_do_bind@internal@2@@internal@1@AEBU?$adaptor_functor@V?$bound_mem_functor1@XVApplication@Gtk@@PEAVWindow@2@@sigc@@@1@@Z
    ??$do_visit_each@U?$limit_derived_target@PEAUtrackable@sigc@@Uslot_do_bind@internal@2@@internal@sigc@@@?$visitor@V?$bound_argument@PEAVWindow@Gtk@@@sigc@@@sigc@@SAXAEBU?$limit_derived_target@PEAUtrackable@sigc@@Uslot_do_bind@internal@2@@internal@1@AEBV?$bound_argument@PEAVWindow@Gtk@@@1@@Z
    ??$do_visit_each@U?$limit_derived_target@PEAUtrackable@sigc@@Uslot_do_unbind@internal@2@@internal@sigc@@@?$visitor@U?$adaptor_functor@V?$bound_mem_functor1@XVApplication@Gtk@@PEAVWindow@2@@sigc@@@sigc@@@sigc@@SAXAEBU?$limit_derived_target@PEAUtrackable@sigc@@Uslot_do_unbind@internal@2@@internal@1@AEBU?$adaptor_functor@V?$bound_mem_functor1@XVApplication@Gtk@@PEAVWindow@2@@sigc@@@1@@Z
    ??$do_visit_each@U?$limit_derived_target@PEAUtrackable@sigc@@Uslot_do_unbind@internal@2@@internal@sigc@@@?$visitor@V?$bound_argument@PEAVWindow@Gtk@@@sigc@@@sigc@@SAXAEBU?$limit_derived_target@PEAUtrackable@sigc@@Uslot_do_unbind@internal@2@@internal@1@AEBV?$bound_argument@PEAVWindow@Gtk@@@1@@Z
    ??$_Debug_pointer@V?$ArrayIterator@U?$TypeTraits@Vustring@Glib@@@Container_Helpers@Glib@@@Container_Helpers@Glib@@@std@@YAXAEAV?$ArrayIterator@U?$TypeTraits@Vustring@Glib@@@Container_Helpers@Glib@@@Container_Helpers@Glib@@PEB_WI@Z
    ??$_Unchecked@V?$ArrayIterator@U?$TypeTraits@Vustring@Glib@@@Container_Helpers@Glib@@@Container_Helpers@Glib@@@std@@YA?AV?$ArrayIterator@U?$TypeTraits@Vustring@Glib@@@Container_Helpers@Glib@@@Container_Helpers@Glib@@V123@@Z
    ??$_Uninitialized_copy_al_unchecked@V?$ArrayIterator@U?$TypeTraits@Vustring@Glib@@@Container_Helpers@Glib@@@Container_Helpers@Glib@@PEAVustring@3@U?$_Wrap_alloc@V?$allocator@Vustring@Glib@@@std@@@std@@@std@@YAPEAVustring@Glib@@V?$ArrayIterator@U?$TypeTraits@Vustring@Glib@@@Container_Helpers@Glib@@@Container_Helpers@2@0PEAV12@AEAU?$_Wrap_alloc@V?$allocator@Vustring@Glib@@@std@@@0@@Z
    ??$_Ptr_copy_cat@V?$ListIterator@U?$TypeTraits@PEAVWindow@Gtk@@@Container_Helpers@Glib@@@Container_Helpers@Glib@@PEAPEAVWindow@Gtk@@@std@@YA?AU_General_ptr_iterator_tag@0@AEBV?$ListIterator@U?$TypeTraits@PEAVWindow@Gtk@@@Container_Helpers@Glib@@@Container_Helpers@Glib@@AEBQEAPEAVWindow@Gtk@@@Z
    ??$_Uninitialized_copy_al_unchecked1@V?$ListIterator@U?$TypeTraits@PEAVWindow@Gtk@@@Container_Helpers@Glib@@@Container_Helpers@Glib@@PEAPEAVWindow@Gtk@@V?$allocator@PEAVWindow@Gtk@@@std@@@std@@YAPEAPEAVWindow@Gtk@@V?$ListIterator@U?$TypeTraits@PEAVWindow@Gtk@@@Container_Helpers@Glib@@@Container_Helpers@Glib@@0PEAPEAV12@AEAU?$_Wrap_alloc@V?$allocator@PEAVWindow@Gtk@@@std@@@0@U_General_ptr_iterator_tag@0@@Z
    ??$_Ptr_copy_cat@V?$ListIterator@U?$TypeTraits@PEBVWindow@Gtk@@@Container_Helpers@Glib@@@Container_Helpers@Glib@@PEAPEBVWindow@Gtk@@@std@@YA?AU_General_ptr_iterator_tag@0@AEBV?$ListIterator@U?$TypeTraits@PEBVWindow@Gtk@@@Container_Helpers@Glib@@@Container_Helpers@Glib@@AEBQEAPEBVWindow@Gtk@@@Z
    ??$_Uninitialized_copy_al_unchecked1@V?$ListIterator@U?$TypeTraits@PEBVWindow@Gtk@@@Container_Helpers@Glib@@@Container_Helpers@Glib@@PEAPEBVWindow@Gtk@@V?$allocator@PEBVWindow@Gtk@@@std@@@std@@YAPEAPEBVWindow@Gtk@@V?$ListIterator@U?$TypeTraits@PEBVWindow@Gtk@@@Container_Helpers@Glib@@@Container_Helpers@Glib@@0PEAPEBV12@AEAU?$_Wrap_alloc@V?$allocator@PEBVWindow@Gtk@@@std@@@0@U_General_ptr_iterator_tag@0@@Z
    ??$visit_each@U?$limit_derived_target@PEAUtrackable@sigc@@Uslot_do_bind@internal@2@@internal@sigc@@V?$bound_mem_functor1@XVApplication@Gtk@@PEAVWindow@2@@3@@sigc@@YAXAEBU?$limit_derived_target@PEAUtrackable@sigc@@Uslot_do_bind@internal@2@@internal@0@AEBV?$bound_mem_functor1@XVApplication@Gtk@@PEAVWindow@2@@0@@Z
    ??$visit_each@U?$limit_derived_target@PEAUtrackable@sigc@@Uslot_do_bind@internal@2@@internal@sigc@@PEAVWindow@Gtk@@@sigc@@YAXAEBU?$limit_derived_target@PEAUtrackable@sigc@@Uslot_do_bind@internal@2@@internal@0@AEBQEAVWindow@Gtk@@@Z
    ??$visit_each@U?$limit_derived_target@PEAUtrackable@sigc@@Uslot_do_unbind@internal@2@@internal@sigc@@V?$bound_mem_functor1@XVApplication@Gtk@@PEAVWindow@2@@3@@sigc@@YAXAEBU?$limit_derived_target@PEAUtrackable@sigc@@Uslot_do_unbind@internal@2@@internal@0@AEBV?$bound_mem_functor1@XVApplication@Gtk@@PEAVWindow@2@@0@@Z
    ??$visit_each@U?$limit_derived_target@PEAUtrackable@sigc@@Uslot_do_unbind@internal@2@@internal@sigc@@PEAVWindow@Gtk@@@sigc@@YAXAEBU?$limit_derived_target@PEAUtrackable@sigc@@Uslot_do_unbind@internal@2@@internal@0@AEBQEAVWindow@Gtk@@@Z
    ??$_Ptr_copy_cat@V?$ArrayIterator@U?$TypeTraits@Vustring@Glib@@@Container_Helpers@Glib@@@Container_Helpers@Glib@@PEAVustring@3@@std@@YA?AU_General_ptr_iterator_tag@0@AEBV?$ArrayIterator@U?$TypeTraits@Vustring@Glib@@@Container_Helpers@Glib@@@Container_Helpers@Glib@@AEBQEAVustring@4@@Z
    ??$_Uninitialized_copy_al_unchecked1@V?$ArrayIterator@U?$TypeTraits@Vustring@Glib@@@Container_Helpers@Glib@@@Container_Helpers@Glib@@PEAVustring@3@V?$allocator@Vustring@Glib@@@std@@@std@@YAPEAVustring@Glib@@V?$ArrayIterator@U?$TypeTraits@Vustring@Glib@@@Container_Helpers@Glib@@@Container_Helpers@2@0PEAV12@AEAU?$_Wrap_alloc@V?$allocator@Vustring@Glib@@@std@@@0@U_General_ptr_iterator_tag@0@@Z
    ??$construct@PEAVWindow@Gtk@@PEAV12@@?$_Wrap_alloc@V?$allocator@PEAVWindow@Gtk@@@std@@@std@@QEAAXPEAPEAVWindow@Gtk@@$$QEAPEAV23@@Z
    ??$construct@PEBVWindow@Gtk@@PEBV12@@?$_Wrap_alloc@V?$allocator@PEBVWindow@Gtk@@@std@@@std@@QEAAXPEAPEBVWindow@Gtk@@$$QEAPEBV23@@Z
    ??$do_visit_each@U?$limit_derived_target@PEAUtrackable@sigc@@Uslot_do_bind@internal@2@@internal@sigc@@@?$visitor@V?$bound_mem_functor1@XVApplication@Gtk@@PEAVWindow@2@@sigc@@@sigc@@SAXAEBU?$limit_derived_target@PEAUtrackable@sigc@@Uslot_do_bind@internal@2@@internal@1@AEBV?$bound_mem_functor1@XVApplication@Gtk@@PEAVWindow@2@@1@@Z
    ??$do_visit_each@U?$limit_derived_target@PEAUtrackable@sigc@@Uslot_do_bind@internal@2@@internal@sigc@@@?$visitor@PEAVWindow@Gtk@@@sigc@@SAXAEBU?$limit_derived_target@PEAUtrackable@sigc@@Uslot_do_bind@internal@2@@internal@1@AEBQEAVWindow@Gtk@@@Z
    ??$do_visit_each@U?$limit_derived_target@PEAUtrackable@sigc@@Uslot_do_unbind@internal@2@@internal@sigc@@@?$visitor@V?$bound_mem_functor1@XVApplication@Gtk@@PEAVWindow@2@@sigc@@@sigc@@SAXAEBU?$limit_derived_target@PEAUtrackable@sigc@@Uslot_do_unbind@internal@2@@internal@1@AEBV?$bound_mem_functor1@XVApplication@Gtk@@PEAVWindow@2@@1@@Z
    ??$do_visit_each@U?$limit_derived_target@PEAUtrackable@sigc@@Uslot_do_unbind@internal@2@@internal@sigc@@@?$visitor@PEAVWindow@Gtk@@@sigc@@SAXAEBU?$limit_derived_target@PEAUtrackable@sigc@@Uslot_do_unbind@internal@2@@internal@1@AEBQEAVWindow@Gtk@@@Z
    ??$forward@PEAVWindow@Gtk@@@std@@YA$$QEAPEAVWindow@Gtk@@AEAPEAV12@@Z
    ??$construct@PEAVWindow@Gtk@@PEAV12@@?$allocator_traits@V?$allocator@PEAVWindow@Gtk@@@std@@@std@@SAXAEAV?$allocator@PEAVWindow@Gtk@@@1@PEAPEAVWindow@Gtk@@$$QEAPEAV34@@Z
    ??$forward@PEBVWindow@Gtk@@@std@@YA$$QEAPEBVWindow@Gtk@@AEAPEBV12@@Z
    ??$construct@PEBVWindow@Gtk@@PEBV12@@?$allocator_traits@V?$allocator@PEBVWindow@Gtk@@@std@@@std@@SAXAEAV?$allocator@PEBVWindow@Gtk@@@1@PEAPEBVWindow@Gtk@@$$QEAPEBV34@@Z
    ??$visit_each@U?$limit_derived_target@PEAUtrackable@sigc@@Uslot_do_bind@internal@2@@internal@sigc@@V?$limit_reference@VApplication@Gtk@@$00@3@@sigc@@YAXAEBU?$limit_derived_target@PEAUtrackable@sigc@@Uslot_do_bind@internal@2@@internal@0@AEBV?$limit_reference@VApplication@Gtk@@$00@0@@Z
    ??$?RPEAVWindow@Gtk@@@?$limit_derived_target@PEAUtrackable@sigc@@Uslot_do_bind@internal@2@@internal@sigc@@QEBAXAEBQEAVWindow@Gtk@@@Z
    ??$visit_each@U?$limit_derived_target@PEAUtrackable@sigc@@Uslot_do_unbind@internal@2@@internal@sigc@@V?$limit_reference@VApplication@Gtk@@$00@3@@sigc@@YAXAEBU?$limit_derived_target@PEAUtrackable@sigc@@Uslot_do_unbind@internal@2@@internal@0@AEBV?$limit_reference@VApplication@Gtk@@$00@0@@Z
    ??$?RPEAVWindow@Gtk@@@?$limit_derived_target@PEAUtrackable@sigc@@Uslot_do_unbind@internal@2@@internal@sigc@@QEBAXAEBQEAVWindow@Gtk@@@Z
    ??$construct@PEAVWindow@Gtk@@PEAV12@@?$allocator@PEAVWindow@Gtk@@@std@@QEAAXPEAPEAVWindow@Gtk@@$$QEAPEAV23@@Z
    ??$construct@PEBVWindow@Gtk@@PEBV12@@?$allocator@PEBVWindow@Gtk@@@std@@QEAAXPEAPEBVWindow@Gtk@@$$QEAPEBV23@@Z
    ??$do_visit_each@U?$limit_derived_target@PEAUtrackable@sigc@@Uslot_do_bind@internal@2@@internal@sigc@@@?$visitor@V?$limit_reference@VApplication@Gtk@@$00@sigc@@@sigc@@SAXAEBU?$limit_derived_target@PEAUtrackable@sigc@@Uslot_do_bind@internal@2@@internal@1@AEBV?$limit_reference@VApplication@Gtk@@$00@1@@Z
    ?execute_@?$with_type_pointer@$0A@PEAVWindow@Gtk@@U?$limit_derived_target@PEAUtrackable@sigc@@Uslot_do_bind@internal@2@@internal@sigc@@@internal@sigc@@SAXAEBQEAVWindow@Gtk@@AEBU?$limit_derived_target@PEAUtrackable@sigc@@Uslot_do_bind@internal@2@@23@@Z
    ??$do_visit_each@U?$limit_derived_target@PEAUtrackable@sigc@@Uslot_do_unbind@internal@2@@internal@sigc@@@?$visitor@V?$limit_reference@VApplication@Gtk@@$00@sigc@@@sigc@@SAXAEBU?$limit_derived_target@PEAUtrackable@sigc@@Uslot_do_unbind@internal@2@@internal@1@AEBV?$limit_reference@VApplication@Gtk@@$00@1@@Z
    ?execute_@?$with_type_pointer@$0A@PEAVWindow@Gtk@@U?$limit_derived_target@PEAUtrackable@sigc@@Uslot_do_unbind@internal@2@@internal@sigc@@@internal@sigc@@SAXAEBQEAVWindow@Gtk@@AEBU?$limit_derived_target@PEAUtrackable@sigc@@Uslot_do_unbind@internal@2@@23@@Z
    ??$visit_each@U?$limit_derived_target@PEAUtrackable@sigc@@Uslot_do_bind@internal@2@@internal@sigc@@Utrackable@3@@sigc@@YAXAEBU?$limit_derived_target@PEAUtrackable@sigc@@Uslot_do_bind@internal@2@@internal@0@AEBUtrackable@0@@Z
    ??$visit_each@U?$limit_derived_target@PEAUtrackable@sigc@@Uslot_do_unbind@internal@2@@internal@sigc@@Utrackable@3@@sigc@@YAXAEBU?$limit_derived_target@PEAUtrackable@sigc@@Uslot_do_unbind@internal@2@@internal@0@AEBUtrackable@0@@Z
    ??$do_visit_each@U?$limit_derived_target@PEAUtrackable@sigc@@Uslot_do_bind@internal@2@@internal@sigc@@@?$visitor@Utrackable@sigc@@@sigc@@SAXAEBU?$limit_derived_target@PEAUtrackable@sigc@@Uslot_do_bind@internal@2@@internal@1@AEBUtrackable@1@@Z
    ??$do_visit_each@U?$limit_derived_target@PEAUtrackable@sigc@@Uslot_do_unbind@internal@2@@internal@sigc@@@?$visitor@Utrackable@sigc@@@sigc@@SAXAEBU?$limit_derived_target@PEAUtrackable@sigc@@Uslot_do_unbind@internal@2@@internal@1@AEBUtrackable@1@@Z
    ??$?RUtrackable@sigc@@@?$limit_derived_target@PEAUtrackable@sigc@@Uslot_do_bind@internal@2@@internal@sigc@@QEBAXAEBUtrackable@2@@Z
    ??$?RUtrackable@sigc@@@?$limit_derived_target@PEAUtrackable@sigc@@Uslot_do_unbind@internal@2@@internal@sigc@@QEBAXAEBUtrackable@2@@Z
    ?execute_@?$with_type_pointer@$00Utrackable@sigc@@U?$limit_derived_target@PEAUtrackable@sigc@@Uslot_do_bind@internal@2@@internal@2@@internal@sigc@@SAXAEBUtrackable@3@AEBU?$limit_derived_target@PEAUtrackable@sigc@@Uslot_do_bind@internal@2@@23@@Z
    ?execute_@?$with_type_pointer@$00Utrackable@sigc@@U?$limit_derived_target@PEAUtrackable@sigc@@Uslot_do_unbind@internal@2@@internal@2@@internal@sigc@@SAXAEBUtrackable@3@AEBU?$limit_derived_target@PEAUtrackable@sigc@@Uslot_do_unbind@internal@2@@23@@Z
    ??_C@_1GG@JLKIFLPB@?$AAD?$AA?3?$AA?2?$AAG?$AAi?$AAt?$AAH?$AAu?$AAb?$AA?2?$AAI?$AAn?$AAs?$AAt?$AAa?$AAl?$AAl?$AA?2?$AAV?$AAi?$AAs?$AAu?$AAa?$AAl?$AAS?$AAt?$AAu?$AAd?$AAi?$AAo?$AA?2?$AAV@
    ??_C@_1DC@POOIKBAO@?$AAI?$AAT?$AAE?$AAR?$AAA?$AAT?$AAO?$AAR?$AA?5?$AAL?$AAI?$AAS?$AAT?$AA?5?$AAC?$AAO?$AAR?$AAR?$AAU?$AAP?$AAT?$AAE?$AAD?$AA?$CB?$AA?$AA@
    ??_C@_0BE@LMNLACIC@_Ptr_container?5?$CB?$DN?50?$AA@
    ??_C@_1DG@HGDKEBPG@?$AA?$CC?$AA_?$AAP?$AAt?$AAr?$AA_?$AAc?$AAo?$AAn?$AAt?$AAa?$AAi?$AAn?$AAe?$AAr?$AA?5?$AA?$CB?$AA?$DN?$AA?5?$AA0?$AA?$CC?$AA?5?$AA?$CG?$AA?$CG?$AA?5?$AA0?$AA?$AA@
    ??_C@_17CNPHIMPH@?$AA?$CF?$AAl?$AAs?$AA?$AA@
    ??_C@_1GG@GGEDIOFC@?$AAD?$AA?3?$AA?2?$AAG?$AAi?$AAt?$AAH?$AAu?$AAb?$AA?2?$AAI?$AAn?$AAs?$AAt?$AAa?$AAl?$AAl?$AA?2?$AAV?$AAi?$AAs?$AAu?$AAa?$AAl?$AAS?$AAt?$AAu?$AAd?$AAi?$AAo?$AA?2?$AAV@
    ??_C@_1BO@NKFMJPA@?$AAs?$AAt?$AAd?$AA?3?$AA?3?$AA_?$AAA?$AAl?$AAl?$AAo?$AAc?$AAa?$AAt?$AAe?$AA?$AA@
    ??_C@_1CG@JNLFBNGN@?$AA?$CC?$AAi?$AAn?$AAv?$AAa?$AAl?$AAi?$AAd?$AA?5?$AAa?$AAr?$AAg?$AAu?$AAm?$AAe?$AAn?$AAt?$AA?$CC?$AA?$AA@
    ??_C@_09GLJCAGLP@_Ptr?5?$CB?$DN?50?$AA@
    ??_C@_1CC@GKJLLHIM@?$AA?$CC?$AA_?$AAP?$AAt?$AAr?$AA?5?$AA?$CB?$AA?$DN?$AA?5?$AA0?$AA?$CC?$AA?5?$AA?$CG?$AA?$CG?$AA?5?$AA0?$AA?$AA@
    ??_C@_0BN@HMCJOMKN@_Count?5?$DM?$DN?5?$CIsize_t?$CJ?$CI?91?$CJ?5?1?5_Sz?$AA@
    ??_C@_1EI@MLOBABC@?$AA?$CC?$AA_?$AAC?$AAo?$AAu?$AAn?$AAt?$AA?5?$AA?$DM?$AA?$DN?$AA?5?$AA?$CI?$AAs?$AAi?$AAz?$AAe?$AA_?$AAt?$AA?$CJ?$AA?$CI?$AA?9?$AA1?$AA?$CJ?$AA?5?$AA?1?$AA?5?$AA_?$AAS?$AAz?$AA?$CC?$AA?5?$AA?$CG@
    ??_C@_1CC@LOFJFFDB@?$AAs?$AAt?$AAd?$AA?3?$AA?3?$AA_?$AAD?$AAe?$AAa?$AAl?$AAl?$AAo?$AAc?$AAa?$AAt?$AAe?$AA?$AA@
    ??_C@_0DD@GBGGGKGG@?$CI_Ptr_user?5?$CG?5?$CI_BIG_ALLOCATION_AL@
    ??_C@_1HE@CDMBFOKC@?$AA?$CC?$AA?$CI?$AA_?$AAP?$AAt?$AAr?$AA_?$AAu?$AAs?$AAe?$AAr?$AA?5?$AA?$CG?$AA?5?$AA?$CI?$AA_?$AAB?$AAI?$AAG?$AA_?$AAA?$AAL?$AAL?$AAO?$AAC?$AAA?$AAT?$AAI?$AAO?$AAN?$AA_?$AAA@
    ??_C@_0EI@NOJHEJCJ@reinterpret_cast?$DMuintptr_t?5?$CK?$DO?$CI_P@
    ??_C@_1JO@EKLKIEHP@?$AA?$CC?$AAr?$AAe?$AAi?$AAn?$AAt?$AAe?$AAr?$AAp?$AAr?$AAe?$AAt?$AA_?$AAc?$AAa?$AAs?$AAt?$AA?$DM?$AAu?$AAi?$AAn?$AAt?$AAp?$AAt?$AAr?$AA_?$AAt?$AA?5?$AA?$CK?$AA?$DO?$AA?$CI?$AA_@
    ??_C@_0BL@OCKMEJON@_Ptr_container?5?$DM?5_Ptr_user?$AA@
    ??_C@_1EE@PDHAHDDC@?$AA?$CC?$AA_?$AAP?$AAt?$AAr?$AA_?$AAc?$AAo?$AAn?$AAt?$AAa?$AAi?$AAn?$AAe?$AAr?$AA?5?$AA?$DM?$AA?5?$AA_?$AAP?$AAt?$AAr?$AA_?$AAu?$AAs?$AAe?$AAr?$AA?$CC?$AA?5?$AA?$CG?$AA?$CG?$AA?5@
    ??_C@_0DB@GLFJLNCE@2?5?$CK?5sizeof?$CIvoid?5?$CK?$CJ?5?$DM?$DN?5_Ptr_user?5@
    ??_C@_1HA@NAPGMHAO@?$AA?$CC?$AA2?$AA?5?$AA?$CK?$AA?5?$AAs?$AAi?$AAz?$AAe?$AAo?$AAf?$AA?$CI?$AAv?$AAo?$AAi?$AAd?$AA?5?$AA?$CK?$AA?$CJ?$AA?5?$AA?$DM?$AA?$DN?$AA?5?$AA_?$AAP?$AAt?$AAr?$AA_?$AAu?$AAs?$AAe?$AAr@
    ??_C@_0CN@BLHJCAL@_Ptr_user?5?9?5_Ptr_container?5?$DM?$DN?5_N@
    ??_C@_1GI@DHJGPFNI@?$AA?$CC?$AA_?$AAP?$AAt?$AAr?$AA_?$AAu?$AAs?$AAe?$AAr?$AA?5?$AA?9?$AA?5?$AA_?$AAP?$AAt?$AAr?$AA_?$AAc?$AAo?$AAn?$AAt?$AAa?$AAi?$AAn?$AAe?$AAr?$AA?5?$AA?$DM?$AA?$DN?$AA?5?$AA_@
    ??_7Application@Gtk@@6BActionGroup@Gio@@@
    ??_7Application@Gtk@@6BActionMap@Gio@@@
    ??_7Application@Gtk@@6B@
    ??_8Application@Gtk@@7BObject@Glib@@@
    ??_8Application@Gtk@@7BInterface@Glib@@ActionGroup@Gio@@@
    ??_8Application@Gtk@@7BInterface@Glib@@ActionMap@Gio@@@
    ??_8Application@Gtk@@7BObjectBase@Glib@@@
    ??_R0?AVObjectBase@Glib@@@8
    ??_R0?AVApplication@Gtk@@@8
    ??_C@_0CE@OFMIGAMM@Standard?5C?$CL?$CL?5Libraries?5Out?5of?5Ra@
    ??_C@_1FG@IBPIFFN@?$AA?$CC?$AAS?$AAt?$AAa?$AAn?$AAd?$AAa?$AAr?$AAd?$AA?5?$AAC?$AA?$CL?$AA?$CL?$AA?5?$AAL?$AAi?$AAb?$AAr?$AAa?$AAr?$AAi?$AAe?$AAs?$AA?5?$AAO?$AAu?$AAt?$AA?5?$AAo?$AAf?$AA?5?$AAR@
    ??_C@_1BO@MEPPHOO@?$AA?$CC?$AAo?$AAu?$AAt?$AA?5?$AAo?$AAf?$AA?5?$AAr?$AAa?$AAn?$AAg?$AAe?$AA?$CC?$AA?$AA@
    ??_C@_0BD@OLBABOEK@vector?$DMT?$DO?5too?5long?$AA@
    ??_C@_1GC@GDINDADF@?$AAD?$AA?3?$AA?2?$AAG?$AAi?$AAt?$AAH?$AAu?$AAb?$AA?2?$AAI?$AAn?$AAs?$AAt?$AAa?$AAl?$AAl?$AA?2?$AAV?$AAi?$AAs?$AAu?$AAa?$AAl?$AAS?$AAt?$AAu?$AAd?$AAi?$AAo?$AA?2?$AAV@
    ??_C@_1EE@EJDKCLKB@?$AAv?$AAe?$AAc?$AAt?$AAo?$AAr?$AA?5?$AAi?$AAt?$AAe?$AAr?$AAa?$AAt?$AAo?$AAr?$AA?5?$AAn?$AAo?$AAt?$AA?5?$AAi?$AAn?$AAc?$AAr?$AAe?$AAm?$AAe?$AAn?$AAt?$AAa?$AAb?$AAl@
    ??_C@_1OG@NIJLJENJ@?$AAs?$AAt?$AAd?$AA?3?$AA?3?$AA_?$AAV?$AAe?$AAc?$AAt?$AAo?$AAr?$AA_?$AAc?$AAo?$AAn?$AAs?$AAt?$AA_?$AAi?$AAt?$AAe?$AAr?$AAa?$AAt?$AAo?$AAr?$AA?$DM?$AAc?$AAl?$AAa?$AAs@
    ??_C@_1EG@FOHJJHAC@?$AAv?$AAe?$AAc?$AAt?$AAo?$AAr?$AA?5?$AAi?$AAt?$AAe?$AAr?$AAa?$AAt?$AAo?$AAr?$AA?5?$AAn?$AAo?$AAt?$AA?5?$AAd?$AAe?$AAr?$AAe?$AAf?$AAe?$AAr?$AAe?$AAn?$AAc?$AAa?$AAb@
    ??_C@_1OE@HIGHLMEG@?$AAs?$AAt?$AAd?$AA?3?$AA?3?$AA_?$AAV?$AAe?$AAc?$AAt?$AAo?$AAr?$AA_?$AAc?$AAo?$AAn?$AAs?$AAt?$AA_?$AAi?$AAt?$AAe?$AAr?$AAa?$AAt?$AAo?$AAr?$AA?$DM?$AAc?$AAl?$AAa?$AAs@
    ??_R0?AVWindow@Gtk@@@8
    ??_R4Application@Gtk@@6BActionGroup@Gio@@@
    ??_R3Application@Gtk@@8
    ??_R2Application@Gtk@@8
    ??_R1A@?0A@EA@Application@Gtk@@8
    ??_R1A@?0A@EA@Application@Gio@@8
    ??_R0?AVApplication@Gio@@@8
    ??_R3Application@Gio@@8
    ??_R2Application@Gio@@8
    ??_R1CA@?0A@EA@Object@Glib@@8
    ??_R0?AVObject@Glib@@@8
    ??_R3Object@Glib@@8
    ??_R2Object@Glib@@8
    ??_R1A@?0A@EA@Object@Glib@@8
    ??_R1A@A@7FA@ObjectBase@Glib@@8
    ??_R3ObjectBase@Glib@@8
    ??_R2ObjectBase@Glib@@8
    ??_R1A@?0A@EA@ObjectBase@Glib@@8
    ??_R1A@73FA@trackable@sigc@@8
    ??_R0?AUtrackable@sigc@@@8
    ??_R3trackable@sigc@@8
    ??_R2trackable@sigc@@8
    ??_R1A@?0A@EA@trackable@sigc@@8
    ??_R1A@A@3FA@trackable@sigc@@8
    ??_R1A@CA@7FA@ObjectBase@Glib@@8
    ??_R1A@CA@3FA@trackable@sigc@@8
    ??_R1A@?0A@EA@ActionGroup@Gio@@8
    ??_R0?AVActionGroup@Gio@@@8
    ??_R3ActionGroup@Gio@@8
    ??_R2ActionGroup@Gio@@8
    ??_R17?0A@EA@Interface@Glib@@8
    ??_R0?AVInterface@Glib@@@8
    ??_R3Interface@Glib@@8
    ??_R2Interface@Glib@@8
    ??_R1A@?0A@EA@Interface@Glib@@8
    ??_R1A@77FA@ObjectBase@Glib@@8
    ??_R17?0A@EC@Interface@Glib@@8
    ??_R1BA@?0A@EA@ActionMap@Gio@@8
    ??_R0?AVActionMap@Gio@@@8
    ??_R3ActionMap@Gio@@8
    ??_R2ActionMap@Gio@@8
    ??_R1A@?0A@EA@ActionMap@Gio@@8
    ??_R1BI@?0A@EC@Interface@Glib@@8
    ??_R4Application@Gtk@@6BActionMap@Gio@@@
    ??_R4Application@Gtk@@6B@
    ?applicationwindow_class_@ApplicationWindow@Gtk@@0VApplicationWindow_Class@2@A
    ?__empty_global_delete@@YAXPEAX@Z
    ?__empty_global_delete@@YAXPEAX_K@Z
    ?get_type@Class@Glib@@QEBA_KXZ
    ?gobj@Application@Gtk@@QEAAPEAU_GtkApplication@@XZ
    ??0ApplicationWindow@Gtk@@IEAA@AEBVConstructParams@Glib@@@Z
    ??0ApplicationWindow@Gtk@@IEAA@PEAU_GtkApplicationWindow@@@Z
    ??1ApplicationWindow@Gtk@@UEAA@XZ
    ?get_type@ApplicationWindow@Gtk@@SA_KXZ
    ?get_base_type@ApplicationWindow@Gtk@@SA_KXZ
    ?gobj@ApplicationWindow@Gtk@@QEAAPEAU_GtkApplicationWindow@@XZ
    ?gobj@ApplicationWindow@Gtk@@QEBAPEBU_GtkApplicationWindow@@XZ
    ?gobj_copy@ApplicationWindow@Gtk@@QEAAPEAU_GtkApplicationWindow@@XZ
    ??0ApplicationWindow@Gtk@@QEAA@XZ
    ??0ApplicationWindow@Gtk@@QEAA@AEBV?$RefPtr@VApplication@Gtk@@@Glib@@@Z
    ?set_show_menubar@ApplicationWindow@Gtk@@QEAAX_N@Z
    ?get_show_menubar@ApplicationWindow@Gtk@@QEBA_NXZ
    ?get_id@ApplicationWindow@Gtk@@QEBAIXZ
    ?property_show_menubar@ApplicationWindow@Gtk@@QEAA?AV?$PropertyProxy@_N@Glib@@XZ
    ?property_show_menubar@ApplicationWindow@Gtk@@QEBA?AV?$PropertyProxy_ReadOnly@_N@Glib@@XZ
    ??_DApplicationWindow@Gtk@@QEAAXXZ
    ?wrap@Glib@@YA?AV?$RefPtr@VApplicationWindow@Gtk@@@1@PEAU_GtkApplicationWindow@@_N@Z
    ?init@ApplicationWindow_Class@Gtk@@QEAAAEBVClass@Glib@@XZ
    ?class_init_function@ApplicationWindow_Class@Gtk@@SAXPEAX0@Z
    ?wrap_new@ApplicationWindow_Class@Gtk@@SAPEAVObjectBase@Glib@@PEAU_GObject@@@Z
    ??0?$RefPtr@VApplicationWindow@Gtk@@@Glib@@QEAA@PEAVApplicationWindow@Gtk@@@Z
    ??C?$RefPtr@VApplication@Gtk@@@Glib@@QEBAPEAVApplication@Gtk@@XZ
    ??B?$RefPtr@VApplication@Gtk@@@Glib@@QEBA_NXZ
    ??$unwrap@VApplication@Gtk@@@Glib@@YAPEAU_GtkApplication@@AEBV?$RefPtr@VApplication@Gtk@@@0@@Z
    ??0?$PropertyProxy@_N@Glib@@QEAA@PEAVObjectBase@1@PEBD@Z
    ??0?$PropertyProxy_ReadOnly@_N@Glib@@QEAA@PEBVObjectBase@1@PEBD@Z
    ?destroy_notify_@Object@Gtk@@$2PPPPPPPM@DA@EAAXXZ
    ?set_manage@Window@Gtk@@$4PPPPPPPM@CA@EAAXXZ
    ??_7ApplicationWindow@Gtk@@6BImplementor@Atk@@@
    ??_7ApplicationWindow@Gtk@@6BActionGroup@Gio@@@
    ??_7ApplicationWindow@Gtk@@6BActionMap@Gio@@@
    ??_7ApplicationWindow@Gtk@@6B@
    ??_8ApplicationWindow@Gtk@@7BObject@Glib@@@
    ??_8ApplicationWindow@Gtk@@7BInterface@Glib@@Buildable@1@@
    ??_8ApplicationWindow@Gtk@@7BInterface@Glib@@Implementor@Atk@@@
    ??_8ApplicationWindow@Gtk@@7BInterface@Glib@@ActionGroup@Gio@@@
    ??_8ApplicationWindow@Gtk@@7BInterface@Glib@@ActionMap@Gio@@@
    ??_8ApplicationWindow@Gtk@@7BObjectBase@Glib@@@
    ??_R0?AVObjectBase@Glib@@@8
    ??_R0?AVApplicationWindow@Gtk@@@8
    ??_R4ApplicationWindow@Gtk@@6BImplementor@Atk@@@
    ??_R3ApplicationWindow@Gtk@@8
    ??_R2ApplicationWindow@Gtk@@8
    ??_R1A@?0A@EA@ApplicationWindow@Gtk@@8
    ??_R1A@?0A@EA@Window@Gtk@@8
    ??_R0?AVWindow@Gtk@@@8
    ??_R3Window@Gtk@@8
    ??_R2Window@Gtk@@8
    ??_R1A@?0A@EA@Bin@Gtk@@8
    ??_R0?AVBin@Gtk@@@8
    ??_R3Bin@Gtk@@8
    ??_R2Bin@Gtk@@8
    ??_R1A@?0A@EA@Container@Gtk@@8
    ??_R0?AVContainer@Gtk@@@8
    ??_R3Container@Gtk@@8
    ??_R2Container@Gtk@@8
    ??_R1A@?0A@EA@Widget@Gtk@@8
    ??_R0?AVWidget@Gtk@@@8
    ??_R3Widget@Gtk@@8
    ??_R2Widget@Gtk@@8
    ??_R1BA@?0A@EA@Object@Gtk@@8
    ??_R0?AVObject@Gtk@@@8
    ??_R3Object@Gtk@@8
    ??_R2Object@Gtk@@8
    ??_R1A@?0A@EA@Object@Gtk@@8
    ??_R1A@?0A@EA@Object@Glib@@8
    ??_R0?AVObject@Glib@@@8
    ??_R3Object@Glib@@8
    ??_R2Object@Glib@@8
    ??_R1A@A@7FA@ObjectBase@Glib@@8
    ??_R3ObjectBase@Glib@@8
    ??_R2ObjectBase@Glib@@8
    ??_R1A@?0A@EA@ObjectBase@Glib@@8
    ??_R1A@73FA@trackable@sigc@@8
    ??_R0?AUtrackable@sigc@@@8
    ??_R3trackable@sigc@@8
    ??_R2trackable@sigc@@8
    ??_R1A@?0A@EA@trackable@sigc@@8
    ??_R1A@A@3FA@trackable@sigc@@8
    ??_R1BA@?0A@EA@Object@Glib@@8
    ??_R1A@BA@7FA@ObjectBase@Glib@@8
    ??_R1A@BA@3FA@trackable@sigc@@8
    ??_R1CA@?0A@EA@Buildable@Gtk@@8
    ??_R0?AVBuildable@Gtk@@@8
    ??_R3Buildable@Gtk@@8
    ??_R2Buildable@Gtk@@8
    ??_R1A@?0A@EA@Buildable@Gtk@@8
    ??_R1A@?0A@EA@Interface@Glib@@8
    ??_R0?AVInterface@Glib@@@8
    ??_R3Interface@Glib@@8
    ??_R2Interface@Glib@@8
    ??_R1CA@?0A@EC@Interface@Glib@@8
    ??_R1A@?0A@EA@Implementor@Atk@@8
    ??_R0?AVImplementor@Atk@@@8
    ??_R3Implementor@Atk@@8
    ??_R2Implementor@Atk@@8
    ??_R17?0A@EA@Interface@Glib@@8
    ??_R1A@77FA@ObjectBase@Glib@@8
    ??_R17?0A@EC@Interface@Glib@@8
    ??_R1DA@?0A@EA@ActionGroup@Gio@@8
    ??_R0?AVActionGroup@Gio@@@8
    ??_R3ActionGroup@Gio@@8
    ??_R2ActionGroup@Gio@@8
    ??_R1A@?0A@EA@ActionGroup@Gio@@8
    ??_R1DI@?0A@EC@Interface@Glib@@8
    ??_R1EA@?0A@EA@ActionMap@Gio@@8
    ??_R0?AVActionMap@Gio@@@8
    ??_R3ActionMap@Gio@@8
    ??_R2ActionMap@Gio@@8
    ??_R1A@?0A@EA@ActionMap@Gio@@8
    ??_R1EI@?0A@EC@Interface@Glib@@8
    ??_R4ApplicationWindow@Gtk@@6BActionGroup@Gio@@@
    ??_R4ApplicationWindow@Gtk@@6BActionMap@Gio@@@
    ??_R4ApplicationWindow@Gtk@@6B@
    ?arrow_class_@Arrow@Gtk@@0VArrow_Class@2@A
    ?__empty_global_delete@@YAXPEAX@Z
    ?__empty_global_delete@@YAXPEAX_K@Z
    ?get_type@Class@Glib@@QEBA_KXZ
    ??1Arrow@Gtk@@UEAA@XZ
    ??0Arrow@Gtk@@IEAA@AEBVConstructParams@Glib@@@Z
    ??0Arrow@Gtk@@IEAA@PEAU_GtkArrow@@@Z
    ?get_type@Arrow@Gtk@@SA_KXZ
    ?get_base_type@Arrow@Gtk@@SA_KXZ
    ?gobj@Arrow@Gtk@@QEAAPEAU_GtkArrow@@XZ
    ??0Arrow@Gtk@@QEAA@W4ArrowType@1@W4ShadowType@1@@Z
    ?set@Arrow@Gtk@@QEAAXW4ArrowType@2@W4ShadowType@2@@Z
    ?property_arrow_type@Arrow@Gtk@@QEAA?AV?$PropertyProxy@W4ArrowType@Gtk@@@Glib@@XZ
    ?property_arrow_type@Arrow@Gtk@@QEBA?AV?$PropertyProxy_ReadOnly@W4ArrowType@Gtk@@@Glib@@XZ
    ?property_shadow_type@Arrow@Gtk@@QEAA?AV?$PropertyProxy@W4ShadowType@Gtk@@@Glib@@XZ
    ?property_shadow_type@Arrow@Gtk@@QEBA?AV?$PropertyProxy_ReadOnly@W4ShadowType@Gtk@@@Glib@@XZ
    ??_DArrow@Gtk@@QEAAXXZ
    ?wrap@Glib@@YAPEAVArrow@Gtk@@PEAU_GtkArrow@@_N@Z
    ?init@Arrow_Class@Gtk@@QEAAAEBVClass@Glib@@XZ
    ?class_init_function@Arrow_Class@Gtk@@SAXPEAX0@Z
    ?wrap_new@Arrow_Class@Gtk@@SAPEAVObjectBase@Glib@@PEAU_GObject@@@Z
    ??$manage@VArrow@Gtk@@@Gtk@@YAPEAVArrow@0@PEAV10@@Z
    ??0?$PropertyProxy@W4ArrowType@Gtk@@@Glib@@QEAA@PEAVObjectBase@1@PEBD@Z
    ??0?$PropertyProxy_ReadOnly@W4ArrowType@Gtk@@@Glib@@QEAA@PEBVObjectBase@1@PEBD@Z
    ??0?$PropertyProxy@W4ShadowType@Gtk@@@Glib@@QEAA@PEAVObjectBase@1@PEBD@Z
    ??0?$PropertyProxy_ReadOnly@W4ShadowType@Gtk@@@Glib@@QEAA@PEBVObjectBase@1@PEBD@Z
    ?destroy_notify_@Object@Gtk@@$2PPPPPPPM@7EAAXXZ
    ?set_manage@Object@Gtk@@$4PPPPPPPM@7EAAXXZ
    ??_7Arrow@Gtk@@6BImplementor@Atk@@@
    ??_7Arrow@Gtk@@6B@
    ??_8Arrow@Gtk@@7BObject@Glib@@@
    ??_8Arrow@Gtk@@7BInterface@Glib@@Buildable@1@@
    ??_8Arrow@Gtk@@7BInterface@Glib@@Implementor@Atk@@@
    ??_8Arrow@Gtk@@7BObjectBase@Glib@@@
    ??_R0?AVObjectBase@Glib@@@8
    ??_R0?AVArrow@Gtk@@@8
    ??_R4Arrow@Gtk@@6BImplementor@Atk@@@
    ??_R3Arrow@Gtk@@8
    ??_R2Arrow@Gtk@@8
    ??_R1A@?0A@EA@Arrow@Gtk@@8
    ??_R1A@?0A@EA@Misc@Gtk@@8
    ??_R0?AVMisc@Gtk@@@8
    ??_R3Misc@Gtk@@8
    ??_R2Misc@Gtk@@8
    ??_R1A@?0A@EA@Widget@Gtk@@8
    ??_R0?AVWidget@Gtk@@@8
    ??_R3Widget@Gtk@@8
    ??_R2Widget@Gtk@@8
    ??_R1BA@?0A@EA@Object@Gtk@@8
    ??_R0?AVObject@Gtk@@@8
    ??_R3Object@Gtk@@8
    ??_R2Object@Gtk@@8
    ??_R1A@?0A@EA@Object@Gtk@@8
    ??_R1A@?0A@EA@Object@Glib@@8
    ??_R0?AVObject@Glib@@@8
    ??_R3Object@Glib@@8
    ??_R2Object@Glib@@8
    ??_R1A@A@7FA@ObjectBase@Glib@@8
    ??_R3ObjectBase@Glib@@8
    ??_R2ObjectBase@Glib@@8
    ??_R1A@?0A@EA@ObjectBase@Glib@@8
    ??_R1A@73FA@trackable@sigc@@8
    ??_R0?AUtrackable@sigc@@@8
    ??_R3trackable@sigc@@8
    ??_R2trackable@sigc@@8
    ??_R1A@?0A@EA@trackable@sigc@@8
    ??_R1A@A@3FA@trackable@sigc@@8
    ??_R1BA@?0A@EA@Object@Glib@@8
    ??_R1A@BA@7FA@ObjectBase@Glib@@8
    ??_R1A@BA@3FA@trackable@sigc@@8
    ??_R1CA@?0A@EA@Buildable@Gtk@@8
    ??_R0?AVBuildable@Gtk@@@8
    ??_R3Buildable@Gtk@@8
    ??_R2Buildable@Gtk@@8
    ??_R1A@?0A@EA@Buildable@Gtk@@8
    ??_R1A@?0A@EA@Interface@Glib@@8
    ??_R0?AVInterface@Glib@@@8
    ??_R3Interface@Glib@@8
    ??_R2Interface@Glib@@8
    ??_R1CA@?0A@EC@Interface@Glib@@8
    ??_R1A@?0A@EA@Implementor@Atk@@8
    ??_R0?AVImplementor@Atk@@@8
    ??_R3Implementor@Atk@@8
    ??_R2Implementor@Atk@@8
    ??_R17?0A@EA@Interface@Glib@@8
    ??_R1A@77FA@ObjectBase@Glib@@8
    ??_R17?0A@EC@Interface@Glib@@8
    ??_R4Arrow@Gtk@@6B@
    ?aspectframe_class_@AspectFrame@Gtk@@0VAspectFrame_Class@2@A
    ?__empty_global_delete@@YAXPEAX@Z
    ?__empty_global_delete@@YAXPEAX_K@Z
    ?get_type@Class@Glib@@QEBA_KXZ
    ??1AspectFrame@Gtk@@UEAA@XZ
    ??0AspectFrame@Gtk@@IEAA@AEBVConstructParams@Glib@@@Z
    ??0AspectFrame@Gtk@@IEAA@PEAU_GtkAspectFrame@@@Z
    ?get_type@AspectFrame@Gtk@@SA_KXZ
    ?get_base_type@AspectFrame@Gtk@@SA_KXZ
    ?gobj@AspectFrame@Gtk@@QEAAPEAU_GtkAspectFrame@@XZ
    ??0AspectFrame@Gtk@@QEAA@AEBVustring@Glib@@W4Align@1@1M_N@Z
    ??0AspectFrame@Gtk@@QEAA@AEBVustring@Glib@@MMM_N@Z
    ?set@AspectFrame@Gtk@@QEAAXMMM_N@Z
    ?set@AspectFrame@Gtk@@QEAAXW4Align@2@0M_N@Z
    ?property_xalign@AspectFrame@Gtk@@QEAA?AV?$PropertyProxy@M@Glib@@XZ
    ?property_xalign@AspectFrame@Gtk@@QEBA?AV?$PropertyProxy_ReadOnly@M@Glib@@XZ
    ?property_yalign@AspectFrame@Gtk@@QEAA?AV?$PropertyProxy@M@Glib@@XZ
    ?property_yalign@AspectFrame@Gtk@@QEBA?AV?$PropertyProxy_ReadOnly@M@Glib@@XZ
    ?property_ratio@AspectFrame@Gtk@@QEAA?AV?$PropertyProxy@M@Glib@@XZ
    ?property_ratio@AspectFrame@Gtk@@QEBA?AV?$PropertyProxy_ReadOnly@M@Glib@@XZ
    ?property_obey_child@AspectFrame@Gtk@@QEAA?AV?$PropertyProxy@_N@Glib@@XZ
    ?property_obey_child@AspectFrame@Gtk@@QEBA?AV?$PropertyProxy_ReadOnly@_N@Glib@@XZ
    ??_DAspectFrame@Gtk@@QEAAXXZ
    ?wrap@Glib@@YAPEAVAspectFrame@Gtk@@PEAU_GtkAspectFrame@@_N@Z
    ?init@AspectFrame_Class@Gtk@@QEAAAEBVClass@Glib@@XZ
    ?class_init_function@AspectFrame_Class@Gtk@@SAXPEAX0@Z
    ?wrap_new@AspectFrame_Class@Gtk@@SAPEAVObjectBase@Glib@@PEAU_GObject@@@Z
    ??$manage@VAspectFrame@Gtk@@@Gtk@@YAPEAVAspectFrame@0@PEAV10@@Z
    ??0?$PropertyProxy@M@Glib@@QEAA@PEAVObjectBase@1@PEBD@Z
    ??0?$PropertyProxy_ReadOnly@M@Glib@@QEAA@PEBVObjectBase@1@PEBD@Z
    ??0?$PropertyProxy@_N@Glib@@QEAA@PEAVObjectBase@1@PEBD@Z
    ??0?$PropertyProxy_ReadOnly@_N@Glib@@QEAA@PEBVObjectBase@1@PEBD@Z
    ?destroy_notify_@Object@Gtk@@$2PPPPPPPM@7EAAXXZ
    ?set_manage@Object@Gtk@@$4PPPPPPPM@7EAAXXZ
    ??_7AspectFrame@Gtk@@6BImplementor@Atk@@@
    ??_7AspectFrame@Gtk@@6B@
    ??_8AspectFrame@Gtk@@7BObject@Glib@@@
    ??_8AspectFrame@Gtk@@7BInterface@Glib@@Buildable@1@@
    ??_8AspectFrame@Gtk@@7BInterface@Glib@@Implementor@Atk@@@
    ??_8AspectFrame@Gtk@@7BObjectBase@Glib@@@
    ??_R0?AVObjectBase@Glib@@@8
    ??_R0?AVAspectFrame@Gtk@@@8
    ??_R4AspectFrame@Gtk@@6BImplementor@Atk@@@
    ??_R3AspectFrame@Gtk@@8
    ??_R2AspectFrame@Gtk@@8
    ??_R1A@?0A@EA@AspectFrame@Gtk@@8
    ??_R1A@?0A@EA@Frame@Gtk@@8
    ??_R0?AVFrame@Gtk@@@8
    ??_R3Frame@Gtk@@8
    ??_R2Frame@Gtk@@8
    ??_R1A@?0A@EA@Bin@Gtk@@8
    ??_R0?AVBin@Gtk@@@8
    ??_R3Bin@Gtk@@8
    ??_R2Bin@Gtk@@8
    ??_R1A@?0A@EA@Container@Gtk@@8
    ??_R0?AVContainer@Gtk@@@8
    ??_R3Container@Gtk@@8
    ??_R2Container@Gtk@@8
    ??_R1A@?0A@EA@Widget@Gtk@@8
    ??_R0?AVWidget@Gtk@@@8
    ??_R3Widget@Gtk@@8
    ??_R2Widget@Gtk@@8
    ??_R1BA@?0A@EA@Object@Gtk@@8
    ??_R0?AVObject@Gtk@@@8
    ??_R3Object@Gtk@@8
    ??_R2Object@Gtk@@8
    ??_R1A@?0A@EA@Object@Gtk@@8
    ??_R1A@?0A@EA@Object@Glib@@8
    ??_R0?AVObject@Glib@@@8
    ??_R3Object@Glib@@8
    ??_R2Object@Glib@@8
    ??_R1A@A@7FA@ObjectBase@Glib@@8
    ??_R3ObjectBase@Glib@@8
    ??_R2ObjectBase@Glib@@8
    ??_R1A@?0A@EA@ObjectBase@Glib@@8
    ??_R1A@73FA@trackable@sigc@@8
    ??_R0?AUtrackable@sigc@@@8
    ??_R3trackable@sigc@@8
    ??_R2trackable@sigc@@8
    ??_R1A@?0A@EA@trackable@sigc@@8
    ??_R1A@A@3FA@trackable@sigc@@8
    ??_R1BA@?0A@EA@Object@Glib@@8
    ??_R1A@BA@7FA@ObjectBase@Glib@@8
    ??_R1A@BA@3FA@trackable@sigc@@8
    ??_R1CA@?0A@EA@Buildable@Gtk@@8
    ??_R0?AVBuildable@Gtk@@@8
    ??_R3Buildable@Gtk@@8
    ??_R2Buildable@Gtk@@8
    ??_R1A@?0A@EA@Buildable@Gtk@@8
    ??_R1A@?0A@EA@Interface@Glib@@8
    ??_R0?AVInterface@Glib@@@8
    ??_R3Interface@Glib@@8
    ??_R2Interface@Glib@@8
    ??_R1CA@?0A@EC@Interface@Glib@@8
    ??_R1A@?0A@EA@Implementor@Atk@@8
    ??_R0?AVImplementor@Atk@@@8
    ??_R3Implementor@Atk@@8
    ??_R2Implementor@Atk@@8
    ??_R17?0A@EA@Interface@Glib@@8
    ??_R1A@77FA@ObjectBase@Glib@@8
    ??_R17?0A@EC@Interface@Glib@@8
    ??_R4AspectFrame@Gtk@@6B@
    ?assistant_class_@Assistant@Gtk@@0VAssistant_Class@2@A
    ?__empty_global_delete@@YAXPEAX@Z
    ?__empty_global_delete@@YAXPEAX_K@Z
    ?get_type@Class@Glib@@QEBA_KXZ
    ?data_to_slot@SignalProxyBase@Glib@@SAPEAVslot_base@sigc@@PEAX@Z
    ?convert_const_gchar_ptr_to_ustring@Glib@@YA?AVustring@1@PEBD@Z
    ?gobj@Pixbuf@Gdk@@QEAAPEAU_GdkPixbuf@@XZ
    ?gobj@Widget@Gtk@@QEAAPEAU_GtkWidget@@XZ
    ?gobj@Widget@Gtk@@QEBAPEBU_GtkWidget@@XZ
    ?value_type@?$Value@W4AssistantPageType@Gtk@@@Glib@@SA_KXZ
    ??1Assistant@Gtk@@UEAA@XZ
    ??0Assistant@Gtk@@IEAA@AEBVConstructParams@Glib@@@Z
    ??0Assistant@Gtk@@IEAA@PEAU_GtkAssistant@@@Z
    ?get_type@Assistant@Gtk@@SA_KXZ
    ?get_base_type@Assistant@Gtk@@SA_KXZ
    ?gobj@Assistant@Gtk@@QEAAPEAU_GtkAssistant@@XZ
    ?gobj@Assistant@Gtk@@QEBAPEBU_GtkAssistant@@XZ
    ?on_prepare@Assistant@Gtk@@MEAAXPEAVWidget@2@@Z
    ?on_apply@Assistant@Gtk@@MEAAXXZ
    ?on_close@Assistant@Gtk@@MEAAXXZ
    ?on_cancel@Assistant@Gtk@@MEAAXXZ
    ??0Assistant@Gtk@@QEAA@XZ
    ?next_page@Assistant@Gtk@@QEAAXXZ
    ?previous_page@Assistant@Gtk@@QEAAXXZ
    ?get_current_page@Assistant@Gtk@@QEBAHXZ
    ?set_current_page@Assistant@Gtk@@QEAAXH@Z
    ?get_n_pages@Assistant@Gtk@@QEBAHXZ
    ?get_nth_page@Assistant@Gtk@@QEAAPEAVWidget@2@H@Z
    ?get_nth_page@Assistant@Gtk@@QEBAPEBVWidget@2@H@Z
    ?prepend_page@Assistant@Gtk@@QEAAHAEAVWidget@2@@Z
    ?append_page@Assistant@Gtk@@QEAAHAEAVWidget@2@@Z
    ?insert_page@Assistant@Gtk@@QEAAHAEAVWidget@2@H@Z
    ?remove_page@Assistant@Gtk@@QEAAXH@Z
    ?set_forward_page_func@Assistant@Gtk@@QEAAXAEBV?$slot@HHUnil@sigc@@U12@U12@U12@U12@U12@@sigc@@@Z
    ?set_page_type@Assistant@Gtk@@QEAAXAEBVWidget@2@W4AssistantPageType@2@@Z
    ?get_page_type@Assistant@Gtk@@QEBA?AW4AssistantPageType@2@AEBVWidget@2@@Z
    ?set_page_title@Assistant@Gtk@@QEAAXAEBVWidget@2@AEBVustring@Glib@@@Z
    ?get_page_title@Assistant@Gtk@@QEBA?AVustring@Glib@@AEBVWidget@2@@Z
    ?set_page_header_image@Assistant@Gtk@@QEAAXAEBVWidget@2@AEBV?$RefPtr@VPixbuf@Gdk@@@Glib@@@Z
    ?get_page_header_image@Assistant@Gtk@@QEAA?AV?$RefPtr@VPixbuf@Gdk@@@Glib@@AEBVWidget@2@@Z
    ?get_page_header_image@Assistant@Gtk@@QEBA?AV?$RefPtr@$$CBVPixbuf@Gdk@@@Glib@@AEBVWidget@2@@Z
    ?set_page_side_image@Assistant@Gtk@@QEAAXAEBVWidget@2@AEBV?$RefPtr@VPixbuf@Gdk@@@Glib@@@Z
    ?get_page_side_image@Assistant@Gtk@@QEAA?AV?$RefPtr@VPixbuf@Gdk@@@Glib@@AEBVWidget@2@@Z
    ?get_page_side_image@Assistant@Gtk@@QEBA?AV?$RefPtr@$$CBVPixbuf@Gdk@@@Glib@@AEBVWidget@2@@Z
    ?set_page_complete@Assistant@Gtk@@QEAAXAEBVWidget@2@_N@Z
    ?get_page_complete@Assistant@Gtk@@QEBA_NAEBVWidget@2@@Z
    ?add_action_widget@Assistant@Gtk@@QEAAXAEAVWidget@2@@Z
    ?remove_action_widget@Assistant@Gtk@@QEAAXAEAVWidget@2@@Z
    ?update_buttons_state@Assistant@Gtk@@QEAAXXZ
    ?commit@Assistant@Gtk@@QEAAXXZ
    ?signal_prepare@Assistant@Gtk@@QEAA?AV?$SignalProxy1@XPEAVWidget@Gtk@@@Glib@@XZ
    ?signal_apply@Assistant@Gtk@@QEAA?AV?$SignalProxy0@X@Glib@@XZ
    ?signal_close@Assistant@Gtk@@QEAA?AV?$SignalProxy0@X@Glib@@XZ
    ?signal_cancel@Assistant@Gtk@@QEAA?AV?$SignalProxy0@X@Glib@@XZ
    ?property_use_header_bar@Assistant@Gtk@@QEBA?AV?$PropertyProxy_ReadOnly@_N@Glib@@XZ
    ??_DAssistant@Gtk@@QEAAXXZ
    ?wrap@Glib@@YAPEAVAssistant@Gtk@@PEAU_GtkAssistant@@_N@Z
    ?init@Assistant_Class@Gtk@@QEAAAEBVClass@Glib@@XZ
    ?class_init_function@Assistant_Class@Gtk@@SAXPEAX0@Z
    ?wrap_new@Assistant_Class@Gtk@@SAPEAVObjectBase@Glib@@PEAU_GObject@@@Z
    ?prepare_callback@Assistant_Class@Gtk@@KAXPEAU_GtkAssistant@@PEAU_GtkWidget@@@Z
    ?apply_callback@Assistant_Class@Gtk@@KAXPEAU_GtkAssistant@@@Z
    ?close_callback@Assistant_Class@Gtk@@KAXPEAU_GtkAssistant@@@Z
    ?cancel_callback@Assistant_Class@Gtk@@KAXPEAU_GtkAssistant@@@Z
    ??R?$slot1@HH@sigc@@QEBAHAEBH@Z
    ??0?$slot1@HH@sigc@@QEAA@AEBV01@@Z
    ??1?$slot1@HH@sigc@@QEAA@XZ
    ??0?$slot@HHUnil@sigc@@U12@U12@U12@U12@U12@@sigc@@QEAA@AEBV01@@Z
    ??1?$slot@HHUnil@sigc@@U12@U12@U12@U12@U12@@sigc@@QEAA@XZ
    ??R?$slot1@XPEAVWidget@Gtk@@@sigc@@QEBAXAEBQEAVWidget@Gtk@@@Z
    ??$unwrap@VPixbuf@Gdk@@@Glib@@YAPEAU_GdkPixbuf@@AEBV?$RefPtr@VPixbuf@Gdk@@@0@@Z
    ??1?$RefPtr@VPixbuf@Gdk@@@Glib@@QEAA@XZ
    ??C?$RefPtr@VPixbuf@Gdk@@@Glib@@QEBAPEAVPixbuf@Gdk@@XZ
    ??B?$RefPtr@VPixbuf@Gdk@@@Glib@@QEBA_NXZ
    ?release@?$RefPtr@VPixbuf@Gdk@@@Glib@@QEAAPEAVPixbuf@Gdk@@XZ
    ??$?0VPixbuf@Gdk@@@?$RefPtr@$$CBVPixbuf@Gdk@@@Glib@@QEAA@$$QEAV?$RefPtr@VPixbuf@Gdk@@@1@@Z
    ??0?$SignalProxy1@XPEAVWidget@Gtk@@@Glib@@QEAA@PEAVObjectBase@1@PEBUSignalProxyInfo@1@@Z
    ??0?$SignalProxy0@X@Glib@@QEAA@PEAVObjectBase@1@PEBUSignalProxyInfo@1@@Z
    ??0?$PropertyProxy_ReadOnly@_N@Glib@@QEAA@PEBVObjectBase@1@PEBD@Z
    ??$unwrap@VWidget@Gtk@@@Glib@@YAPEAU_GtkWidget@@PEAVWidget@Gtk@@@Z
    ?destroy_notify_@Object@Gtk@@$2PPPPPPPM@BA@EAAXXZ
    ?set_manage@Window@Gtk@@$4PPPPPPPM@A@EAAXXZ
    ??_7Assistant@Gtk@@6BImplementor@Atk@@@
    ??_7Assistant@Gtk@@6B@
    ??_8Assistant@Gtk@@7BObject@Glib@@@
    ??_8Assistant@Gtk@@7BInterface@Glib@@Buildable@1@@
    ??_8Assistant@Gtk@@7BInterface@Glib@@Implementor@Atk@@@
    ??_8Assistant@Gtk@@7BObjectBase@Glib@@@
    ??_R0?AVObjectBase@Glib@@@8
    ??_R0?AVAssistant@Gtk@@@8
    ??_R4Assistant@Gtk@@6BImplementor@Atk@@@
    ??_R3Assistant@Gtk@@8
    ??_R2Assistant@Gtk@@8
    ??_R1A@?0A@EA@Assistant@Gtk@@8
    ??_R1A@?0A@EA@Window@Gtk@@8
    ??_R0?AVWindow@Gtk@@@8
    ??_R3Window@Gtk@@8
    ??_R2Window@Gtk@@8
    ??_R1A@?0A@EA@Bin@Gtk@@8
    ??_R0?AVBin@Gtk@@@8
    ??_R3Bin@Gtk@@8
    ??_R2Bin@Gtk@@8
    ??_R1A@?0A@EA@Container@Gtk@@8
    ??_R0?AVContainer@Gtk@@@8
    ??_R3Container@Gtk@@8
    ??_R2Container@Gtk@@8
    ??_R1A@?0A@EA@Widget@Gtk@@8
    ??_R0?AVWidget@Gtk@@@8
    ??_R3Widget@Gtk@@8
    ??_R2Widget@Gtk@@8
    ??_R1BA@?0A@EA@Object@Gtk@@8
    ??_R0?AVObject@Gtk@@@8
    ??_R3Object@Gtk@@8
    ??_R2Object@Gtk@@8
    ??_R1A@?0A@EA@Object@Gtk@@8
    ??_R1A@?0A@EA@Object@Glib@@8
    ??_R0?AVObject@Glib@@@8
    ??_R3Object@Glib@@8
    ??_R2Object@Glib@@8
    ??_R1A@A@7FA@ObjectBase@Glib@@8
    ??_R3ObjectBase@Glib@@8
    ??_R2ObjectBase@Glib@@8
    ??_R1A@?0A@EA@ObjectBase@Glib@@8
    ??_R1A@73FA@trackable@sigc@@8
    ??_R0?AUtrackable@sigc@@@8
    ??_R3trackable@sigc@@8
    ??_R2trackable@sigc@@8
    ??_R1A@?0A@EA@trackable@sigc@@8
    ??_R1A@A@3FA@trackable@sigc@@8
    ??_R1BA@?0A@EA@Object@Glib@@8
    ??_R1A@BA@7FA@ObjectBase@Glib@@8
    ??_R1A@BA@3FA@trackable@sigc@@8
    ??_R1CA@?0A@EA@Buildable@Gtk@@8
    ??_R0?AVBuildable@Gtk@@@8
    ??_R3Buildable@Gtk@@8
    ??_R2Buildable@Gtk@@8
    ??_R1A@?0A@EA@Buildable@Gtk@@8
    ??_R1A@?0A@EA@Interface@Glib@@8
    ??_R0?AVInterface@Glib@@@8
    ??_R3Interface@Glib@@8
    ??_R2Interface@Glib@@8
    ??_R1CA@?0A@EC@Interface@Glib@@8
    ??_R1A@?0A@EA@Implementor@Atk@@8
    ??_R0?AVImplementor@Atk@@@8
    ??_R3Implementor@Atk@@8
    ??_R2Implementor@Atk@@8
    ??_R17?0A@EA@Interface@Glib@@8
    ??_R1A@77FA@ObjectBase@Glib@@8
    ??_R17?0A@EC@Interface@Glib@@8
    ??_R4Assistant@Gtk@@6B@
    ?bin_class_@Bin@Gtk@@0VBin_Class@2@A
    ?__empty_global_delete@@YAXPEAX@Z
    ?__empty_global_delete@@YAXPEAX_K@Z
    ?get_type@Class@Glib@@QEBA_KXZ
    ?gobj@Widget@Gtk@@QEAAPEAU_GtkWidget@@XZ
    ?gobj@Container@Gtk@@QEAAPEAU_GtkContainer@@XZ
    ??1Bin@Gtk@@UEAA@XZ
    ??0Bin@Gtk@@IEAA@AEBVConstructParams@Glib@@@Z
    ??0Bin@Gtk@@IEAA@PEAU_GtkBin@@@Z
    ?get_type@Bin@Gtk@@SA_KXZ
    ?get_base_type@Bin@Gtk@@SA_KXZ
    ?gobj@Bin@Gtk@@QEAAPEAU_GtkBin@@XZ
    ?gobj@Bin@Gtk@@QEBAPEBU_GtkBin@@XZ
    ??0Bin@Gtk@@IEAA@XZ
    ?get_child@Bin@Gtk@@QEAAPEAVWidget@2@XZ
    ?get_child@Bin@Gtk@@QEBAPEBVWidget@2@XZ
    ?remove@Bin@Gtk@@QEAAXXZ
    ?add_label@Bin@Gtk@@QEAAXAEBVustring@Glib@@_NNN@Z
    ?add_label@Bin@Gtk@@QEAAXAEBVustring@Glib@@_NW4Align@2@2@Z
    ?add_pixlabel@Bin@Gtk@@QEAAXAEBV?$basic_string@DU?$char_traits@D@std@@V?$allocator@D@2@@std@@AEBVustring@Glib@@NN@Z
    ?add_pixlabel@Bin@Gtk@@QEAAXAEBV?$basic_string@DU?$char_traits@D@std@@V?$allocator@D@2@@std@@AEBVustring@Glib@@W4Align@2@2@Z
    ??_DBin@Gtk@@QEAAXXZ
    ?wrap@Glib@@YAPEAVBin@Gtk@@PEAU_GtkBin@@_N@Z
    ?init@Bin_Class@Gtk@@QEAAAEBVClass@Glib@@XZ
    ?class_init_function@Bin_Class@Gtk@@SAXPEAX0@Z
    ?wrap_new@Bin_Class@Gtk@@SAPEAVObjectBase@Glib@@PEAU_GObject@@@Z
    ??$manage@VLabel@Gtk@@@Gtk@@YAPEAVLabel@0@PEAV10@@Z
    ??$manage@VImage@Gtk@@@Gtk@@YAPEAVImage@0@PEAV10@@Z
    ??$manage@VBox@Gtk@@@Gtk@@YAPEAVBox@0@PEAV10@@Z
    ??$manage@VBin@Gtk@@@Gtk@@YAPEAVBin@0@PEAV10@@Z
    ?destroy_notify_@Object@Gtk@@$2PPPPPPPM@7EAAXXZ
    ?set_manage@Object@Gtk@@$4PPPPPPPM@7EAAXXZ
    ??_7Bin@Gtk@@6BImplementor@Atk@@@
    ??_7Bin@Gtk@@6B@
    ??_8Bin@Gtk@@7BObject@Glib@@@
    ??_8Bin@Gtk@@7BInterface@Glib@@Buildable@1@@
    ??_8Bin@Gtk@@7BInterface@Glib@@Implementor@Atk@@@
    ??_8Bin@Gtk@@7BObjectBase@Glib@@@
    ??_R0?AVObjectBase@Glib@@@8
    ??_R0?AVBin@Gtk@@@8
    ??_R4Bin@Gtk@@6BImplementor@Atk@@@
    ??_R3Bin@Gtk@@8
    ??_R2Bin@Gtk@@8
    ??_R1A@?0A@EA@Bin@Gtk@@8
    ??_R1A@?0A@EA@Container@Gtk@@8
    ??_R0?AVContainer@Gtk@@@8
    ??_R3Container@Gtk@@8
    ??_R2Container@Gtk@@8
    ??_R1A@?0A@EA@Widget@Gtk@@8
    ??_R0?AVWidget@Gtk@@@8
    ??_R3Widget@Gtk@@8
    ??_R2Widget@Gtk@@8
    ??_R1BA@?0A@EA@Object@Gtk@@8
    ??_R0?AVObject@Gtk@@@8
    ??_R3Object@Gtk@@8
    ??_R2Object@Gtk@@8
    ??_R1A@?0A@EA@Object@Gtk@@8
    ??_R1A@?0A@EA@Object@Glib@@8
    ??_R0?AVObject@Glib@@@8
    ??_R3Object@Glib@@8
    ??_R2Object@Glib@@8
    ??_R1A@A@7FA@ObjectBase@Glib@@8
    ??_R3ObjectBase@Glib@@8
    ??_R2ObjectBase@Glib@@8
    ??_R1A@?0A@EA@ObjectBase@Glib@@8
    ??_R1A@73FA@trackable@sigc@@8
    ??_R0?AUtrackable@sigc@@@8
    ??_R3trackable@sigc@@8
    ??_R2trackable@sigc@@8
    ??_R1A@?0A@EA@trackable@sigc@@8
    ??_R1A@A@3FA@trackable@sigc@@8
    ??_R1BA@?0A@EA@Object@Glib@@8
    ??_R1A@BA@7FA@ObjectBase@Glib@@8
    ??_R1A@BA@3FA@trackable@sigc@@8
    ??_R1CA@?0A@EA@Buildable@Gtk@@8
    ??_R0?AVBuildable@Gtk@@@8
    ??_R3Buildable@Gtk@@8
    ??_R2Buildable@Gtk@@8
    ??_R1A@?0A@EA@Buildable@Gtk@@8
    ??_R1A@?0A@EA@Interface@Glib@@8
    ??_R0?AVInterface@Glib@@@8
    ??_R3Interface@Glib@@8
    ??_R2Interface@Glib@@8
    ??_R1CA@?0A@EC@Interface@Glib@@8
    ??_R1A@?0A@EA@Implementor@Atk@@8
    ??_R0?AVImplementor@Atk@@@8
    ??_R3Implementor@Atk@@8
    ??_R2Implementor@Atk@@8
    ??_R17?0A@EA@Interface@Glib@@8
    ??_R1A@77FA@ObjectBase@Glib@@8
    ??_R17?0A@EC@Interface@Glib@@8
    ??_R4Bin@Gtk@@6B@
    ?__empty_global_delete@@YAXPEAX@Z
    ?__empty_global_delete@@YAXPEAX_K@Z
    ?get_type@Border@Gtk@@SA_KXZ
    ??0Border@Gtk@@QEAA@XZ
    ??0Border@Gtk@@QEAA@PEAU_GtkBorder@@_N@Z
    ??0Border@Gtk@@QEAA@AEBV01@@Z
    ??4Border@Gtk@@QEAAAEAV01@AEBV01@@Z
    ??1Border@Gtk@@QEAA@XZ
    ?swap@Border@Gtk@@QEAAXAEAV12@@Z
    ?gobj@Border@Gtk@@QEAAPEAU_GtkBorder@@XZ
    ?gobj@Border@Gtk@@QEBAPEBU_GtkBorder@@XZ
    ?gobj_copy@Border@Gtk@@QEBAPEAU_GtkBorder@@XZ
    ?get_left@Border@Gtk@@QEBAHXZ
    ?set_left@Border@Gtk@@QEAAXAEBH@Z
    ?get_right@Border@Gtk@@QEBAHXZ
    ?set_right@Border@Gtk@@QEAAXAEBH@Z
    ?get_top@Border@Gtk@@QEBAHXZ
    ?set_top@Border@Gtk@@QEAAXAEBH@Z
    ?get_bottom@Border@Gtk@@QEBAHXZ
    ?set_bottom@Border@Gtk@@QEAAXAEBH@Z
    ?wrap@Glib@@YA?AVBorder@Gtk@@PEAU_GtkBorder@@_N@Z
    ?box_class_@Box@Gtk@@0VBox_Class@2@A
    ?__empty_global_delete@@YAXPEAX@Z
    ?__empty_global_delete@@YAXPEAX_K@Z
    ?get_type@Class@Glib@@QEBA_KXZ
    ?gobj@Widget@Gtk@@QEAAPEAU_GtkWidget@@XZ
    ??1Box@Gtk@@UEAA@XZ
    ??0Box@Gtk@@IEAA@AEBVConstructParams@Glib@@@Z
    ??0Box@Gtk@@IEAA@PEAU_GtkBox@@@Z
    ?get_type@Box@Gtk@@SA_KXZ
    ?get_base_type@Box@Gtk@@SA_KXZ
    ?gobj@Box@Gtk@@QEAAPEAU_GtkBox@@XZ
    ?gobj@Box@Gtk@@QEBAPEBU_GtkBox@@XZ
    ??0Box@Gtk@@QEAA@W4Orientation@1@H@Z
    ?pack_start@Box@Gtk@@QEAAXAEAVWidget@2@_N1I@Z
    ?pack_start@Box@Gtk@@QEAAXAEAVWidget@2@W4PackOptions@2@I@Z
    ?pack_end@Box@Gtk@@QEAAXAEAVWidget@2@_N1I@Z
    ?pack_end@Box@Gtk@@QEAAXAEAVWidget@2@W4PackOptions@2@I@Z
    ?set_homogeneous@Box@Gtk@@QEAAX_N@Z
    ?get_homogeneous@Box@Gtk@@QEBA_NXZ
    ?set_spacing@Box@Gtk@@QEAAXH@Z
    ?get_spacing@Box@Gtk@@QEBAHXZ
    ?set_baseline_position@Box@Gtk@@QEAAXW4BaselinePosition@2@@Z
    ?get_baseline_position@Box@Gtk@@QEBA?AW4BaselinePosition@2@XZ
    ?reorder_child@Box@Gtk@@QEAAXAEAVWidget@2@H@Z
    ?set_center_widget@Box@Gtk@@QEAAXAEAVWidget@2@@Z
    ?unset_center_widget@Box@Gtk@@QEAAXXZ
    ?get_center_widget@Box@Gtk@@QEAAPEAVWidget@2@XZ
    ?get_center_widget@Box@Gtk@@QEBAPEBVWidget@2@XZ
    ?property_spacing@Box@Gtk@@QEAA?AV?$PropertyProxy@H@Glib@@XZ
    ?property_spacing@Box@Gtk@@QEBA?AV?$PropertyProxy_ReadOnly@H@Glib@@XZ
    ?property_homogeneous@Box@Gtk@@QEAA?AV?$PropertyProxy@_N@Glib@@XZ
    ?property_homogeneous@Box@Gtk@@QEBA?AV?$PropertyProxy_ReadOnly@_N@Glib@@XZ
    ?property_baseline_position@Box@Gtk@@QEAA?AV?$PropertyProxy@W4BaselinePosition@Gtk@@@Glib@@XZ
    ?property_baseline_position@Box@Gtk@@QEBA?AV?$PropertyProxy_ReadOnly@W4BaselinePosition@Gtk@@@Glib@@XZ
    ?child_property_expand@Box@Gtk@@QEAA?AV?$ChildPropertyProxy@_N@2@AEAVWidget@2@@Z
    ?child_property_expand@Box@Gtk@@QEBA?AV?$ChildPropertyProxy_ReadOnly@_N@2@AEBVWidget@2@@Z
    ?child_property_fill@Box@Gtk@@QEAA?AV?$ChildPropertyProxy@_N@2@AEAVWidget@2@@Z
    ?child_property_fill@Box@Gtk@@QEBA?AV?$ChildPropertyProxy_ReadOnly@_N@2@AEBVWidget@2@@Z
    ?child_property_padding@Box@Gtk@@QEAA?AV?$ChildPropertyProxy@I@2@AEAVWidget@2@@Z
    ?child_property_padding@Box@Gtk@@QEBA?AV?$ChildPropertyProxy_ReadOnly@I@2@AEBVWidget@2@@Z
    ?child_property_pack_type@Box@Gtk@@QEAA?AV?$ChildPropertyProxy@W4PackType@Gtk@@@2@AEAVWidget@2@@Z
    ?child_property_pack_type@Box@Gtk@@QEBA?AV?$ChildPropertyProxy_ReadOnly@W4PackType@Gtk@@@2@AEBVWidget@2@@Z
    ?child_property_position@Box@Gtk@@QEAA?AV?$ChildPropertyProxy@H@2@AEAVWidget@2@@Z
    ?child_property_position@Box@Gtk@@QEBA?AV?$ChildPropertyProxy_ReadOnly@H@2@AEBVWidget@2@@Z
    ??_DBox@Gtk@@QEAAXXZ
    ?wrap@Glib@@YAPEAVBox@Gtk@@PEAU_GtkBox@@_N@Z
    ?init@Box_Class@Gtk@@QEAAAEBVClass@Glib@@XZ
    ?class_init_function@Box_Class@Gtk@@SAXPEAX0@Z
    ?wrap_new@Box_Class@Gtk@@SAPEAVObjectBase@Glib@@PEAU_GObject@@@Z
    ??$manage@VBox@Gtk@@@Gtk@@YAPEAVBox@0@PEAV10@@Z
    ??0?$PropertyProxy@H@Glib@@QEAA@PEAVObjectBase@1@PEBD@Z
    ??0?$PropertyProxy_ReadOnly@H@Glib@@QEAA@PEBVObjectBase@1@PEBD@Z
    ??0?$PropertyProxy@_N@Glib@@QEAA@PEAVObjectBase@1@PEBD@Z
    ??0?$PropertyProxy_ReadOnly@_N@Glib@@QEAA@PEBVObjectBase@1@PEBD@Z
    ??0?$PropertyProxy@W4BaselinePosition@Gtk@@@Glib@@QEAA@PEAVObjectBase@1@PEBD@Z
    ??0?$PropertyProxy_ReadOnly@W4BaselinePosition@Gtk@@@Glib@@QEAA@PEBVObjectBase@1@PEBD@Z
    ??0?$ChildPropertyProxy@_N@Gtk@@QEAA@PEAVContainer@1@AEAVWidget@1@PEBD@Z
    ??0?$ChildPropertyProxy_ReadOnly@_N@Gtk@@QEAA@PEBVContainer@1@AEBVWidget@1@PEBD@Z
    ??0?$ChildPropertyProxy@I@Gtk@@QEAA@PEAVContainer@1@AEAVWidget@1@PEBD@Z
    ??0?$ChildPropertyProxy_ReadOnly@I@Gtk@@QEAA@PEBVContainer@1@AEBVWidget@1@PEBD@Z
    ??0?$ChildPropertyProxy@W4PackType@Gtk@@@Gtk@@QEAA@PEAVContainer@1@AEAVWidget@1@PEBD@Z
    ??0?$ChildPropertyProxy_ReadOnly@W4PackType@Gtk@@@Gtk@@QEAA@PEBVContainer@1@AEBVWidget@1@PEBD@Z
    ??0?$ChildPropertyProxy@H@Gtk@@QEAA@PEAVContainer@1@AEAVWidget@1@PEBD@Z
    ??0?$ChildPropertyProxy_ReadOnly@H@Gtk@@QEAA@PEBVContainer@1@AEBVWidget@1@PEBD@Z
    ?destroy_notify_@Object@Gtk@@$2PPPPPPPM@BA@EAAXXZ
    ?set_manage@Object@Gtk@@$4PPPPPPPM@BA@EAAXXZ
    ??_7Box@Gtk@@6BImplementor@Atk@@@
    ??_7Box@Gtk@@6B@
    ??_8Box@Gtk@@7BObject@Glib@@@
    ??_8Box@Gtk@@7BInterface@Glib@@Buildable@1@@
    ??_8Box@Gtk@@7BInterface@Glib@@Implementor@Atk@@@
    ??_8Box@Gtk@@7BInterface@Glib@@@
    ??_8Box@Gtk@@7BObjectBase@Glib@@@
    ??_R0?AVObjectBase@Glib@@@8
    ??_R0?AVBox@Gtk@@@8
    ??_R4Box@Gtk@@6BImplementor@Atk@@@
    ??_R3Box@Gtk@@8
    ??_R2Box@Gtk@@8
    ??_R1A@?0A@EA@Box@Gtk@@8
    ??_R1A@?0A@EA@Container@Gtk@@8
    ??_R0?AVContainer@Gtk@@@8
    ??_R3Container@Gtk@@8
    ??_R2Container@Gtk@@8
    ??_R1A@?0A@EA@Widget@Gtk@@8
    ??_R0?AVWidget@Gtk@@@8
    ??_R3Widget@Gtk@@8
    ??_R2Widget@Gtk@@8
    ??_R1BA@?0A@EA@Object@Gtk@@8
    ??_R0?AVObject@Gtk@@@8
    ??_R3Object@Gtk@@8
    ??_R2Object@Gtk@@8
    ??_R1A@?0A@EA@Object@Gtk@@8
    ??_R1A@?0A@EA@Object@Glib@@8
    ??_R0?AVObject@Glib@@@8
    ??_R3Object@Glib@@8
    ??_R2Object@Glib@@8
    ??_R1A@A@7FA@ObjectBase@Glib@@8
    ??_R3ObjectBase@Glib@@8
    ??_R2ObjectBase@Glib@@8
    ??_R1A@?0A@EA@ObjectBase@Glib@@8
    ??_R1A@73FA@trackable@sigc@@8
    ??_R0?AUtrackable@sigc@@@8
    ??_R3trackable@sigc@@8
    ??_R2trackable@sigc@@8
    ??_R1A@?0A@EA@trackable@sigc@@8
    ??_R1A@A@3FA@trackable@sigc@@8
    ??_R1BA@?0A@EA@Object@Glib@@8
    ??_R1A@BA@7FA@ObjectBase@Glib@@8
    ??_R1A@BA@3FA@trackable@sigc@@8
    ??_R1CA@?0A@EA@Buildable@Gtk@@8
    ??_R0?AVBuildable@Gtk@@@8
    ??_R3Buildable@Gtk@@8
    ??_R2Buildable@Gtk@@8
    ??_R1A@?0A@EA@Buildable@Gtk@@8
    ??_R1A@?0A@EA@Interface@Glib@@8
    ??_R0?AVInterface@Glib@@@8
    ??_R3Interface@Glib@@8
    ??_R2Interface@Glib@@8
    ??_R1CA@?0A@EC@Interface@Glib@@8
    ??_R1A@?0A@EA@Implementor@Atk@@8
    ??_R0?AVImplementor@Atk@@@8
    ??_R3Implementor@Atk@@8
    ??_R2Implementor@Atk@@8
    ??_R17?0A@EA@Interface@Glib@@8
    ??_R1A@77FA@ObjectBase@Glib@@8
    ??_R17?0A@EC@Interface@Glib@@8
    ??_R1CI@?0A@EA@Orientable@Gtk@@8
    ??_R0?AVOrientable@Gtk@@@8
    ??_R3Orientable@Gtk@@8
    ??_R2Orientable@Gtk@@8
    ??_R1A@?0A@EA@Orientable@Gtk@@8
    ??_R1CI@?0A@EC@Interface@Glib@@8
    ??_R4Box@Gtk@@6B@
    ?buildable_class_@Buildable@Gtk@@0VBuildable_Class@2@A
    ?__empty_global_delete@@YAXPEAX@Z
    ?__empty_global_delete@@YAXPEAX_K@Z
    ?name@type_info@@QEBAPEBDXZ
    ?get_type@Class@Glib@@QEBA_KXZ
    ?convert_const_gchar_ptr_to_ustring@Glib@@YA?AVustring@1@PEBD@Z
    ??0Buildable@Gtk@@IEAA@XZ
    ??0Buildable@Gtk@@IEAA@AEBVInterface_Class@Glib@@@Z
    ??0Buildable@Gtk@@QEAA@PEAU_GtkBuildable@@@Z
    ??1Buildable@Gtk@@UEAA@XZ
    ?add_interface@Buildable@Gtk@@SAX_K@Z
    ?get_type@Buildable@Gtk@@SA_KXZ
    ?get_base_type@Buildable@Gtk@@SA_KXZ
    ?gobj@Buildable@Gtk@@QEAAPEAU_GtkBuildable@@XZ
    ?gobj@Buildable@Gtk@@QEBAPEBU_GtkBuildable@@XZ
    ?set_name@Buildable@Gtk@@QEAAXAEBVustring@Glib@@@Z
    ?get_name@Buildable@Gtk@@QEBA?AVustring@Glib@@XZ
    ??_DBuildable@Gtk@@QEAAXXZ
    ?wrap@Glib@@YA?AV?$RefPtr@VBuildable@Gtk@@@1@PEAU_GtkBuildable@@_N@Z
    ?init@Buildable_Class@Gtk@@QEAAAEBVInterface_Class@Glib@@XZ
    ?iface_init_function@Buildable_Class@Gtk@@SAXPEAX0@Z
    ?wrap_new@Buildable_Class@Gtk@@SAPEAVObjectBase@Glib@@PEAU_GObject@@@Z
    ?custom_tag_start_vfunc_callback@Buildable_Class@Gtk@@KAHPEAU_GtkBuildable@@PEAU_GtkBuilder@@PEAU_GObject@@PEBDPEAU_GMarkupParser@@PEAPEAX@Z
    ?custom_tag_end_vfunc_callback@Buildable_Class@Gtk@@KAXPEAU_GtkBuildable@@PEAU_GtkBuilder@@PEAU_GObject@@PEBDPEAPEAX@Z
    ??0?$RefPtr@VBuildable@Gtk@@@Glib@@QEAA@PEAVBuildable@Gtk@@@Z
    ??$wrap_auto_interface@VBuildable@Gtk@@@Glib@@YAPEAVBuildable@Gtk@@PEAU_GObject@@_N@Z
    ??_7Buildable@Gtk@@6B@
    ??_8Buildable@Gtk@@7BInterface@Glib@@@
    ??_8Buildable@Gtk@@7BObjectBase@Glib@@@
    ??_R0?AVObjectBase@Glib@@@8
    ??_R0?AVBuilder@Gtk@@@8
    ??_R0?AVBuildable@Gtk@@@8
    ??_R4Buildable@Gtk@@6B@
    ??_R3Buildable@Gtk@@8
    ??_R2Buildable@Gtk@@8
    ??_R1A@?0A@EA@Buildable@Gtk@@8
    ??_R1A@?0A@EA@Interface@Glib@@8
    ??_R0?AVInterface@Glib@@@8
    ??_R3Interface@Glib@@8
    ??_R2Interface@Glib@@8
    ??_R1A@A@7FA@ObjectBase@Glib@@8
    ??_R3ObjectBase@Glib@@8
    ??_R2ObjectBase@Glib@@8
    ??_R1A@?0A@EA@ObjectBase@Glib@@8
    ??_R1A@73FA@trackable@sigc@@8
    ??_R0?AUtrackable@sigc@@@8
    ??_R3trackable@sigc@@8
    ??_R2trackable@sigc@@8
    ??_R1A@?0A@EA@trackable@sigc@@8
    ??_R1A@A@3FA@trackable@sigc@@8
    ?builder_class_@Builder@Gtk@@0VBuilder_Class@2@A
    ?__empty_global_delete@@YAXPEAX@Z
    ?__empty_global_delete@@YAXPEAX_K@Z
    ??2@YAPEAX_KPEAX@Z
    ??3@YAXPEAX0@Z
    ??0_Container_proxy@std@@QEAA@XZ
    ??0_Container_base12@std@@QEAA@XZ
    ??1_Container_base12@std@@QEAA@XZ
    ?_Orphan_all@_Container_base12@std@@QEAAXXZ
    ??0_Iterator_base12@std@@QEAA@XZ
    ??1_Iterator_base12@std@@QEAA@XZ
    ?_Adopt@_Iterator_base12@std@@QEAAXPEBU_Container_base12@2@@Z
    ?_Getcont@_Iterator_base12@std@@QEBAPEBU_Container_base12@2@XZ
    ?_Orphan_me@_Iterator_base12@std@@QEAAXXZ
    ?_Allocate@std@@YAPEAX_K0_N@Z
    ?_Deallocate@std@@YAXPEAX_K1@Z
    ?_Myptr@?$_String_val@U?$_Simple_types@D@std@@@std@@QEBAPEBDXZ
    ?_Myptr@?$_String_alloc@U?$_String_base_types@DV?$allocator@D@std@@@std@@@std@@QEBAPEBDXZ
    ?_Get_data@?$_String_alloc@U?$_String_base_types@DV?$allocator@D@std@@@std@@@std@@QEBAAEBV?$_String_val@U?$_Simple_types@D@std@@@2@XZ
    ?_Get_second@?$_Compressed_pair@U?$_Wrap_alloc@V?$allocator@D@std@@@std@@V?$_String_val@U?$_Simple_types@D@std@@@2@$00@std@@QEBAAEBV?$_String_val@U?$_Simple_types@D@std@@@2@XZ
    ?c_str@?$basic_string@DU?$char_traits@D@std@@V?$allocator@D@2@@std@@QEBAPEBDXZ
    ??0Exception@Glib@@QEAA@AEBV01@@Z
    ?get_type@Class@Glib@@QEBA_KXZ
    ?to_c_type@?$TypeTraits@Vustring@Glib@@@Container_Helpers@Glib@@SAPEBDAEBVustring@3@@Z
    ?release_c_type@?$TypeTraits@Vustring@Glib@@@Container_Helpers@Glib@@SAXPEBD@Z
    ?convert_const_gchar_ptr_to_ustring@Glib@@YA?AVustring@1@PEBD@Z
    ?gobj@Widget@Gtk@@QEAAPEAU_GtkWidget@@XZ
    ??0BuilderError@Gtk@@QEAA@W4Code@01@AEBVustring@Glib@@@Z
    ??0BuilderError@Gtk@@QEAA@PEAU_GError@@@Z
    ?code@BuilderError@Gtk@@QEBA?AW4Code@12@XZ
    ?throw_func@BuilderError@Gtk@@CAXPEAU_GError@@@Z
    ??1BuilderError@Gtk@@UEAA@XZ
    ??0BuilderError@Gtk@@QEAA@AEBV01@@Z
    ?value_type@?$Value@W4Code@BuilderError@Gtk@@@Glib@@SA_KXZ
    ??0Builder@Gtk@@IEAA@AEBVConstructParams@Glib@@@Z
    ??0Builder@Gtk@@IEAA@PEAU_GtkBuilder@@@Z
    ??1Builder@Gtk@@UEAA@XZ
    ?get_type@Builder@Gtk@@SA_KXZ
    ?get_base_type@Builder@Gtk@@SA_KXZ
    ?gobj@Builder@Gtk@@QEAAPEAU_GtkBuilder@@XZ
    ?gobj@Builder@Gtk@@QEBAPEBU_GtkBuilder@@XZ
    ?gobj_copy@Builder@Gtk@@QEAAPEAU_GtkBuilder@@XZ
    ??0Builder@Gtk@@IEAA@XZ
    ?create@Builder@Gtk@@SA?AV?$RefPtr@VBuilder@Gtk@@@Glib@@XZ
    ?create_from_file@Builder@Gtk@@SA?AV?$RefPtr@VBuilder@Gtk@@@Glib@@AEBV?$basic_string@DU?$char_traits@D@std@@V?$allocator@D@2@@std@@@Z
    ?create_from_file@Builder@Gtk@@SA?AV?$RefPtr@VBuilder@Gtk@@@Glib@@AEBV?$basic_string@DU?$char_traits@D@std@@V?$allocator@D@2@@std@@AEBVustring@4@@Z
    ?create_from_file@Builder@Gtk@@SA?AV?$RefPtr@VBuilder@Gtk@@@Glib@@AEBV?$basic_string@DU?$char_traits@D@std@@V?$allocator@D@2@@std@@PEBD@Z
    ?create_from_file@Builder@Gtk@@SA?AV?$RefPtr@VBuilder@Gtk@@@Glib@@AEBV?$basic_string@DU?$char_traits@D@std@@V?$allocator@D@2@@std@@AEBV?$vector@Vustring@Glib@@V?$allocator@Vustring@Glib@@@std@@@6@@Z
    ?create_from_resource@Builder@Gtk@@SA?AV?$RefPtr@VBuilder@Gtk@@@Glib@@AEBV?$basic_string@DU?$char_traits@D@std@@V?$allocator@D@2@@std@@@Z
    ?create_from_resource@Builder@Gtk@@SA?AV?$RefPtr@VBuilder@Gtk@@@Glib@@AEBV?$basic_string@DU?$char_traits@D@std@@V?$allocator@D@2@@std@@AEBVustring@4@@Z
    ?create_from_resource@Builder@Gtk@@SA?AV?$RefPtr@VBuilder@Gtk@@@Glib@@AEBV?$basic_string@DU?$char_traits@D@std@@V?$allocator@D@2@@std@@PEBD@Z
    ?create_from_resource@Builder@Gtk@@SA?AV?$RefPtr@VBuilder@Gtk@@@Glib@@AEBV?$basic_string@DU?$char_traits@D@std@@V?$allocator@D@2@@std@@AEBV?$vector@Vustring@Glib@@V?$allocator@Vustring@Glib@@@std@@@6@@Z
    ?create_from_string@Builder@Gtk@@SA?AV?$RefPtr@VBuilder@Gtk@@@Glib@@AEBVustring@4@@Z
    ?create_from_string@Builder@Gtk@@SA?AV?$RefPtr@VBuilder@Gtk@@@Glib@@AEBVustring@4@PEBD@Z
    ?create_from_string@Builder@Gtk@@SA?AV?$RefPtr@VBuilder@Gtk@@@Glib@@AEBVustring@4@0@Z
    ?create_from_string@Builder@Gtk@@SA?AV?$RefPtr@VBuilder@Gtk@@@Glib@@AEBVustring@4@AEBV?$vector@Vustring@Glib@@V?$allocator@Vustring@Glib@@@std@@@std@@@Z
    ?add_from_file@Builder@Gtk@@QEAA_NAEBV?$basic_string@DU?$char_traits@D@std@@V?$allocator@D@2@@std@@@Z
    ?add_from_file@Builder@Gtk@@QEAA_NAEBV?$basic_string@DU?$char_traits@D@std@@V?$allocator@D@2@@std@@PEBD@Z
    ?add_from_file@Builder@Gtk@@QEAA_NAEBV?$basic_string@DU?$char_traits@D@std@@V?$allocator@D@2@@std@@AEBVustring@Glib@@@Z
    ?add_from_file@Builder@Gtk@@QEAA_NAEBV?$basic_string@DU?$char_traits@D@std@@V?$allocator@D@2@@std@@AEBV?$vector@Vustring@Glib@@V?$allocator@Vustring@Glib@@@std@@@4@@Z
    ?add_from_resource@Builder@Gtk@@QEAA_NAEBV?$basic_string@DU?$char_traits@D@std@@V?$allocator@D@2@@std@@@Z
    ?add_from_resource@Builder@Gtk@@QEAA_NAEBV?$basic_string@DU?$char_traits@D@std@@V?$allocator@D@2@@std@@PEBD@Z
    ?add_from_resource@Builder@Gtk@@QEAA_NAEBV?$basic_string@DU?$char_traits@D@std@@V?$allocator@D@2@@std@@AEBVustring@Glib@@@Z
    ?add_from_resource@Builder@Gtk@@QEAA_NAEBV?$basic_string@DU?$char_traits@D@std@@V?$allocator@D@2@@std@@AEBV?$vector@Vustring@Glib@@V?$allocator@Vustring@Glib@@@std@@@4@@Z
    ?add_from_string@Builder@Gtk@@QEAA_NAEBVustring@Glib@@@Z
    ?add_from_string@Builder@Gtk@@QEAA_NAEBVustring@Glib@@PEBD@Z
    ?add_from_string@Builder@Gtk@@QEAA_NAEBVustring@Glib@@0@Z
    ?add_from_string@Builder@Gtk@@QEAA_NAEBVustring@Glib@@AEBV?$vector@Vustring@Glib@@V?$allocator@Vustring@Glib@@@std@@@std@@@Z
    ?add_from_string@Builder@Gtk@@QEAA_NPEBD_K@Z
    ?expose_object@Builder@Gtk@@QEAAXAEBVustring@Glib@@AEBV?$RefPtr@VObject@Glib@@@4@@Z
    ?expose_widget@Builder@Gtk@@QEAAXAEBVustring@Glib@@AEAVWidget@2@@Z
    ?get_object@Builder@Gtk@@QEAA?AV?$RefPtr@VObject@Glib@@@Glib@@AEBVustring@4@@Z
    ?get_object@Builder@Gtk@@QEBA?AV?$RefPtr@$$CBVObject@Glib@@@Glib@@AEBVustring@4@@Z
    ?get_objects@Builder@Gtk@@QEAA?AV?$vector@V?$RefPtr@VObject@Glib@@@Glib@@V?$allocator@V?$RefPtr@VObject@Glib@@@Glib@@@std@@@std@@XZ
    ?get_objects@Builder@Gtk@@QEBA?AV?$vector@V?$RefPtr@$$CBVObject@Glib@@@Glib@@V?$allocator@V?$RefPtr@$$CBVObject@Glib@@@Glib@@@std@@@std@@XZ
    ?set_translation_domain@Builder@Gtk@@QEAAXAEBVustring@Glib@@@Z
    ?get_translation_domain@Builder@Gtk@@QEBA?AVustring@Glib@@XZ
    ?set_application@Builder@Gtk@@QEAAXAEBV?$RefPtr@VApplication@Gtk@@@Glib@@@Z
    ?get_application@Builder@Gtk@@QEAA?AV?$RefPtr@VApplication@Gtk@@@Glib@@XZ
    ?get_application@Builder@Gtk@@QEBA?AV?$RefPtr@$$CBVApplication@Gtk@@@Glib@@XZ
    ?property_translation_domain@Builder@Gtk@@QEAA?AV?$PropertyProxy@Vustring@Glib@@@Glib@@XZ
    ?property_translation_domain@Builder@Gtk@@QEBA?AV?$PropertyProxy_ReadOnly@Vustring@Glib@@@Glib@@XZ
    ?get_widget_checked@Builder@Gtk@@IEAAPEAVWidget@2@AEBVustring@Glib@@_K@Z
    ?get_cwidget@Builder@Gtk@@IEAAPEAU_GtkWidget@@AEBVustring@Glib@@@Z
    ?set_no_gtkmm_derived_types@Builder@Gtk@@AEAAX_N@Z
    ??_DBuilder@Gtk@@QEAAXXZ
    ?wrap@Glib@@YA?AV?$RefPtr@VBuilder@Gtk@@@1@PEAU_GtkBuilder@@_N@Z
    ?init@Builder_Class@Gtk@@QEAAAEBVClass@Glib@@XZ
    ?class_init_function@Builder_Class@Gtk@@SAXPEAX0@Z
    ?wrap_new@Builder_Class@Gtk@@SAPEAVObjectBase@Glib@@PEAU_GObject@@@Z
    ?gobj@Application@Gtk@@QEAAPEAU_GtkApplication@@XZ
    ??0?$RefPtr@VBuilder@Gtk@@@Glib@@QEAA@XZ
    ??1?$RefPtr@VBuilder@Gtk@@@Glib@@QEAA@XZ
    ??0?$RefPtr@VBuilder@Gtk@@@Glib@@QEAA@PEAVBuilder@Gtk@@@Z
    ??0?$RefPtr@VBuilder@Gtk@@@Glib@@QEAA@$$QEAV01@@Z
    ??C?$RefPtr@VBuilder@Gtk@@@Glib@@QEBAPEAVBuilder@Gtk@@XZ
    ??0?$allocator@Vustring@Glib@@@std@@QEAA@XZ
    ?deallocate@?$allocator@Vustring@Glib@@@std@@QEAAXPEAVustring@Glib@@_K@Z
    ?allocate@?$allocator@Vustring@Glib@@@std@@QEAAPEAVustring@Glib@@_K@Z
    ?max_size@?$allocator@Vustring@Glib@@@std@@QEBA_KXZ
    ?max_size@?$allocator_traits@V?$allocator@Vustring@Glib@@@std@@@std@@SA_KAEBV?$allocator@Vustring@Glib@@@2@@Z
    ??0?$_Wrap_alloc@V?$allocator@Vustring@Glib@@@std@@@std@@QEAA@XZ
    ?allocate@?$_Wrap_alloc@V?$allocator@Vustring@Glib@@@std@@@std@@QEAAPEAVustring@Glib@@_K@Z
    ?deallocate@?$_Wrap_alloc@V?$allocator@Vustring@Glib@@@std@@@std@@QEAAXPEAVustring@Glib@@_K@Z
    ?max_size@?$_Wrap_alloc@V?$allocator@Vustring@Glib@@@std@@@std@@QEBA_KU_Nil@2@@Z
    ??0?$_Vector_alloc@U?$_Vec_base_types@Vustring@Glib@@V?$allocator@Vustring@Glib@@@std@@@std@@@std@@QEAA@XZ
    ??1?$_Vector_alloc@U?$_Vec_base_types@Vustring@Glib@@V?$allocator@Vustring@Glib@@@std@@@std@@@std@@QEAA@XZ
    ?_Alloc_proxy@?$_Vector_alloc@U?$_Vec_base_types@Vustring@Glib@@V?$allocator@Vustring@Glib@@@std@@@std@@@std@@QEAAXXZ
    ?_Free_proxy@?$_Vector_alloc@U?$_Vec_base_types@Vustring@Glib@@V?$allocator@Vustring@Glib@@@std@@@std@@@std@@QEAAXXZ
    ?_Myproxy@?$_Vector_alloc@U?$_Vec_base_types@Vustring@Glib@@V?$allocator@Vustring@Glib@@@std@@@std@@@std@@QEAAAEAPEAU_Container_proxy@2@XZ
    ?_Orphan_all@?$_Vector_alloc@U?$_Vec_base_types@Vustring@Glib@@V?$allocator@Vustring@Glib@@@std@@@std@@@std@@QEAAXXZ
    ?_Getal@?$_Vector_alloc@U?$_Vec_base_types@Vustring@Glib@@V?$allocator@Vustring@Glib@@@std@@@std@@@std@@QEAAAEAU?$_Wrap_alloc@V?$allocator@Vustring@Glib@@@std@@@2@XZ
    ?_Getal@?$_Vector_alloc@U?$_Vec_base_types@Vustring@Glib@@V?$allocator@Vustring@Glib@@@std@@@std@@@std@@QEBAAEBU?$_Wrap_alloc@V?$allocator@Vustring@Glib@@@std@@@2@XZ
    ?_Get_data@?$_Vector_alloc@U?$_Vec_base_types@Vustring@Glib@@V?$allocator@Vustring@Glib@@@std@@@std@@@std@@QEAAAEAV?$_Vector_val@U?$_Simple_types@Vustring@Glib@@@std@@@2@XZ
    ?_Get_data@?$_Vector_alloc@U?$_Vec_base_types@Vustring@Glib@@V?$allocator@Vustring@Glib@@@std@@@std@@@std@@QEBAAEBV?$_Vector_val@U?$_Simple_types@Vustring@Glib@@@std@@@2@XZ
    ?_Myfirst@?$_Vector_alloc@U?$_Vec_base_types@Vustring@Glib@@V?$allocator@Vustring@Glib@@@std@@@std@@@std@@QEAAAEAPEAVustring@Glib@@XZ
    ?_Myfirst@?$_Vector_alloc@U?$_Vec_base_types@Vustring@Glib@@V?$allocator@Vustring@Glib@@@std@@@std@@@std@@QEBAAEBQEAVustring@Glib@@XZ
    ?_Mylast@?$_Vector_alloc@U?$_Vec_base_types@Vustring@Glib@@V?$allocator@Vustring@Glib@@@std@@@std@@@std@@QEAAAEAPEAVustring@Glib@@XZ
    ?_Mylast@?$_Vector_alloc@U?$_Vec_base_types@Vustring@Glib@@V?$allocator@Vustring@Glib@@@std@@@std@@@std@@QEBAAEBQEAVustring@Glib@@XZ
    ?_Myend@?$_Vector_alloc@U?$_Vec_base_types@Vustring@Glib@@V?$allocator@Vustring@Glib@@@std@@@std@@@std@@QEAAAEAPEAVustring@Glib@@XZ
    ??0?$_Vector_val@U?$_Simple_types@Vustring@Glib@@@std@@@std@@QEAA@XZ
    ??1?$_Vector_val@U?$_Simple_types@Vustring@Glib@@@std@@@std@@QEAA@XZ
    ?_Get_first@?$_Compressed_pair@U?$_Wrap_alloc@V?$allocator@Vustring@Glib@@@std@@@std@@V?$_Vector_val@U?$_Simple_types@Vustring@Glib@@@std@@@2@$00@std@@QEAAAEAU?$_Wrap_alloc@V?$allocator@Vustring@Glib@@@std@@@2@XZ
    ?_Get_first@?$_Compressed_pair@U?$_Wrap_alloc@V?$allocator@Vustring@Glib@@@std@@@std@@V?$_Vector_val@U?$_Simple_types@Vustring@Glib@@@std@@@2@$00@std@@QEBAAEBU?$_Wrap_alloc@V?$allocator@Vustring@Glib@@@std@@@2@XZ
    ?_Get_second@?$_Compressed_pair@U?$_Wrap_alloc@V?$allocator@Vustring@Glib@@@std@@@std@@V?$_Vector_val@U?$_Simple_types@Vustring@Glib@@@std@@@2@$00@std@@QEAAAEAV?$_Vector_val@U?$_Simple_types@Vustring@Glib@@@std@@@2@XZ
    ?_Get_second@?$_Compressed_pair@U?$_Wrap_alloc@V?$allocator@Vustring@Glib@@@std@@@std@@V?$_Vector_val@U?$_Simple_types@Vustring@Glib@@@std@@@2@$00@std@@QEBAAEBV?$_Vector_val@U?$_Simple_types@Vustring@Glib@@@std@@@2@XZ
    ??1?$_Compressed_pair@U?$_Wrap_alloc@V?$allocator@Vustring@Glib@@@std@@@std@@V?$_Vector_val@U?$_Simple_types@Vustring@Glib@@@std@@@2@$00@std@@QEAA@XZ
    ??0?$vector@Vustring@Glib@@V?$allocator@Vustring@Glib@@@std@@@std@@QEAA@_KAEBVustring@Glib@@@Z
    ?_Construct_n@?$vector@Vustring@Glib@@V?$allocator@Vustring@Glib@@@std@@@std@@QEAAX_KPEBVustring@Glib@@@Z
    ??1?$vector@Vustring@Glib@@V?$allocator@Vustring@Glib@@@std@@@std@@QEAA@XZ
    ?begin@?$vector@Vustring@Glib@@V?$allocator@Vustring@Glib@@@std@@@std@@QEBA?AV?$_Vector_const_iterator@V?$_Vector_val@U?$_Simple_types@Vustring@Glib@@@std@@@std@@@2@XZ
    ?size@?$vector@Vustring@Glib@@V?$allocator@Vustring@Glib@@@std@@@std@@QEBA_KXZ
    ?max_size@?$vector@Vustring@Glib@@V?$allocator@Vustring@Glib@@@std@@@std@@QEBA_KXZ
    ?_Buy@?$vector@Vustring@Glib@@V?$allocator@Vustring@Glib@@@std@@@std@@IEAA_N_K@Z
    ?_Destroy@?$vector@Vustring@Glib@@V?$allocator@Vustring@Glib@@@std@@@std@@IEAAXPEAVustring@Glib@@0@Z
    ?_Tidy@?$vector@Vustring@Glib@@V?$allocator@Vustring@Glib@@@std@@@std@@IEAAXXZ
    ?_Ufill@?$vector@Vustring@Glib@@V?$allocator@Vustring@Glib@@@std@@@std@@IEAAPEAVustring@Glib@@PEAV34@_KPEBV34@@Z
    ?_Xlen@?$vector@Vustring@Glib@@V?$allocator@Vustring@Glib@@@std@@@std@@IEBAXXZ
    ?vector_to_array@?$ArrayHandler@Vustring@Glib@@U?$TypeTraits@Vustring@Glib@@@Container_Helpers@2@@Glib@@SA?AV?$ArrayKeeper@U?$TypeTraits@Vustring@Glib@@@Container_Helpers@Glib@@@Container_Helpers@2@AEBV?$vector@Vustring@Glib@@V?$allocator@Vustring@Glib@@@std@@@std@@@Z
    ??0?$ArrayKeeper@U?$TypeTraits@Vustring@Glib@@@Container_Helpers@Glib@@@Container_Helpers@Glib@@QEAA@PEBQEBD_KW4OwnershipType@2@@Z
    ??1?$ArrayKeeper@U?$TypeTraits@Vustring@Glib@@@Container_Helpers@Glib@@@Container_Helpers@Glib@@QEAA@XZ
    ?data@?$ArrayKeeper@U?$TypeTraits@Vustring@Glib@@@Container_Helpers@Glib@@@Container_Helpers@Glib@@QEBAPEAPEBDXZ
    ??$unwrap@VObject@Glib@@@Glib@@YAPEAU_GObject@@AEBV?$RefPtr@VObject@Glib@@@0@@Z
    ??1?$RefPtr@VObject@Glib@@@Glib@@QEAA@XZ
    ??0?$RefPtr@VObject@Glib@@@Glib@@QEAA@PEAVObject@1@@Z
    ??0?$RefPtr@VObject@Glib@@@Glib@@QEAA@$$QEAV01@@Z
    ??C?$RefPtr@VObject@Glib@@@Glib@@QEBAPEAVObject@1@XZ
    ??B?$RefPtr@VObject@Glib@@@Glib@@QEBA_NXZ
    ?release@?$RefPtr@VObject@Glib@@@Glib@@QEAAPEAVObject@2@XZ
    ??1?$RefPtr@$$CBVObject@Glib@@@Glib@@QEAA@XZ
    ??0?$RefPtr@$$CBVObject@Glib@@@Glib@@QEAA@PEBVObject@1@@Z
    ??0?$RefPtr@$$CBVObject@Glib@@@Glib@@QEAA@$$QEAV01@@Z
    ??$?0VObject@Glib@@@?$RefPtr@$$CBVObject@Glib@@@Glib@@QEAA@$$QEAV?$RefPtr@VObject@Glib@@@1@@Z
    ??0?$allocator@V?$RefPtr@VObject@Glib@@@Glib@@@std@@QEAA@XZ
    ?deallocate@?$allocator@V?$RefPtr@VObject@Glib@@@Glib@@@std@@QEAAXPEAV?$RefPtr@VObject@Glib@@@Glib@@_K@Z
    ?allocate@?$allocator@V?$RefPtr@VObject@Glib@@@Glib@@@std@@QEAAPEAV?$RefPtr@VObject@Glib@@@Glib@@_K@Z
    ?max_size@?$allocator@V?$RefPtr@VObject@Glib@@@Glib@@@std@@QEBA_KXZ
    ?max_size@?$allocator_traits@V?$allocator@V?$RefPtr@VObject@Glib@@@Glib@@@std@@@std@@SA_KAEBV?$allocator@V?$RefPtr@VObject@Glib@@@Glib@@@2@@Z
    ??0?$_Wrap_alloc@V?$allocator@V?$RefPtr@VObject@Glib@@@Glib@@@std@@@std@@QEAA@XZ
    ?allocate@?$_Wrap_alloc@V?$allocator@V?$RefPtr@VObject@Glib@@@Glib@@@std@@@std@@QEAAPEAV?$RefPtr@VObject@Glib@@@Glib@@_K@Z
    ?deallocate@?$_Wrap_alloc@V?$allocator@V?$RefPtr@VObject@Glib@@@Glib@@@std@@@std@@QEAAXPEAV?$RefPtr@VObject@Glib@@@Glib@@_K@Z
    ?max_size@?$_Wrap_alloc@V?$allocator@V?$RefPtr@VObject@Glib@@@Glib@@@std@@@std@@QEBA_KU_Nil@2@@Z
    ??0?$_Vector_alloc@U?$_Vec_base_types@V?$RefPtr@VObject@Glib@@@Glib@@V?$allocator@V?$RefPtr@VObject@Glib@@@Glib@@@std@@@std@@@std@@QEAA@XZ
    ??1?$_Vector_alloc@U?$_Vec_base_types@V?$RefPtr@VObject@Glib@@@Glib@@V?$allocator@V?$RefPtr@VObject@Glib@@@Glib@@@std@@@std@@@std@@QEAA@XZ
    ?_Alloc_proxy@?$_Vector_alloc@U?$_Vec_base_types@V?$RefPtr@VObject@Glib@@@Glib@@V?$allocator@V?$RefPtr@VObject@Glib@@@Glib@@@std@@@std@@@std@@QEAAXXZ
    ?_Free_proxy@?$_Vector_alloc@U?$_Vec_base_types@V?$RefPtr@VObject@Glib@@@Glib@@V?$allocator@V?$RefPtr@VObject@Glib@@@Glib@@@std@@@std@@@std@@QEAAXXZ
    ?_Myproxy@?$_Vector_alloc@U?$_Vec_base_types@V?$RefPtr@VObject@Glib@@@Glib@@V?$allocator@V?$RefPtr@VObject@Glib@@@Glib@@@std@@@std@@@std@@QEAAAEAPEAU_Container_proxy@2@XZ
    ?_Orphan_all@?$_Vector_alloc@U?$_Vec_base_types@V?$RefPtr@VObject@Glib@@@Glib@@V?$allocator@V?$RefPtr@VObject@Glib@@@Glib@@@std@@@std@@@std@@QEAAXXZ
    ?_Getal@?$_Vector_alloc@U?$_Vec_base_types@V?$RefPtr@VObject@Glib@@@Glib@@V?$allocator@V?$RefPtr@VObject@Glib@@@Glib@@@std@@@std@@@std@@QEAAAEAU?$_Wrap_alloc@V?$allocator@V?$RefPtr@VObject@Glib@@@Glib@@@std@@@2@XZ
    ?_Getal@?$_Vector_alloc@U?$_Vec_base_types@V?$RefPtr@VObject@Glib@@@Glib@@V?$allocator@V?$RefPtr@VObject@Glib@@@Glib@@@std@@@std@@@std@@QEBAAEBU?$_Wrap_alloc@V?$allocator@V?$RefPtr@VObject@Glib@@@Glib@@@std@@@2@XZ
    ?_Get_data@?$_Vector_alloc@U?$_Vec_base_types@V?$RefPtr@VObject@Glib@@@Glib@@V?$allocator@V?$RefPtr@VObject@Glib@@@Glib@@@std@@@std@@@std@@QEAAAEAV?$_Vector_val@U?$_Simple_types@V?$RefPtr@VObject@Glib@@@Glib@@@std@@@2@XZ
    ?_Myfirst@?$_Vector_alloc@U?$_Vec_base_types@V?$RefPtr@VObject@Glib@@@Glib@@V?$allocator@V?$RefPtr@VObject@Glib@@@Glib@@@std@@@std@@@std@@QEAAAEAPEAV?$RefPtr@VObject@Glib@@@Glib@@XZ
    ?_Mylast@?$_Vector_alloc@U?$_Vec_base_types@V?$RefPtr@VObject@Glib@@@Glib@@V?$allocator@V?$RefPtr@VObject@Glib@@@Glib@@@std@@@std@@@std@@QEAAAEAPEAV?$RefPtr@VObject@Glib@@@Glib@@XZ
    ?_Myend@?$_Vector_alloc@U?$_Vec_base_types@V?$RefPtr@VObject@Glib@@@Glib@@V?$allocator@V?$RefPtr@VObject@Glib@@@Glib@@@std@@@std@@@std@@QEAAAEAPEAV?$RefPtr@VObject@Glib@@@Glib@@XZ
    ??0?$_Vector_val@U?$_Simple_types@V?$RefPtr@VObject@Glib@@@Glib@@@std@@@std@@QEAA@XZ
    ??1?$_Vector_val@U?$_Simple_types@V?$RefPtr@VObject@Glib@@@Glib@@@std@@@std@@QEAA@XZ
    ?_Get_first@?$_Compressed_pair@U?$_Wrap_alloc@V?$allocator@V?$RefPtr@VObject@Glib@@@Glib@@@std@@@std@@V?$_Vector_val@U?$_Simple_types@V?$RefPtr@VObject@Glib@@@Glib@@@std@@@2@$00@std@@QEAAAEAU?$_Wrap_alloc@V?$allocator@V?$RefPtr@VObject@Glib@@@Glib@@@std@@@2@XZ
    ?_Get_first@?$_Compressed_pair@U?$_Wrap_alloc@V?$allocator@V?$RefPtr@VObject@Glib@@@Glib@@@std@@@std@@V?$_Vector_val@U?$_Simple_types@V?$RefPtr@VObject@Glib@@@Glib@@@std@@@2@$00@std@@QEBAAEBU?$_Wrap_alloc@V?$allocator@V?$RefPtr@VObject@Glib@@@Glib@@@std@@@2@XZ
    ?_Get_second@?$_Compressed_pair@U?$_Wrap_alloc@V?$allocator@V?$RefPtr@VObject@Glib@@@Glib@@@std@@@std@@V?$_Vector_val@U?$_Simple_types@V?$RefPtr@VObject@Glib@@@Glib@@@std@@@2@$00@std@@QEAAAEAV?$_Vector_val@U?$_Simple_types@V?$RefPtr@VObject@Glib@@@Glib@@@std@@@2@XZ
    ??1?$_Compressed_pair@U?$_Wrap_alloc@V?$allocator@V?$RefPtr@VObject@Glib@@@Glib@@@std@@@std@@V?$_Vector_val@U?$_Simple_types@V?$RefPtr@VObject@Glib@@@Glib@@@std@@@2@$00@std@@QEAA@XZ
    ?max_size@?$vector@V?$RefPtr@VObject@Glib@@@Glib@@V?$allocator@V?$RefPtr@VObject@Glib@@@Glib@@@std@@@std@@QEBA_KXZ
    ?_Buy@?$vector@V?$RefPtr@VObject@Glib@@@Glib@@V?$allocator@V?$RefPtr@VObject@Glib@@@Glib@@@std@@@std@@IEAA_N_K@Z
    ?_Destroy@?$vector@V?$RefPtr@VObject@Glib@@@Glib@@V?$allocator@V?$RefPtr@VObject@Glib@@@Glib@@@std@@@std@@IEAAXPEAV?$RefPtr@VObject@Glib@@@Glib@@0@Z
    ?_Tidy@?$vector@V?$RefPtr@VObject@Glib@@@Glib@@V?$allocator@V?$RefPtr@VObject@Glib@@@Glib@@@std@@@std@@IEAAXXZ
    ?_Xlen@?$vector@V?$RefPtr@VObject@Glib@@@Glib@@V?$allocator@V?$RefPtr@VObject@Glib@@@Glib@@@std@@@std@@IEBAXXZ
    ?to_cpp_type@?$TypeTraits@V?$RefPtr@VObject@Glib@@@Glib@@@Container_Helpers@Glib@@SA?AV?$RefPtr@VObject@Glib@@@3@PEAU_GObject@@@Z
    ?release_c_type@?$TypeTraits@V?$RefPtr@VObject@Glib@@@Glib@@@Container_Helpers@Glib@@SAXPEAU_GObject@@@Z
    ?slist_to_vector@?$SListHandler@V?$RefPtr@VObject@Glib@@@Glib@@U?$TypeTraits@V?$RefPtr@VObject@Glib@@@Glib@@@Container_Helpers@2@@Glib@@SA?AV?$vector@V?$RefPtr@VObject@Glib@@@Glib@@V?$allocator@V?$RefPtr@VObject@Glib@@@Glib@@@std@@@std@@PEAU_GSList@@W4OwnershipType@2@@Z
    ??0?$allocator@V?$RefPtr@$$CBVObject@Glib@@@Glib@@@std@@QEAA@XZ
    ?deallocate@?$allocator@V?$RefPtr@$$CBVObject@Glib@@@Glib@@@std@@QEAAXPEAV?$RefPtr@$$CBVObject@Glib@@@Glib@@_K@Z
    ?allocate@?$allocator@V?$RefPtr@$$CBVObject@Glib@@@Glib@@@std@@QEAAPEAV?$RefPtr@$$CBVObject@Glib@@@Glib@@_K@Z
    ?max_size@?$allocator@V?$RefPtr@$$CBVObject@Glib@@@Glib@@@std@@QEBA_KXZ
    ?max_size@?$allocator_traits@V?$allocator@V?$RefPtr@$$CBVObject@Glib@@@Glib@@@std@@@std@@SA_KAEBV?$allocator@V?$RefPtr@$$CBVObject@Glib@@@Glib@@@2@@Z
    ??0?$_Wrap_alloc@V?$allocator@V?$RefPtr@$$CBVObject@Glib@@@Glib@@@std@@@std@@QEAA@XZ
    ?allocate@?$_Wrap_alloc@V?$allocator@V?$RefPtr@$$CBVObject@Glib@@@Glib@@@std@@@std@@QEAAPEAV?$RefPtr@$$CBVObject@Glib@@@Glib@@_K@Z
    ?deallocate@?$_Wrap_alloc@V?$allocator@V?$RefPtr@$$CBVObject@Glib@@@Glib@@@std@@@std@@QEAAXPEAV?$RefPtr@$$CBVObject@Glib@@@Glib@@_K@Z
    ?max_size@?$_Wrap_alloc@V?$allocator@V?$RefPtr@$$CBVObject@Glib@@@Glib@@@std@@@std@@QEBA_KU_Nil@2@@Z
    ??0?$_Vector_alloc@U?$_Vec_base_types@V?$RefPtr@$$CBVObject@Glib@@@Glib@@V?$allocator@V?$RefPtr@$$CBVObject@Glib@@@Glib@@@std@@@std@@@std@@QEAA@XZ
    ??1?$_Vector_alloc@U?$_Vec_base_types@V?$RefPtr@$$CBVObject@Glib@@@Glib@@V?$allocator@V?$RefPtr@$$CBVObject@Glib@@@Glib@@@std@@@std@@@std@@QEAA@XZ
    ?_Alloc_proxy@?$_Vector_alloc@U?$_Vec_base_types@V?$RefPtr@$$CBVObject@Glib@@@Glib@@V?$allocator@V?$RefPtr@$$CBVObject@Glib@@@Glib@@@std@@@std@@@std@@QEAAXXZ
    ?_Free_proxy@?$_Vector_alloc@U?$_Vec_base_types@V?$RefPtr@$$CBVObject@Glib@@@Glib@@V?$allocator@V?$RefPtr@$$CBVObject@Glib@@@Glib@@@std@@@std@@@std@@QEAAXXZ
    ?_Myproxy@?$_Vector_alloc@U?$_Vec_base_types@V?$RefPtr@$$CBVObject@Glib@@@Glib@@V?$allocator@V?$RefPtr@$$CBVObject@Glib@@@Glib@@@std@@@std@@@std@@QEAAAEAPEAU_Container_proxy@2@XZ
    ?_Orphan_all@?$_Vector_alloc@U?$_Vec_base_types@V?$RefPtr@$$CBVObject@Glib@@@Glib@@V?$allocator@V?$RefPtr@$$CBVObject@Glib@@@Glib@@@std@@@std@@@std@@QEAAXXZ
    ?_Getal@?$_Vector_alloc@U?$_Vec_base_types@V?$RefPtr@$$CBVObject@Glib@@@Glib@@V?$allocator@V?$RefPtr@$$CBVObject@Glib@@@Glib@@@std@@@std@@@std@@QEAAAEAU?$_Wrap_alloc@V?$allocator@V?$RefPtr@$$CBVObject@Glib@@@Glib@@@std@@@2@XZ
    ?_Getal@?$_Vector_alloc@U?$_Vec_base_types@V?$RefPtr@$$CBVObject@Glib@@@Glib@@V?$allocator@V?$RefPtr@$$CBVObject@Glib@@@Glib@@@std@@@std@@@std@@QEBAAEBU?$_Wrap_alloc@V?$allocator@V?$RefPtr@$$CBVObject@Glib@@@Glib@@@std@@@2@XZ
    ?_Get_data@?$_Vector_alloc@U?$_Vec_base_types@V?$RefPtr@$$CBVObject@Glib@@@Glib@@V?$allocator@V?$RefPtr@$$CBVObject@Glib@@@Glib@@@std@@@std@@@std@@QEAAAEAV?$_Vector_val@U?$_Simple_types@V?$RefPtr@$$CBVObject@Glib@@@Glib@@@std@@@2@XZ
    ?_Myfirst@?$_Vector_alloc@U?$_Vec_base_types@V?$RefPtr@$$CBVObject@Glib@@@Glib@@V?$allocator@V?$RefPtr@$$CBVObject@Glib@@@Glib@@@std@@@std@@@std@@QEAAAEAPEAV?$RefPtr@$$CBVObject@Glib@@@Glib@@XZ
    ?_Mylast@?$_Vector_alloc@U?$_Vec_base_types@V?$RefPtr@$$CBVObject@Glib@@@Glib@@V?$allocator@V?$RefPtr@$$CBVObject@Glib@@@Glib@@@std@@@std@@@std@@QEAAAEAPEAV?$RefPtr@$$CBVObject@Glib@@@Glib@@XZ
    ?_Myend@?$_Vector_alloc@U?$_Vec_base_types@V?$RefPtr@$$CBVObject@Glib@@@Glib@@V?$allocator@V?$RefPtr@$$CBVObject@Glib@@@Glib@@@std@@@std@@@std@@QEAAAEAPEAV?$RefPtr@$$CBVObject@Glib@@@Glib@@XZ
    ??0?$_Vector_val@U?$_Simple_types@V?$RefPtr@$$CBVObject@Glib@@@Glib@@@std@@@std@@QEAA@XZ
    ??1?$_Vector_val@U?$_Simple_types@V?$RefPtr@$$CBVObject@Glib@@@Glib@@@std@@@std@@QEAA@XZ
    ?_Get_first@?$_Compressed_pair@U?$_Wrap_alloc@V?$allocator@V?$RefPtr@$$CBVObject@Glib@@@Glib@@@std@@@std@@V?$_Vector_val@U?$_Simple_types@V?$RefPtr@$$CBVObject@Glib@@@Glib@@@std@@@2@$00@std@@QEAAAEAU?$_Wrap_alloc@V?$allocator@V?$RefPtr@$$CBVObject@Glib@@@Glib@@@std@@@2@XZ
    ?_Get_first@?$_Compressed_pair@U?$_Wrap_alloc@V?$allocator@V?$RefPtr@$$CBVObject@Glib@@@Glib@@@std@@@std@@V?$_Vector_val@U?$_Simple_types@V?$RefPtr@$$CBVObject@Glib@@@Glib@@@std@@@2@$00@std@@QEBAAEBU?$_Wrap_alloc@V?$allocator@V?$RefPtr@$$CBVObject@Glib@@@Glib@@@std@@@2@XZ
    ?_Get_second@?$_Compressed_pair@U?$_Wrap_alloc@V?$allocator@V?$RefPtr@$$CBVObject@Glib@@@Glib@@@std@@@std@@V?$_Vector_val@U?$_Simple_types@V?$RefPtr@$$CBVObject@Glib@@@Glib@@@std@@@2@$00@std@@QEAAAEAV?$_Vector_val@U?$_Simple_types@V?$RefPtr@$$CBVObject@Glib@@@Glib@@@std@@@2@XZ
    ??1?$_Compressed_pair@U?$_Wrap_alloc@V?$allocator@V?$RefPtr@$$CBVObject@Glib@@@Glib@@@std@@@std@@V?$_Vector_val@U?$_Simple_types@V?$RefPtr@$$CBVObject@Glib@@@Glib@@@std@@@2@$00@std@@QEAA@XZ
    ?max_size@?$vector@V?$RefPtr@$$CBVObject@Glib@@@Glib@@V?$allocator@V?$RefPtr@$$CBVObject@Glib@@@Glib@@@std@@@std@@QEBA_KXZ
    ?_Buy@?$vector@V?$RefPtr@$$CBVObject@Glib@@@Glib@@V?$allocator@V?$RefPtr@$$CBVObject@Glib@@@Glib@@@std@@@std@@IEAA_N_K@Z
    ?_Destroy@?$vector@V?$RefPtr@$$CBVObject@Glib@@@Glib@@V?$allocator@V?$RefPtr@$$CBVObject@Glib@@@Glib@@@std@@@std@@IEAAXPEAV?$RefPtr@$$CBVObject@Glib@@@Glib@@0@Z
    ?_Tidy@?$vector@V?$RefPtr@$$CBVObject@Glib@@@Glib@@V?$allocator@V?$RefPtr@$$CBVObject@Glib@@@Glib@@@std@@@std@@IEAAXXZ
    ?_Xlen@?$vector@V?$RefPtr@$$CBVObject@Glib@@@Glib@@V?$allocator@V?$RefPtr@$$CBVObject@Glib@@@Glib@@@std@@@std@@IEBAXXZ
    ?to_cpp_type@?$TypeTraits@V?$RefPtr@$$CBVObject@Glib@@@Glib@@@Container_Helpers@Glib@@SA?AV?$RefPtr@$$CBVObject@Glib@@@3@PEBU_GObject@@@Z
    ?release_c_type@?$TypeTraits@V?$RefPtr@$$CBVObject@Glib@@@Glib@@@Container_Helpers@Glib@@SAXPEBU_GObject@@@Z
    ?slist_to_vector@?$SListHandler@V?$RefPtr@$$CBVObject@Glib@@@Glib@@U?$TypeTraits@V?$RefPtr@$$CBVObject@Glib@@@Glib@@@Container_Helpers@2@@Glib@@SA?AV?$vector@V?$RefPtr@$$CBVObject@Glib@@@Glib@@V?$allocator@V?$RefPtr@$$CBVObject@Glib@@@Glib@@@std@@@std@@PEAU_GSList@@W4OwnershipType@2@@Z
    ??$unwrap@VApplication@Gtk@@@Glib@@YAPEAU_GtkApplication@@AEBV?$RefPtr@VApplication@Gtk@@@0@@Z
    ??1?$RefPtr@VApplication@Gtk@@@Glib@@QEAA@XZ
    ??0?$RefPtr@VApplication@Gtk@@@Glib@@QEAA@$$QEAV01@@Z
    ??C?$RefPtr@VApplication@Gtk@@@Glib@@QEBAPEAVApplication@Gtk@@XZ
    ??B?$RefPtr@VApplication@Gtk@@@Glib@@QEBA_NXZ
    ?release@?$RefPtr@VApplication@Gtk@@@Glib@@QEAAPEAVApplication@Gtk@@XZ
    ??$?0VApplication@Gtk@@@?$RefPtr@$$CBVApplication@Gtk@@@Glib@@QEAA@$$QEAV?$RefPtr@VApplication@Gtk@@@1@@Z
    ??0?$PropertyProxy@Vustring@Glib@@@Glib@@QEAA@PEAVObjectBase@1@PEBD@Z
    ??0?$PropertyProxy_ReadOnly@Vustring@Glib@@@Glib@@QEAA@PEBVObjectBase@1@PEBD@Z
    ??$addressof@$$CBVustring@Glib@@@std@@YAPEBVustring@Glib@@AEBV12@@Z
    ??$?0$$V@?$_Compressed_pair@U?$_Wrap_alloc@V?$allocator@Vustring@Glib@@@std@@@std@@V?$_Vector_val@U?$_Simple_types@Vustring@Glib@@@std@@@2@$00@std@@QEAA@U_Zero_then_variadic_args_t@1@@Z
    ??$addressof@D@std@@YAPEADAEAD@Z
    ?deallocate@?$allocator@U_Container_proxy@std@@@std@@QEAAXPEAU_Container_proxy@2@_K@Z
    ?allocate@?$allocator@U_Container_proxy@std@@@std@@QEAAPEAU_Container_proxy@2@_K@Z
    ?allocate@?$_Wrap_alloc@V?$allocator@U_Container_proxy@std@@@std@@@std@@QEAAPEAU_Container_proxy@2@_K@Z
    ?deallocate@?$_Wrap_alloc@V?$allocator@U_Container_proxy@std@@@std@@@std@@QEAAXPEAU_Container_proxy@2@_K@Z
    ??$?0AEAU?$_Wrap_alloc@V?$allocator@V?$RefPtr@$$CBVObject@Glib@@@Glib@@@std@@@std@@@?$_Wrap_alloc@V?$allocator@U_Container_proxy@std@@@std@@@std@@QEAA@AEAU?$_Wrap_alloc@V?$allocator@V?$RefPtr@$$CBVObject@Glib@@@Glib@@@std@@@1@@Z
    ??$destroy@U_Container_proxy@std@@@?$_Wrap_alloc@V?$allocator@U_Container_proxy@std@@@std@@@std@@QEAAXPEAU_Container_proxy@1@@Z
    ??$?0AEAU?$_Wrap_alloc@V?$allocator@V?$RefPtr@VObject@Glib@@@Glib@@@std@@@std@@@?$_Wrap_alloc@V?$allocator@U_Container_proxy@std@@@std@@@std@@QEAA@AEAU?$_Wrap_alloc@V?$allocator@V?$RefPtr@VObject@Glib@@@Glib@@@std@@@1@@Z
    ??$?0AEAU?$_Wrap_alloc@V?$allocator@Vustring@Glib@@@std@@@std@@@?$_Wrap_alloc@V?$allocator@U_Container_proxy@std@@@std@@@std@@QEAA@AEAU?$_Wrap_alloc@V?$allocator@Vustring@Glib@@@std@@@1@@Z
    ??$construct@U_Container_proxy@std@@U12@@?$_Wrap_alloc@V?$allocator@U_Container_proxy@std@@@std@@@std@@QEAAXPEAU_Container_proxy@1@$$QEAU21@@Z
    ??$_Destroy_range@U?$_Wrap_alloc@V?$allocator@V?$RefPtr@$$CBVObject@Glib@@@Glib@@@std@@@std@@@std@@YAXPEAV?$RefPtr@$$CBVObject@Glib@@@Glib@@0AEAU?$_Wrap_alloc@V?$allocator@V?$RefPtr@$$CBVObject@Glib@@@Glib@@@std@@@0@@Z
    ??$_Destroy_range@U?$_Wrap_alloc@V?$allocator@V?$RefPtr@VObject@Glib@@@Glib@@@std@@@std@@@std@@YAXPEAV?$RefPtr@VObject@Glib@@@Glib@@0AEAU?$_Wrap_alloc@V?$allocator@V?$RefPtr@VObject@Glib@@@Glib@@@std@@@0@@Z
    ??$_Uninitialized_fill_n@PEAVustring@Glib@@_KU?$_Wrap_alloc@V?$allocator@Vustring@Glib@@@std@@@std@@@std@@YAXPEAVustring@Glib@@_KPEBV12@AEAU?$_Wrap_alloc@V?$allocator@Vustring@Glib@@@std@@@0@@Z
    ??$_Destroy_range@U?$_Wrap_alloc@V?$allocator@Vustring@Glib@@@std@@@std@@@std@@YAXPEAVustring@Glib@@0AEAU?$_Wrap_alloc@V?$allocator@Vustring@Glib@@@std@@@0@@Z
    ??0?$_Iterator012@Urandom_access_iterator_tag@std@@Vustring@Glib@@_JPEBV34@AEBV34@U_Iterator_base12@2@@std@@QEAA@XZ
    ??1?$_Iterator012@Urandom_access_iterator_tag@std@@Vustring@Glib@@_JPEBV34@AEBV34@U_Iterator_base12@2@@std@@QEAA@XZ
    ??0?$_Vector_const_iterator@V?$_Vector_val@U?$_Simple_types@Vustring@Glib@@@std@@@std@@@std@@QEAA@PEAVustring@Glib@@PEBU_Container_base12@1@@Z
    ??D?$_Vector_const_iterator@V?$_Vector_val@U?$_Simple_types@Vustring@Glib@@@std@@@std@@@std@@QEBAAEBVustring@Glib@@XZ
    ??E?$_Vector_const_iterator@V?$_Vector_val@U?$_Simple_types@Vustring@Glib@@@std@@@std@@@std@@QEAAAEAV01@XZ
    ??1?$_Vector_const_iterator@V?$_Vector_val@U?$_Simple_types@Vustring@Glib@@@std@@@std@@@std@@QEAA@XZ
    ??$create_array@U?$TypeTraits@Vustring@Glib@@@Container_Helpers@Glib@@@Container_Helpers@Glib@@YAPEAPEBDV?$_Vector_const_iterator@V?$_Vector_val@U?$_Simple_types@Vustring@Glib@@@std@@@std@@@std@@_K@Z
    ??0?$GSListKeeper@U?$TypeTraits@V?$RefPtr@VObject@Glib@@@Glib@@@Container_Helpers@Glib@@@Container_Helpers@Glib@@QEAA@PEBU_GSList@@W4OwnershipType@2@@Z
    ??1?$GSListKeeper@U?$TypeTraits@V?$RefPtr@VObject@Glib@@@Glib@@@Container_Helpers@Glib@@@Container_Helpers@Glib@@QEAA@XZ
    ??0?$SListIterator@U?$TypeTraits@V?$RefPtr@VObject@Glib@@@Glib@@@Container_Helpers@Glib@@@Container_Helpers@Glib@@QEAA@PEBU_GSList@@@Z
    ??D?$SListIterator@U?$TypeTraits@V?$RefPtr@VObject@Glib@@@Glib@@@Container_Helpers@Glib@@@Container_Helpers@Glib@@QEBA?AV?$RefPtr@VObject@Glib@@@2@XZ
    ??E?$SListIterator@U?$TypeTraits@V?$RefPtr@VObject@Glib@@@Glib@@@Container_Helpers@Glib@@@Container_Helpers@Glib@@QEAAAEAV012@XZ
    ??9?$SListIterator@U?$TypeTraits@V?$RefPtr@VObject@Glib@@@Glib@@@Container_Helpers@Glib@@@Container_Helpers@Glib@@QEBA_NAEBV012@@Z
    ??$?0V?$SListIterator@U?$TypeTraits@V?$RefPtr@VObject@Glib@@@Glib@@@Container_Helpers@Glib@@@Container_Helpers@Glib@@X@?$vector@V?$RefPtr@VObject@Glib@@@Glib@@V?$allocator@V?$RefPtr@VObject@Glib@@@Glib@@@std@@@std@@QEAA@V?$SListIterator@U?$TypeTraits@V?$RefPtr@VObject@Glib@@@Glib@@@Container_Helpers@Glib@@@Container_Helpers@Glib@@0@Z
    ??0?$GSListKeeper@U?$TypeTraits@V?$RefPtr@$$CBVObject@Glib@@@Glib@@@Container_Helpers@Glib@@@Container_Helpers@Glib@@QEAA@PEBU_GSList@@W4OwnershipType@2@@Z
    ??1?$GSListKeeper@U?$TypeTraits@V?$RefPtr@$$CBVObject@Glib@@@Glib@@@Container_Helpers@Glib@@@Container_Helpers@Glib@@QEAA@XZ
    ??0?$SListIterator@U?$TypeTraits@V?$RefPtr@$$CBVObject@Glib@@@Glib@@@Container_Helpers@Glib@@@Container_Helpers@Glib@@QEAA@PEBU_GSList@@@Z
    ??D?$SListIterator@U?$TypeTraits@V?$RefPtr@$$CBVObject@Glib@@@Glib@@@Container_Helpers@Glib@@@Container_Helpers@Glib@@QEBA?AV?$RefPtr@$$CBVObject@Glib@@@2@XZ
    ??E?$SListIterator@U?$TypeTraits@V?$RefPtr@$$CBVObject@Glib@@@Glib@@@Container_Helpers@Glib@@@Container_Helpers@Glib@@QEAAAEAV012@XZ
    ??9?$SListIterator@U?$TypeTraits@V?$RefPtr@$$CBVObject@Glib@@@Glib@@@Container_Helpers@Glib@@@Container_Helpers@Glib@@QEBA_NAEBV012@@Z
    ??$?0V?$SListIterator@U?$TypeTraits@V?$RefPtr@$$CBVObject@Glib@@@Glib@@@Container_Helpers@Glib@@@Container_Helpers@Glib@@X@?$vector@V?$RefPtr@$$CBVObject@Glib@@@Glib@@V?$allocator@V?$RefPtr@$$CBVObject@Glib@@@Glib@@@std@@@std@@QEAA@V?$SListIterator@U?$TypeTraits@V?$RefPtr@$$CBVObject@Glib@@@Glib@@@Container_Helpers@Glib@@@Container_Helpers@Glib@@0@Z
    ??$_Addressof@$$CBVustring@Glib@@@std@@YAPEBVustring@Glib@@AEBV12@U?$integral_constant@_N$0A@@0@@Z
    ??$_Addressof@D@std@@YAPEADAEADU?$integral_constant@_N$0A@@0@@Z
    ??$forward@AEAU?$_Wrap_alloc@V?$allocator@V?$RefPtr@$$CBVObject@Glib@@@Glib@@@std@@@std@@@std@@YAAEAU?$_Wrap_alloc@V?$allocator@V?$RefPtr@$$CBVObject@Glib@@@Glib@@@std@@@0@AEAU10@@Z
    ??$?0V?$RefPtr@$$CBVObject@Glib@@@Glib@@@?$allocator@U_Container_proxy@std@@@std@@QEAA@AEBV?$allocator@V?$RefPtr@$$CBVObject@Glib@@@Glib@@@1@@Z
    ??$destroy@U_Container_proxy@std@@@?$allocator_traits@V?$allocator@U_Container_proxy@std@@@std@@@std@@SAXAEAV?$allocator@U_Container_proxy@std@@@1@PEAU_Container_proxy@1@@Z
    ??$forward@AEAU?$_Wrap_alloc@V?$allocator@V?$RefPtr@VObject@Glib@@@Glib@@@std@@@std@@@std@@YAAEAU?$_Wrap_alloc@V?$allocator@V?$RefPtr@VObject@Glib@@@Glib@@@std@@@0@AEAU10@@Z
    ??$?0V?$RefPtr@VObject@Glib@@@Glib@@@?$allocator@U_Container_proxy@std@@@std@@QEAA@AEBV?$allocator@V?$RefPtr@VObject@Glib@@@Glib@@@1@@Z
    ??$forward@AEAU?$_Wrap_alloc@V?$allocator@Vustring@Glib@@@std@@@std@@@std@@YAAEAU?$_Wrap_alloc@V?$allocator@Vustring@Glib@@@std@@@0@AEAU10@@Z
    ??$?0Vustring@Glib@@@?$allocator@U_Container_proxy@std@@@std@@QEAA@AEBV?$allocator@Vustring@Glib@@@1@@Z
    ??$forward@U_Container_proxy@std@@@std@@YA$$QEAU_Container_proxy@0@AEAU10@@Z
    ??$construct@U_Container_proxy@std@@U12@@?$allocator_traits@V?$allocator@U_Container_proxy@std@@@std@@@std@@SAXAEAV?$allocator@U_Container_proxy@std@@@1@PEAU_Container_proxy@1@$$QEAU31@@Z
    ??$addressof@V?$RefPtr@$$CBVObject@Glib@@@Glib@@@std@@YAPEAV?$RefPtr@$$CBVObject@Glib@@@Glib@@AEAV12@@Z
    ??$destroy@V?$RefPtr@$$CBVObject@Glib@@@Glib@@@?$_Wrap_alloc@V?$allocator@V?$RefPtr@$$CBVObject@Glib@@@Glib@@@std@@@std@@QEAAXPEAV?$RefPtr@$$CBVObject@Glib@@@Glib@@@Z
    ??$addressof@V?$RefPtr@VObject@Glib@@@Glib@@@std@@YAPEAV?$RefPtr@VObject@Glib@@@Glib@@AEAV12@@Z
    ??$destroy@V?$RefPtr@VObject@Glib@@@Glib@@@?$_Wrap_alloc@V?$allocator@V?$RefPtr@VObject@Glib@@@Glib@@@std@@@std@@QEAAXPEAV?$RefPtr@VObject@Glib@@@Glib@@@Z
    ??$_Fill_memset_is_safe@PEAVustring@Glib@@V12@@std@@YA?AU?$integral_constant@_N$0A@@0@AEBQEAVustring@Glib@@AEBV23@@Z
    ??$_Uninit_alloc_fill_n1@PEAVustring@Glib@@_KV?$allocator@Vustring@Glib@@@std@@U?$integral_constant@_N$0A@@4@@std@@YAXPEAVustring@Glib@@_KPEBV12@AEAU?$_Wrap_alloc@V?$allocator@Vustring@Glib@@@std@@@0@U?$integral_constant@_N$0A@@0@@Z
    ??$addressof@Vustring@Glib@@@std@@YAPEAVustring@Glib@@AEAV12@@Z
    ??$destroy@Vustring@Glib@@@?$_Wrap_alloc@V?$allocator@Vustring@Glib@@@std@@@std@@QEAAXPEAVustring@Glib@@@Z
    ??$_Construct@V?$SListIterator@U?$TypeTraits@V?$RefPtr@VObject@Glib@@@Glib@@@Container_Helpers@Glib@@@Container_Helpers@Glib@@@?$vector@V?$RefPtr@VObject@Glib@@@Glib@@V?$allocator@V?$RefPtr@VObject@Glib@@@Glib@@@std@@@std@@QEAAXV?$SListIterator@U?$TypeTraits@V?$RefPtr@VObject@Glib@@@Glib@@@Container_Helpers@Glib@@@Container_Helpers@Glib@@0@Z
    ??$_Construct@V?$SListIterator@U?$TypeTraits@V?$RefPtr@$$CBVObject@Glib@@@Glib@@@Container_Helpers@Glib@@@Container_Helpers@Glib@@@?$vector@V?$RefPtr@$$CBVObject@Glib@@@Glib@@V?$allocator@V?$RefPtr@$$CBVObject@Glib@@@Glib@@@std@@@std@@QEAAXV?$SListIterator@U?$TypeTraits@V?$RefPtr@$$CBVObject@Glib@@@Glib@@@Container_Helpers@Glib@@@Container_Helpers@Glib@@0@Z
    ??$destroy@U_Container_proxy@std@@@?$allocator@U_Container_proxy@std@@@std@@QEAAXPEAU_Container_proxy@1@@Z
    ??$construct@U_Container_proxy@std@@U12@@?$allocator@U_Container_proxy@std@@@std@@QEAAXPEAU_Container_proxy@1@$$QEAU21@@Z
    ??$_Addressof@V?$RefPtr@$$CBVObject@Glib@@@Glib@@@std@@YAPEAV?$RefPtr@$$CBVObject@Glib@@@Glib@@AEAV12@U?$integral_constant@_N$0A@@0@@Z
    ??$destroy@V?$RefPtr@$$CBVObject@Glib@@@Glib@@@?$allocator_traits@V?$allocator@V?$RefPtr@$$CBVObject@Glib@@@Glib@@@std@@@std@@SAXAEAV?$allocator@V?$RefPtr@$$CBVObject@Glib@@@Glib@@@1@PEAV?$RefPtr@$$CBVObject@Glib@@@Glib@@@Z
    ??$_Addressof@V?$RefPtr@VObject@Glib@@@Glib@@@std@@YAPEAV?$RefPtr@VObject@Glib@@@Glib@@AEAV12@U?$integral_constant@_N$0A@@0@@Z
    ??$destroy@V?$RefPtr@VObject@Glib@@@Glib@@@?$allocator_traits@V?$allocator@V?$RefPtr@VObject@Glib@@@Glib@@@std@@@std@@SAXAEAV?$allocator@V?$RefPtr@VObject@Glib@@@Glib@@@1@PEAV?$RefPtr@VObject@Glib@@@Glib@@@Z
    ??$construct@Vustring@Glib@@AEBV12@@?$_Wrap_alloc@V?$allocator@Vustring@Glib@@@std@@@std@@QEAAXPEAVustring@Glib@@AEBV23@@Z
    ??$_Addressof@Vustring@Glib@@@std@@YAPEAVustring@Glib@@AEAV12@U?$integral_constant@_N$0A@@0@@Z
    ??$destroy@Vustring@Glib@@@?$allocator_traits@V?$allocator@Vustring@Glib@@@std@@@std@@SAXAEAV?$allocator@Vustring@Glib@@@1@PEAVustring@Glib@@@Z
    ??$?0$$V@?$_Compressed_pair@U?$_Wrap_alloc@V?$allocator@V?$RefPtr@$$CBVObject@Glib@@@Glib@@@std@@@std@@V?$_Vector_val@U?$_Simple_types@V?$RefPtr@$$CBVObject@Glib@@@Glib@@@std@@@2@$00@std@@QEAA@U_Zero_then_variadic_args_t@1@@Z
    ??$?0$$V@?$_Compressed_pair@U?$_Wrap_alloc@V?$allocator@V?$RefPtr@VObject@Glib@@@Glib@@@std@@@std@@V?$_Vector_val@U?$_Simple_types@V?$RefPtr@VObject@Glib@@@Glib@@@std@@@2@$00@std@@QEAA@U_Zero_then_variadic_args_t@1@@Z
    ??$_Iter_cat@V?$SListIterator@U?$TypeTraits@V?$RefPtr@VObject@Glib@@@Glib@@@Container_Helpers@Glib@@@Container_Helpers@Glib@@@std@@YA?AUforward_iterator_tag@0@AEBV?$SListIterator@U?$TypeTraits@V?$RefPtr@VObject@Glib@@@Glib@@@Container_Helpers@Glib@@@Container_Helpers@Glib@@@Z
    ??$_Construct@V?$SListIterator@U?$TypeTraits@V?$RefPtr@VObject@Glib@@@Glib@@@Container_Helpers@Glib@@@Container_Helpers@Glib@@@?$vector@V?$RefPtr@VObject@Glib@@@Glib@@V?$allocator@V?$RefPtr@VObject@Glib@@@Glib@@@std@@@std@@QEAAXV?$SListIterator@U?$TypeTraits@V?$RefPtr@VObject@Glib@@@Glib@@@Container_Helpers@Glib@@@Container_Helpers@Glib@@0Uforward_iterator_tag@1@@Z
    ??$_Iter_cat@V?$SListIterator@U?$TypeTraits@V?$RefPtr@$$CBVObject@Glib@@@Glib@@@Container_Helpers@Glib@@@Container_Helpers@Glib@@@std@@YA?AUforward_iterator_tag@0@AEBV?$SListIterator@U?$TypeTraits@V?$RefPtr@$$CBVObject@Glib@@@Glib@@@Container_Helpers@Glib@@@Container_Helpers@Glib@@@Z
    ??$_Construct@V?$SListIterator@U?$TypeTraits@V?$RefPtr@$$CBVObject@Glib@@@Glib@@@Container_Helpers@Glib@@@Container_Helpers@Glib@@@?$vector@V?$RefPtr@$$CBVObject@Glib@@@Glib@@V?$allocator@V?$RefPtr@$$CBVObject@Glib@@@Glib@@@std@@@std@@QEAAXV?$SListIterator@U?$TypeTraits@V?$RefPtr@$$CBVObject@Glib@@@Glib@@@Container_Helpers@Glib@@@Container_Helpers@Glib@@0Uforward_iterator_tag@1@@Z
    ??$destroy@V?$RefPtr@$$CBVObject@Glib@@@Glib@@@?$allocator@V?$RefPtr@$$CBVObject@Glib@@@Glib@@@std@@QEAAXPEAV?$RefPtr@$$CBVObject@Glib@@@Glib@@@Z
    ??$destroy@V?$RefPtr@VObject@Glib@@@Glib@@@?$allocator@V?$RefPtr@VObject@Glib@@@Glib@@@std@@QEAAXPEAV?$RefPtr@VObject@Glib@@@Glib@@@Z
    ??$forward@AEBVustring@Glib@@@std@@YAAEBVustring@Glib@@AEBV12@@Z
    ??$construct@Vustring@Glib@@AEBV12@@?$allocator_traits@V?$allocator@Vustring@Glib@@@std@@@std@@SAXAEAV?$allocator@Vustring@Glib@@@1@PEAVustring@Glib@@AEBV34@@Z
    ??$destroy@Vustring@Glib@@@?$allocator@Vustring@Glib@@@std@@QEAAXPEAVustring@Glib@@@Z
    ??$distance@V?$SListIterator@U?$TypeTraits@V?$RefPtr@VObject@Glib@@@Glib@@@Container_Helpers@Glib@@@Container_Helpers@Glib@@@std@@YA_JV?$SListIterator@U?$TypeTraits@V?$RefPtr@VObject@Glib@@@Glib@@@Container_Helpers@Glib@@@Container_Helpers@Glib@@0@Z
    ??$_Ucopy@V?$SListIterator@U?$TypeTraits@V?$RefPtr@VObject@Glib@@@Glib@@@Container_Helpers@Glib@@@Container_Helpers@Glib@@@?$vector@V?$RefPtr@VObject@Glib@@@Glib@@V?$allocator@V?$RefPtr@VObject@Glib@@@Glib@@@std@@@std@@IEAAPEAV?$RefPtr@VObject@Glib@@@Glib@@V?$SListIterator@U?$TypeTraits@V?$RefPtr@VObject@Glib@@@Glib@@@Container_Helpers@Glib@@@Container_Helpers@3@0PEAV23@@Z
    ??$distance@V?$SListIterator@U?$TypeTraits@V?$RefPtr@$$CBVObject@Glib@@@Glib@@@Container_Helpers@Glib@@@Container_Helpers@Glib@@@std@@YA_JV?$SListIterator@U?$TypeTraits@V?$RefPtr@$$CBVObject@Glib@@@Glib@@@Container_Helpers@Glib@@@Container_Helpers@Glib@@0@Z
    ??$_Ucopy@V?$SListIterator@U?$TypeTraits@V?$RefPtr@$$CBVObject@Glib@@@Glib@@@Container_Helpers@Glib@@@Container_Helpers@Glib@@@?$vector@V?$RefPtr@$$CBVObject@Glib@@@Glib@@V?$allocator@V?$RefPtr@$$CBVObject@Glib@@@Glib@@@std@@@std@@IEAAPEAV?$RefPtr@$$CBVObject@Glib@@@Glib@@V?$SListIterator@U?$TypeTraits@V?$RefPtr@$$CBVObject@Glib@@@Glib@@@Container_Helpers@Glib@@@Container_Helpers@3@0PEAV23@@Z
    ??$construct@Vustring@Glib@@AEBV12@@?$allocator@Vustring@Glib@@@std@@QEAAXPEAVustring@Glib@@AEBV23@@Z
    ??$_Distance2@V?$SListIterator@U?$TypeTraits@V?$RefPtr@VObject@Glib@@@Glib@@@Container_Helpers@Glib@@@Container_Helpers@Glib@@_J@std@@YAXV?$SListIterator@U?$TypeTraits@V?$RefPtr@VObject@Glib@@@Glib@@@Container_Helpers@Glib@@@Container_Helpers@Glib@@0AEA_JUforward_iterator_tag@0@@Z
    ??$_Uninitialized_copy@V?$SListIterator@U?$TypeTraits@V?$RefPtr@VObject@Glib@@@Glib@@@Container_Helpers@Glib@@@Container_Helpers@Glib@@PEAV?$RefPtr@VObject@Glib@@@3@U?$_Wrap_alloc@V?$allocator@V?$RefPtr@VObject@Glib@@@Glib@@@std@@@std@@@std@@YAPEAV?$RefPtr@VObject@Glib@@@Glib@@V?$SListIterator@U?$TypeTraits@V?$RefPtr@VObject@Glib@@@Glib@@@Container_Helpers@Glib@@@Container_Helpers@2@0PEAV12@AEAU?$_Wrap_alloc@V?$allocator@V?$RefPtr@VObject@Glib@@@Glib@@@std@@@0@@Z
    ??$_Distance2@V?$SListIterator@U?$TypeTraits@V?$RefPtr@$$CBVObject@Glib@@@Glib@@@Container_Helpers@Glib@@@Container_Helpers@Glib@@_J@std@@YAXV?$SListIterator@U?$TypeTraits@V?$RefPtr@$$CBVObject@Glib@@@Glib@@@Container_Helpers@Glib@@@Container_Helpers@Glib@@0AEA_JUforward_iterator_tag@0@@Z
    ??$_Uninitialized_copy@V?$SListIterator@U?$TypeTraits@V?$RefPtr@$$CBVObject@Glib@@@Glib@@@Container_Helpers@Glib@@@Container_Helpers@Glib@@PEAV?$RefPtr@$$CBVObject@Glib@@@3@U?$_Wrap_alloc@V?$allocator@V?$RefPtr@$$CBVObject@Glib@@@Glib@@@std@@@std@@@std@@YAPEAV?$RefPtr@$$CBVObject@Glib@@@Glib@@V?$SListIterator@U?$TypeTraits@V?$RefPtr@$$CBVObject@Glib@@@Glib@@@Container_Helpers@Glib@@@Container_Helpers@2@0PEAV12@AEAU?$_Wrap_alloc@V?$allocator@V?$RefPtr@$$CBVObject@Glib@@@Glib@@@std@@@0@@Z
    ??$_Unchecked@V?$SListIterator@U?$TypeTraits@V?$RefPtr@VObject@Glib@@@Glib@@@Container_Helpers@Glib@@@Container_Helpers@Glib@@@std@@YA?AV?$SListIterator@U?$TypeTraits@V?$RefPtr@VObject@Glib@@@Glib@@@Container_Helpers@Glib@@@Container_Helpers@Glib@@V123@@Z
    ??$_Unchecked@PEAV?$RefPtr@VObject@Glib@@@Glib@@@std@@YAPEAV?$RefPtr@VObject@Glib@@@Glib@@PEAV12@@Z
    ??$_Uninitialized_copy_al_unchecked@V?$SListIterator@U?$TypeTraits@V?$RefPtr@VObject@Glib@@@Glib@@@Container_Helpers@Glib@@@Container_Helpers@Glib@@PEAV?$RefPtr@VObject@Glib@@@3@U?$_Wrap_alloc@V?$allocator@V?$RefPtr@VObject@Glib@@@Glib@@@std@@@std@@@std@@YAPEAV?$RefPtr@VObject@Glib@@@Glib@@V?$SListIterator@U?$TypeTraits@V?$RefPtr@VObject@Glib@@@Glib@@@Container_Helpers@Glib@@@Container_Helpers@2@0PEAV12@AEAU?$_Wrap_alloc@V?$allocator@V?$RefPtr@VObject@Glib@@@Glib@@@std@@@0@@Z
    ??$_Rechecked@PEAV?$RefPtr@VObject@Glib@@@Glib@@PEAV12@@std@@YAAEAPEAV?$RefPtr@VObject@Glib@@@Glib@@AEAPEAV12@PEAV12@@Z
    ??$_Unchecked@V?$SListIterator@U?$TypeTraits@V?$RefPtr@$$CBVObject@Glib@@@Glib@@@Container_Helpers@Glib@@@Container_Helpers@Glib@@@std@@YA?AV?$SListIterator@U?$TypeTraits@V?$RefPtr@$$CBVObject@Glib@@@Glib@@@Container_Helpers@Glib@@@Container_Helpers@Glib@@V123@@Z
    ??$_Unchecked@PEAV?$RefPtr@$$CBVObject@Glib@@@Glib@@@std@@YAPEAV?$RefPtr@$$CBVObject@Glib@@@Glib@@PEAV12@@Z
    ??$_Uninitialized_copy_al_unchecked@V?$SListIterator@U?$TypeTraits@V?$RefPtr@$$CBVObject@Glib@@@Glib@@@Container_Helpers@Glib@@@Container_Helpers@Glib@@PEAV?$RefPtr@$$CBVObject@Glib@@@3@U?$_Wrap_alloc@V?$allocator@V?$RefPtr@$$CBVObject@Glib@@@Glib@@@std@@@std@@@std@@YAPEAV?$RefPtr@$$CBVObject@Glib@@@Glib@@V?$SListIterator@U?$TypeTraits@V?$RefPtr@$$CBVObject@Glib@@@Glib@@@Container_Helpers@Glib@@@Container_Helpers@2@0PEAV12@AEAU?$_Wrap_alloc@V?$allocator@V?$RefPtr@$$CBVObject@Glib@@@Glib@@@std@@@0@@Z
    ??$_Rechecked@PEAV?$RefPtr@$$CBVObject@Glib@@@Glib@@PEAV12@@std@@YAAEAPEAV?$RefPtr@$$CBVObject@Glib@@@Glib@@AEAPEAV12@PEAV12@@Z
    ??$_Ptr_copy_cat@V?$SListIterator@U?$TypeTraits@V?$RefPtr@VObject@Glib@@@Glib@@@Container_Helpers@Glib@@@Container_Helpers@Glib@@PEAV?$RefPtr@VObject@Glib@@@3@@std@@YA?AU_General_ptr_iterator_tag@0@AEBV?$SListIterator@U?$TypeTraits@V?$RefPtr@VObject@Glib@@@Glib@@@Container_Helpers@Glib@@@Container_Helpers@Glib@@AEBQEAV?$RefPtr@VObject@Glib@@@4@@Z
    ??$_Uninitialized_copy_al_unchecked1@V?$SListIterator@U?$TypeTraits@V?$RefPtr@VObject@Glib@@@Glib@@@Container_Helpers@Glib@@@Container_Helpers@Glib@@PEAV?$RefPtr@VObject@Glib@@@3@V?$allocator@V?$RefPtr@VObject@Glib@@@Glib@@@std@@@std@@YAPEAV?$RefPtr@VObject@Glib@@@Glib@@V?$SListIterator@U?$TypeTraits@V?$RefPtr@VObject@Glib@@@Glib@@@Container_Helpers@Glib@@@Container_Helpers@2@0PEAV12@AEAU?$_Wrap_alloc@V?$allocator@V?$RefPtr@VObject@Glib@@@Glib@@@std@@@0@U_General_ptr_iterator_tag@0@@Z
    ??$_Ptr_copy_cat@V?$SListIterator@U?$TypeTraits@V?$RefPtr@$$CBVObject@Glib@@@Glib@@@Container_Helpers@Glib@@@Container_Helpers@Glib@@PEAV?$RefPtr@$$CBVObject@Glib@@@3@@std@@YA?AU_General_ptr_iterator_tag@0@AEBV?$SListIterator@U?$TypeTraits@V?$RefPtr@$$CBVObject@Glib@@@Glib@@@Container_Helpers@Glib@@@Container_Helpers@Glib@@AEBQEAV?$RefPtr@$$CBVObject@Glib@@@4@@Z
    ??$_Uninitialized_copy_al_unchecked1@V?$SListIterator@U?$TypeTraits@V?$RefPtr@$$CBVObject@Glib@@@Glib@@@Container_Helpers@Glib@@@Container_Helpers@Glib@@PEAV?$RefPtr@$$CBVObject@Glib@@@3@V?$allocator@V?$RefPtr@$$CBVObject@Glib@@@Glib@@@std@@@std@@YAPEAV?$RefPtr@$$CBVObject@Glib@@@Glib@@V?$SListIterator@U?$TypeTraits@V?$RefPtr@$$CBVObject@Glib@@@Glib@@@Container_Helpers@Glib@@@Container_Helpers@2@0PEAV12@AEAU?$_Wrap_alloc@V?$allocator@V?$RefPtr@$$CBVObject@Glib@@@Glib@@@std@@@0@U_General_ptr_iterator_tag@0@@Z
    ??$construct@V?$RefPtr@VObject@Glib@@@Glib@@V12@@?$_Wrap_alloc@V?$allocator@V?$RefPtr@VObject@Glib@@@Glib@@@std@@@std@@QEAAXPEAV?$RefPtr@VObject@Glib@@@Glib@@$$QEAV23@@Z
    ??$construct@V?$RefPtr@$$CBVObject@Glib@@@Glib@@V12@@?$_Wrap_alloc@V?$allocator@V?$RefPtr@$$CBVObject@Glib@@@Glib@@@std@@@std@@QEAAXPEAV?$RefPtr@$$CBVObject@Glib@@@Glib@@$$QEAV23@@Z
    ??$forward@V?$RefPtr@VObject@Glib@@@Glib@@@std@@YA$$QEAV?$RefPtr@VObject@Glib@@@Glib@@AEAV12@@Z
    ??$construct@V?$RefPtr@VObject@Glib@@@Glib@@V12@@?$allocator_traits@V?$allocator@V?$RefPtr@VObject@Glib@@@Glib@@@std@@@std@@SAXAEAV?$allocator@V?$RefPtr@VObject@Glib@@@Glib@@@1@PEAV?$RefPtr@VObject@Glib@@@Glib@@$$QEAV34@@Z
    ??$forward@V?$RefPtr@$$CBVObject@Glib@@@Glib@@@std@@YA$$QEAV?$RefPtr@$$CBVObject@Glib@@@Glib@@AEAV12@@Z
    ??$construct@V?$RefPtr@$$CBVObject@Glib@@@Glib@@V12@@?$allocator_traits@V?$allocator@V?$RefPtr@$$CBVObject@Glib@@@Glib@@@std@@@std@@SAXAEAV?$allocator@V?$RefPtr@$$CBVObject@Glib@@@Glib@@@1@PEAV?$RefPtr@$$CBVObject@Glib@@@Glib@@$$QEAV34@@Z
    ??$construct@V?$RefPtr@VObject@Glib@@@Glib@@V12@@?$allocator@V?$RefPtr@VObject@Glib@@@Glib@@@std@@QEAAXPEAV?$RefPtr@VObject@Glib@@@Glib@@$$QEAV23@@Z
    ??$construct@V?$RefPtr@$$CBVObject@Glib@@@Glib@@V12@@?$allocator@V?$RefPtr@$$CBVObject@Glib@@@Glib@@@std@@QEAAXPEAV?$RefPtr@$$CBVObject@Glib@@@Glib@@$$QEAV23@@Z
    ??_C@_1GG@JLKIFLPB@?$AAD?$AA?3?$AA?2?$AAG?$AAi?$AAt?$AAH?$AAu?$AAb?$AA?2?$AAI?$AAn?$AAs?$AAt?$AAa?$AAl?$AAl?$AA?2?$AAV?$AAi?$AAs?$AAu?$AAa?$AAl?$AAS?$AAt?$AAu?$AAd?$AAi?$AAo?$AA?2?$AAV@
    ??_C@_1DC@POOIKBAO@?$AAI?$AAT?$AAE?$AAR?$AAA?$AAT?$AAO?$AAR?$AA?5?$AAL?$AAI?$AAS?$AAT?$AA?5?$AAC?$AAO?$AAR?$AAR?$AAU?$AAP?$AAT?$AAE?$AAD?$AA?$CB?$AA?$AA@
    ??_C@_0BE@LMNLACIC@_Ptr_container?5?$CB?$DN?50?$AA@
    ??_C@_1DG@HGDKEBPG@?$AA?$CC?$AA_?$AAP?$AAt?$AAr?$AA_?$AAc?$AAo?$AAn?$AAt?$AAa?$AAi?$AAn?$AAe?$AAr?$AA?5?$AA?$CB?$AA?$DN?$AA?5?$AA0?$AA?$CC?$AA?5?$AA?$CG?$AA?$CG?$AA?5?$AA0?$AA?$AA@
    ??_C@_17CNPHIMPH@?$AA?$CF?$AAl?$AAs?$AA?$AA@
    ??_C@_1GG@GGEDIOFC@?$AAD?$AA?3?$AA?2?$AAG?$AAi?$AAt?$AAH?$AAu?$AAb?$AA?2?$AAI?$AAn?$AAs?$AAt?$AAa?$AAl?$AAl?$AA?2?$AAV?$AAi?$AAs?$AAu?$AAa?$AAl?$AAS?$AAt?$AAu?$AAd?$AAi?$AAo?$AA?2?$AAV@
    ??_C@_1BO@NKFMJPA@?$AAs?$AAt?$AAd?$AA?3?$AA?3?$AA_?$AAA?$AAl?$AAl?$AAo?$AAc?$AAa?$AAt?$AAe?$AA?$AA@
    ??_C@_1CG@JNLFBNGN@?$AA?$CC?$AAi?$AAn?$AAv?$AAa?$AAl?$AAi?$AAd?$AA?5?$AAa?$AAr?$AAg?$AAu?$AAm?$AAe?$AAn?$AAt?$AA?$CC?$AA?$AA@
    ??_C@_09GLJCAGLP@_Ptr?5?$CB?$DN?50?$AA@
    ??_C@_1CC@GKJLLHIM@?$AA?$CC?$AA_?$AAP?$AAt?$AAr?$AA?5?$AA?$CB?$AA?$DN?$AA?5?$AA0?$AA?$CC?$AA?5?$AA?$CG?$AA?$CG?$AA?5?$AA0?$AA?$AA@
    ??_C@_0BN@HMCJOMKN@_Count?5?$DM?$DN?5?$CIsize_t?$CJ?$CI?91?$CJ?5?1?5_Sz?$AA@
    ??_C@_1EI@MLOBABC@?$AA?$CC?$AA_?$AAC?$AAo?$AAu?$AAn?$AAt?$AA?5?$AA?$DM?$AA?$DN?$AA?5?$AA?$CI?$AAs?$AAi?$AAz?$AAe?$AA_?$AAt?$AA?$CJ?$AA?$CI?$AA?9?$AA1?$AA?$CJ?$AA?5?$AA?1?$AA?5?$AA_?$AAS?$AAz?$AA?$CC?$AA?5?$AA?$CG@
    ??_C@_1CC@LOFJFFDB@?$AAs?$AAt?$AAd?$AA?3?$AA?3?$AA_?$AAD?$AAe?$AAa?$AAl?$AAl?$AAo?$AAc?$AAa?$AAt?$AAe?$AA?$AA@
    ??_C@_0DD@GBGGGKGG@?$CI_Ptr_user?5?$CG?5?$CI_BIG_ALLOCATION_AL@
    ??_C@_1HE@CDMBFOKC@?$AA?$CC?$AA?$CI?$AA_?$AAP?$AAt?$AAr?$AA_?$AAu?$AAs?$AAe?$AAr?$AA?5?$AA?$CG?$AA?5?$AA?$CI?$AA_?$AAB?$AAI?$AAG?$AA_?$AAA?$AAL?$AAL?$AAO?$AAC?$AAA?$AAT?$AAI?$AAO?$AAN?$AA_?$AAA@
    ??_C@_0EI@NOJHEJCJ@reinterpret_cast?$DMuintptr_t?5?$CK?$DO?$CI_P@
    ??_C@_1JO@EKLKIEHP@?$AA?$CC?$AAr?$AAe?$AAi?$AAn?$AAt?$AAe?$AAr?$AAp?$AAr?$AAe?$AAt?$AA_?$AAc?$AAa?$AAs?$AAt?$AA?$DM?$AAu?$AAi?$AAn?$AAt?$AAp?$AAt?$AAr?$AA_?$AAt?$AA?5?$AA?$CK?$AA?$DO?$AA?$CI?$AA_@
    ??_C@_0BL@OCKMEJON@_Ptr_container?5?$DM?5_Ptr_user?$AA@
    ??_C@_1EE@PDHAHDDC@?$AA?$CC?$AA_?$AAP?$AAt?$AAr?$AA_?$AAc?$AAo?$AAn?$AAt?$AAa?$AAi?$AAn?$AAe?$AAr?$AA?5?$AA?$DM?$AA?5?$AA_?$AAP?$AAt?$AAr?$AA_?$AAu?$AAs?$AAe?$AAr?$AA?$CC?$AA?5?$AA?$CG?$AA?$CG?$AA?5@
    ??_C@_0DB@GLFJLNCE@2?5?$CK?5sizeof?$CIvoid?5?$CK?$CJ?5?$DM?$DN?5_Ptr_user?5@
    ??_C@_1HA@NAPGMHAO@?$AA?$CC?$AA2?$AA?5?$AA?$CK?$AA?5?$AAs?$AAi?$AAz?$AAe?$AAo?$AAf?$AA?$CI?$AAv?$AAo?$AAi?$AAd?$AA?5?$AA?$CK?$AA?$CJ?$AA?5?$AA?$DM?$AA?$DN?$AA?5?$AA_?$AAP?$AAt?$AAr?$AA_?$AAu?$AAs?$AAe?$AAr@
    ??_C@_0CN@BLHJCAL@_Ptr_user?5?9?5_Ptr_container?5?$DM?$DN?5_N@
    ??_C@_1GI@DHJGPFNI@?$AA?$CC?$AA_?$AAP?$AAt?$AAr?$AA_?$AAu?$AAs?$AAe?$AAr?$AA?5?$AA?9?$AA?5?$AA_?$AAP?$AAt?$AAr?$AA_?$AAc?$AAo?$AAn?$AAt?$AAa?$AAi?$AAn?$AAe?$AAr?$AA?5?$AA?$DM?$AA?$DN?$AA?5?$AA_@
    ??_7Exception@Glib@@6B@
    ??_7BuilderError@Gtk@@6B@
    ??_7Builder@Gtk@@6B@
    ??_8Builder@Gtk@@7BObject@Glib@@@
    ??_8Builder@Gtk@@7BObjectBase@Glib@@@
    ?quark_no_gtkmm_derived_types@?A0xc0b89670@@3IA
    _TI3?AVBuilderError@Gtk@@
    _CTA3?AVBuilderError@Gtk@@
    ??_R0?AVBuilderError@Gtk@@@8
    _CT??_R0?AVBuilderError@Gtk@@@8??0BuilderError@Gtk@@QEAA@AEBV01@@Z16
    ??_R0?AVError@Glib@@@8
    _CT??_R0?AVError@Glib@@@8??0Error@Glib@@QEAA@AEBV01@@Z16
    ??_R0?AVException@Glib@@@8
    _CT??_R0?AVException@Glib@@@8??0Exception@Glib@@QEAA@AEBV01@@Z8
    ??_R0?AVObjectBase@Glib@@@8
    ??_R0?AVBuilder@Gtk@@@8
    ??_C@_0CE@OFMIGAMM@Standard?5C?$CL?$CL?5Libraries?5Out?5of?5Ra@
    ??_C@_1FG@IBPIFFN@?$AA?$CC?$AAS?$AAt?$AAa?$AAn?$AAd?$AAa?$AAr?$AAd?$AA?5?$AAC?$AA?$CL?$AA?$CL?$AA?5?$AAL?$AAi?$AAb?$AAr?$AAa?$AAr?$AAi?$AAe?$AAs?$AA?5?$AAO?$AAu?$AAt?$AA?5?$AAo?$AAf?$AA?5?$AAR@
    ??_C@_1BO@MEPPHOO@?$AA?$CC?$AAo?$AAu?$AAt?$AA?5?$AAo?$AAf?$AA?5?$AAr?$AAa?$AAn?$AAg?$AAe?$AA?$CC?$AA?$AA@
    ??_C@_0BD@OLBABOEK@vector?$DMT?$DO?5too?5long?$AA@
    ??_C@_1GC@GDINDADF@?$AAD?$AA?3?$AA?2?$AAG?$AAi?$AAt?$AAH?$AAu?$AAb?$AA?2?$AAI?$AAn?$AAs?$AAt?$AAa?$AAl?$AAl?$AA?2?$AAV?$AAi?$AAs?$AAu?$AAa?$AAl?$AAS?$AAt?$AAu?$AAd?$AAi?$AAo?$AA?2?$AAV@
    ??_C@_1EE@EJDKCLKB@?$AAv?$AAe?$AAc?$AAt?$AAo?$AAr?$AA?5?$AAi?$AAt?$AAe?$AAr?$AAa?$AAt?$AAo?$AAr?$AA?5?$AAn?$AAo?$AAt?$AA?5?$AAi?$AAn?$AAc?$AAr?$AAe?$AAm?$AAe?$AAn?$AAt?$AAa?$AAb?$AAl@
    ??_C@_1OG@NIJLJENJ@?$AAs?$AAt?$AAd?$AA?3?$AA?3?$AA_?$AAV?$AAe?$AAc?$AAt?$AAo?$AAr?$AA_?$AAc?$AAo?$AAn?$AAs?$AAt?$AA_?$AAi?$AAt?$AAe?$AAr?$AAa?$AAt?$AAo?$AAr?$AA?$DM?$AAc?$AAl?$AAa?$AAs@
    ??_C@_1EG@FOHJJHAC@?$AAv?$AAe?$AAc?$AAt?$AAo?$AAr?$AA?5?$AAi?$AAt?$AAe?$AAr?$AAa?$AAt?$AAo?$AAr?$AA?5?$AAn?$AAo?$AAt?$AA?5?$AAd?$AAe?$AAr?$AAe?$AAf?$AAe?$AAr?$AAe?$AAn?$AAc?$AAa?$AAb@
    ??_C@_1OE@HIGHLMEG@?$AAs?$AAt?$AAd?$AA?3?$AA?3?$AA_?$AAV?$AAe?$AAc?$AAt?$AAo?$AAr?$AA_?$AAc?$AAo?$AAn?$AAs?$AAt?$AA_?$AAi?$AAt?$AAe?$AAr?$AAa?$AAt?$AAo?$AAr?$AA?$DM?$AAc?$AAl?$AAa?$AAs@
    ??_R0?AVObject@Glib@@@8
    ??_R4Exception@Glib@@6B@
    ??_R3Exception@Glib@@8
    ??_R2Exception@Glib@@8
    ??_R1A@?0A@EA@Exception@Glib@@8
    ??_R4BuilderError@Gtk@@6B@
    ??_R3BuilderError@Gtk@@8
    ??_R2BuilderError@Gtk@@8
    ??_R1A@?0A@EA@BuilderError@Gtk@@8
    ??_R1A@?0A@EA@Error@Glib@@8
    ??_R3Error@Glib@@8
    ??_R2Error@Glib@@8
    ??_R4Builder@Gtk@@6B@
    ??_R3Builder@Gtk@@8
    ??_R2Builder@Gtk@@8
    ??_R1A@?0A@EA@Builder@Gtk@@8
    ??_R1A@?0A@EA@Object@Glib@@8
    ??_R3Object@Glib@@8
    ??_R2Object@Glib@@8
    ??_R1A@A@7FA@ObjectBase@Glib@@8
    ??_R3ObjectBase@Glib@@8
    ??_R2ObjectBase@Glib@@8
    ??_R1A@?0A@EA@ObjectBase@Glib@@8
    ??_R1A@73FA@trackable@sigc@@8
    ??_R0?AUtrackable@sigc@@@8
    ??_R3trackable@sigc@@8
    ??_R2trackable@sigc@@8
    ??_R1A@?0A@EA@trackable@sigc@@8
    ??_R1A@A@3FA@trackable@sigc@@8
    ?button_class_@Button@Gtk@@0VButton_Class@2@A
    ?__empty_global_delete@@YAXPEAX@Z
    ?__empty_global_delete@@YAXPEAX_K@Z
    ?get_type@Class@Glib@@QEBA_KXZ
    ??0?$Value@_N@Glib@@QEAA@XZ
    ??1?$Value@_N@Glib@@QEAA@XZ
    ?convert_const_gchar_ptr_to_ustring@Glib@@YA?AVustring@1@PEBD@Z
    ?gobj@Widget@Gtk@@QEAAPEAU_GtkWidget@@XZ
    ??1Button@Gtk@@UEAA@XZ
    ??0Button@Gtk@@IEAA@AEBVConstructParams@Glib@@@Z
    ??0Button@Gtk@@IEAA@PEAU_GtkButton@@@Z
    ?get_type@Button@Gtk@@SA_KXZ
    ?get_base_type@Button@Gtk@@SA_KXZ
    ?gobj@Button@Gtk@@QEAAPEAU_GtkButton@@XZ
    ?gobj@Button@Gtk@@QEBAPEBU_GtkButton@@XZ
    ?on_pressed@Button@Gtk@@MEAAXXZ
    ?on_released@Button@Gtk@@MEAAXXZ
    ?on_clicked@Button@Gtk@@MEAAXXZ
    ?on_enter@Button@Gtk@@MEAAXXZ
    ?on_leave@Button@Gtk@@MEAAXXZ
    ?on_activate@Button@Gtk@@MEAAXXZ
    ??0Button@Gtk@@QEAA@XZ
    ??0Button@Gtk@@QEAA@AEBVustring@Glib@@_N@Z
    ??0Button@Gtk@@QEAA@AEBVStockID@1@@Z
    ?clicked@Button@Gtk@@QEAAXXZ
    ?set_relief@Button@Gtk@@QEAAXW4ReliefStyle@2@@Z
    ?get_relief@Button@Gtk@@QEBA?AW4ReliefStyle@2@XZ
    ?set_label@Button@Gtk@@QEAAXAEBVustring@Glib@@@Z
    ?get_label@Button@Gtk@@QEBA?AVustring@Glib@@XZ
    ?set_use_underline@Button@Gtk@@QEAAX_N@Z
    ?get_use_underline@Button@Gtk@@QEBA_NXZ
    ?set_use_stock@Button@Gtk@@QEAAX_N@Z
    ?get_use_stock@Button@Gtk@@QEBA_NXZ
    ?set_focus_on_click@Button@Gtk@@QEAAX_N@Z
    ?get_focus_on_click@Button@Gtk@@QEBA_NXZ
    ?set_alignment@Button@Gtk@@QEAAXMM@Z
    ?get_alignment@Button@Gtk@@QEAAXAEAM0@Z
    ?set_image_from_icon_name@Button@Gtk@@QEAAXAEBVustring@Glib@@VIconSize@2@@Z
    ?set_image_from_icon_name@Button@Gtk@@QEAAXAEBVustring@Glib@@VIconSize@2@_N@Z
    ?set_image@Button@Gtk@@QEAAXAEAVWidget@2@@Z
    ?get_image@Button@Gtk@@QEAAPEAVWidget@2@XZ
    ?get_image@Button@Gtk@@QEBAPEBVWidget@2@XZ
    ?set_image_position@Button@Gtk@@QEAAXW4PositionType@2@@Z
    ?get_image_position@Button@Gtk@@QEBA?AW4PositionType@2@XZ
    ?set_always_show_image@Button@Gtk@@QEAAX_N@Z
    ?get_always_show_image@Button@Gtk@@QEAA_NXZ
    ?get_event_window@Button@Gtk@@QEAA?AV?$RefPtr@VWindow@Gdk@@@Glib@@XZ
    ?get_event_window@Button@Gtk@@QEBA?AV?$RefPtr@$$CBVWindow@Gdk@@@Glib@@XZ
    ?signal_pressed@Button@Gtk@@QEAA?AV?$SignalProxy0@X@Glib@@XZ
    ?signal_released@Button@Gtk@@QEAA?AV?$SignalProxy0@X@Glib@@XZ
    ?signal_clicked@Button@Gtk@@QEAA?AV?$SignalProxy0@X@Glib@@XZ
    ?signal_enter@Button@Gtk@@QEAA?AV?$SignalProxy0@X@Glib@@XZ
    ?signal_leave@Button@Gtk@@QEAA?AV?$SignalProxy0@X@Glib@@XZ
    ?signal_activate@Button@Gtk@@QEAA?AV?$SignalProxy0@X@Glib@@XZ
    ?property_label@Button@Gtk@@QEAA?AV?$PropertyProxy@Vustring@Glib@@@Glib@@XZ
    ?property_label@Button@Gtk@@QEBA?AV?$PropertyProxy_ReadOnly@Vustring@Glib@@@Glib@@XZ
    ?property_relief@Button@Gtk@@QEAA?AV?$PropertyProxy@W4ReliefStyle@Gtk@@@Glib@@XZ
    ?property_relief@Button@Gtk@@QEBA?AV?$PropertyProxy_ReadOnly@W4ReliefStyle@Gtk@@@Glib@@XZ
    ?property_use_underline@Button@Gtk@@QEAA?AV?$PropertyProxy@_N@Glib@@XZ
    ?property_use_underline@Button@Gtk@@QEBA?AV?$PropertyProxy_ReadOnly@_N@Glib@@XZ
    ?property_use_stock@Button@Gtk@@QEAA?AV?$PropertyProxy@_N@Glib@@XZ
    ?property_use_stock@Button@Gtk@@QEBA?AV?$PropertyProxy_ReadOnly@_N@Glib@@XZ
    ?property_focus_on_click@Button@Gtk@@QEAA?AV?$PropertyProxy@_N@Glib@@XZ
    ?property_focus_on_click@Button@Gtk@@QEBA?AV?$PropertyProxy_ReadOnly@_N@Glib@@XZ
    ?property_xalign@Button@Gtk@@QEAA?AV?$PropertyProxy@M@Glib@@XZ
    ?property_xalign@Button@Gtk@@QEBA?AV?$PropertyProxy_ReadOnly@M@Glib@@XZ
    ?property_yalign@Button@Gtk@@QEAA?AV?$PropertyProxy@M@Glib@@XZ
    ?property_yalign@Button@Gtk@@QEBA?AV?$PropertyProxy_ReadOnly@M@Glib@@XZ
    ?property_image@Button@Gtk@@QEAA?AV?$PropertyProxy@PEAVWidget@Gtk@@@Glib@@XZ
    ?property_image@Button@Gtk@@QEBA?AV?$PropertyProxy_ReadOnly@PEAVWidget@Gtk@@@Glib@@XZ
    ?property_image_position@Button@Gtk@@QEAA?AV?$PropertyProxy@W4PositionType@Gtk@@@Glib@@XZ
    ?property_image_position@Button@Gtk@@QEBA?AV?$PropertyProxy_ReadOnly@W4PositionType@Gtk@@@Glib@@XZ
    ?property_always_show_image@Button@Gtk@@QEAA?AV?$PropertyProxy@_N@Glib@@XZ
    ?property_always_show_image@Button@Gtk@@QEBA?AV?$PropertyProxy_ReadOnly@_N@Glib@@XZ
    ??_DButton@Gtk@@QEAAXXZ
    ?wrap@Glib@@YAPEAVButton@Gtk@@PEAU_GtkButton@@_N@Z
    ?init@Button_Class@Gtk@@QEAAAEBVClass@Glib@@XZ
    ?class_init_function@Button_Class@Gtk@@SAXPEAX0@Z
    ?wrap_new@Button_Class@Gtk@@SAPEAVObjectBase@Glib@@PEAU_GObject@@@Z
    ?pressed_callback@Button_Class@Gtk@@KAXPEAU_GtkButton@@@Z
    ?released_callback@Button_Class@Gtk@@KAXPEAU_GtkButton@@@Z
    ?clicked_callback@Button_Class@Gtk@@KAXPEAU_GtkButton@@@Z
    ?enter_callback@Button_Class@Gtk@@KAXPEAU_GtkButton@@@Z
    ?leave_callback@Button_Class@Gtk@@KAXPEAU_GtkButton@@@Z
    ?activate_callback@Button_Class@Gtk@@KAXPEAU_GtkButton@@@Z
    ??$manage@VImage@Gtk@@@Gtk@@YAPEAVImage@0@PEAV10@@Z
    ??0?$PropertyProxy@_N@Glib@@QEAA@PEAVObjectBase@1@PEBD@Z
    ?set_value@?$PropertyProxy@_N@Glib@@QEAAXAEB_N@Z
    ??4?$PropertyProxy@_N@Glib@@QEAAAEAV01@AEB_N@Z
    ??$manage@VButton@Gtk@@@Gtk@@YAPEAVButton@0@PEAV10@@Z
    ??1?$RefPtr@VWindow@Gdk@@@Glib@@QEAA@XZ
    ??0?$RefPtr@VWindow@Gdk@@@Glib@@QEAA@$$QEAV01@@Z
    ??C?$RefPtr@VWindow@Gdk@@@Glib@@QEBAPEAVWindow@Gdk@@XZ
    ??B?$RefPtr@VWindow@Gdk@@@Glib@@QEBA_NXZ
    ?release@?$RefPtr@VWindow@Gdk@@@Glib@@QEAAPEAVWindow@Gdk@@XZ
    ??$?0VWindow@Gdk@@@?$RefPtr@$$CBVWindow@Gdk@@@Glib@@QEAA@$$QEAV?$RefPtr@VWindow@Gdk@@@1@@Z
    ??0?$SignalProxy0@X@Glib@@QEAA@PEAVObjectBase@1@PEBUSignalProxyInfo@1@@Z
    ??0?$PropertyProxy@Vustring@Glib@@@Glib@@QEAA@PEAVObjectBase@1@PEBD@Z
    ??0?$PropertyProxy_ReadOnly@Vustring@Glib@@@Glib@@QEAA@PEBVObjectBase@1@PEBD@Z
    ??0?$PropertyProxy@W4ReliefStyle@Gtk@@@Glib@@QEAA@PEAVObjectBase@1@PEBD@Z
    ??0?$PropertyProxy_ReadOnly@W4ReliefStyle@Gtk@@@Glib@@QEAA@PEBVObjectBase@1@PEBD@Z
    ??0?$PropertyProxy_ReadOnly@_N@Glib@@QEAA@PEBVObjectBase@1@PEBD@Z
    ??0?$PropertyProxy@M@Glib@@QEAA@PEAVObjectBase@1@PEBD@Z
    ??0?$PropertyProxy_ReadOnly@M@Glib@@QEAA@PEBVObjectBase@1@PEBD@Z
    ??0?$PropertyProxy@PEAVWidget@Gtk@@@Glib@@QEAA@PEAVObjectBase@1@PEBD@Z
    ??0?$PropertyProxy_ReadOnly@PEAVWidget@Gtk@@@Glib@@QEAA@PEBVObjectBase@1@PEBD@Z
    ??0?$PropertyProxy@W4PositionType@Gtk@@@Glib@@QEAA@PEAVObjectBase@1@PEBD@Z
    ??0?$PropertyProxy_ReadOnly@W4PositionType@Gtk@@@Glib@@QEAA@PEBVObjectBase@1@PEBD@Z
    ?destroy_notify_@Object@Gtk@@$2PPPPPPPM@BI@EAAXXZ
    ?set_manage@Object@Gtk@@$4PPPPPPPM@BI@EAAXXZ
    ??_7Button@Gtk@@6BImplementor@Atk@@@
    ??_7Button@Gtk@@6BActivatable@1@@
    ??_7Button@Gtk@@6B@
    ??_8Button@Gtk@@7BObject@Glib@@@
    ??_8Button@Gtk@@7BInterface@Glib@@Buildable@1@@
    ??_8Button@Gtk@@7BInterface@Glib@@Implementor@Atk@@@
    ??_8Button@Gtk@@7BInterface@Glib@@@
    ??_8Button@Gtk@@7BObjectBase@Glib@@@
    ??_R0?AVObjectBase@Glib@@@8
    ??_R0?AVButton@Gtk@@@8
    ??_R4Button@Gtk@@6BImplementor@Atk@@@
    ??_R3Button@Gtk@@8
    ??_R2Button@Gtk@@8
    ??_R1A@?0A@EA@Button@Gtk@@8
    ??_R1A@?0A@EA@Bin@Gtk@@8
    ??_R0?AVBin@Gtk@@@8
    ??_R3Bin@Gtk@@8
    ??_R2Bin@Gtk@@8
    ??_R1A@?0A@EA@Container@Gtk@@8
    ??_R0?AVContainer@Gtk@@@8
    ??_R3Container@Gtk@@8
    ??_R2Container@Gtk@@8
    ??_R1A@?0A@EA@Widget@Gtk@@8
    ??_R0?AVWidget@Gtk@@@8
    ??_R3Widget@Gtk@@8
    ??_R2Widget@Gtk@@8
    ??_R1BA@?0A@EA@Object@Gtk@@8
    ??_R0?AVObject@Gtk@@@8
    ??_R3Object@Gtk@@8
    ??_R2Object@Gtk@@8
    ??_R1A@?0A@EA@Object@Gtk@@8
    ??_R1A@?0A@EA@Object@Glib@@8
    ??_R0?AVObject@Glib@@@8
    ??_R3Object@Glib@@8
    ??_R2Object@Glib@@8
    ??_R1A@A@7FA@ObjectBase@Glib@@8
    ??_R3ObjectBase@Glib@@8
    ??_R2ObjectBase@Glib@@8
    ??_R1A@?0A@EA@ObjectBase@Glib@@8
    ??_R1A@73FA@trackable@sigc@@8
    ??_R0?AUtrackable@sigc@@@8
    ??_R3trackable@sigc@@8
    ??_R2trackable@sigc@@8
    ??_R1A@?0A@EA@trackable@sigc@@8
    ??_R1A@A@3FA@trackable@sigc@@8
    ??_R1BA@?0A@EA@Object@Glib@@8
    ??_R1A@BA@7FA@ObjectBase@Glib@@8
    ??_R1A@BA@3FA@trackable@sigc@@8
    ??_R1CA@?0A@EA@Buildable@Gtk@@8
    ??_R0?AVBuildable@Gtk@@@8
    ??_R3Buildable@Gtk@@8
    ??_R2Buildable@Gtk@@8
    ??_R1A@?0A@EA@Buildable@Gtk@@8
    ??_R1A@?0A@EA@Interface@Glib@@8
    ??_R0?AVInterface@Glib@@@8
    ??_R3Interface@Glib@@8
    ??_R2Interface@Glib@@8
    ??_R1CA@?0A@EC@Interface@Glib@@8
    ??_R1A@?0A@EA@Implementor@Atk@@8
    ??_R0?AVImplementor@Atk@@@8
    ??_R3Implementor@Atk@@8
    ??_R2Implementor@Atk@@8
    ??_R17?0A@EA@Interface@Glib@@8
    ??_R1A@77FA@ObjectBase@Glib@@8
    ??_R17?0A@EC@Interface@Glib@@8
    ??_R1CI@?0A@EA@Activatable@Gtk@@8
    ??_R0?AVActivatable@Gtk@@@8
    ??_R3Activatable@Gtk@@8
    ??_R2Activatable@Gtk@@8
    ??_R1A@?0A@EA@Activatable@Gtk@@8
    ??_R1DA@?0A@EC@Interface@Glib@@8
    ??_R4Button@Gtk@@6BActivatable@1@@
    ??_R4Button@Gtk@@6B@
    ?buttonbox_class_@ButtonBox@Gtk@@0VButtonBox_Class@2@A
    ?__empty_global_delete@@YAXPEAX@Z
    ?__empty_global_delete@@YAXPEAX_K@Z
    ?get_type@Class@Glib@@QEBA_KXZ
    ?gobj@Widget@Gtk@@QEAAPEAU_GtkWidget@@XZ
    ?gobj@Widget@Gtk@@QEBAPEBU_GtkWidget@@XZ
    ??1ButtonBox@Gtk@@UEAA@XZ
    ??0ButtonBox@Gtk@@IEAA@AEBVConstructParams@Glib@@@Z
    ??0ButtonBox@Gtk@@IEAA@PEAU_GtkButtonBox@@@Z
    ?get_type@ButtonBox@Gtk@@SA_KXZ
    ?get_base_type@ButtonBox@Gtk@@SA_KXZ
    ?gobj@ButtonBox@Gtk@@QEAAPEAU_GtkButtonBox@@XZ
    ?gobj@ButtonBox@Gtk@@QEBAPEBU_GtkButtonBox@@XZ
    ??0ButtonBox@Gtk@@QEAA@W4Orientation@1@@Z
    ?get_layout@ButtonBox@Gtk@@QEBA?AW4ButtonBoxStyle@2@XZ
    ?set_layout@ButtonBox@Gtk@@QEAAXW4ButtonBoxStyle@2@@Z
    ?set_child_secondary@ButtonBox@Gtk@@QEAAXAEAVWidget@2@_N@Z
    ?get_child_secondary@ButtonBox@Gtk@@QEBA_NAEBVWidget@2@@Z
    ?get_child_non_homogeneous@ButtonBox@Gtk@@QEBA_NAEBVWidget@2@@Z
    ?set_child_non_homogeneous@ButtonBox@Gtk@@QEAAXAEAVWidget@2@_N@Z
    ?property_layout_style@ButtonBox@Gtk@@QEAA?AV?$PropertyProxy@W4ButtonBoxStyle@Gtk@@@Glib@@XZ
    ?property_layout_style@ButtonBox@Gtk@@QEBA?AV?$PropertyProxy_ReadOnly@W4ButtonBoxStyle@Gtk@@@Glib@@XZ
    ??_DButtonBox@Gtk@@QEAAXXZ
    ?wrap@Glib@@YAPEAVButtonBox@Gtk@@PEAU_GtkButtonBox@@_N@Z
    ?init@ButtonBox_Class@Gtk@@QEAAAEBVClass@Glib@@XZ
    ?class_init_function@ButtonBox_Class@Gtk@@SAXPEAX0@Z
    ?wrap_new@ButtonBox_Class@Gtk@@SAPEAVObjectBase@Glib@@PEAU_GObject@@@Z
    ??$manage@VButtonBox@Gtk@@@Gtk@@YAPEAVButtonBox@0@PEAV10@@Z
    ??0?$PropertyProxy@W4ButtonBoxStyle@Gtk@@@Glib@@QEAA@PEAVObjectBase@1@PEBD@Z
    ??0?$PropertyProxy_ReadOnly@W4ButtonBoxStyle@Gtk@@@Glib@@QEAA@PEBVObjectBase@1@PEBD@Z
    ?destroy_notify_@Object@Gtk@@$2PPPPPPPM@BA@EAAXXZ
    ?set_manage@Object@Gtk@@$4PPPPPPPM@BA@EAAXXZ
    ??_7ButtonBox@Gtk@@6BImplementor@Atk@@@
    ??_7ButtonBox@Gtk@@6B@
    ??_8ButtonBox@Gtk@@7BObject@Glib@@@
    ??_8ButtonBox@Gtk@@7BInterface@Glib@@Buildable@1@@
    ??_8ButtonBox@Gtk@@7BInterface@Glib@@Implementor@Atk@@@
    ??_8ButtonBox@Gtk@@7BInterface@Glib@@@
    ??_8ButtonBox@Gtk@@7BObjectBase@Glib@@@
    ??_R0?AVObjectBase@Glib@@@8
    ??_R0?AVButtonBox@Gtk@@@8
    ??_R4ButtonBox@Gtk@@6BImplementor@Atk@@@
    ??_R3ButtonBox@Gtk@@8
    ??_R2ButtonBox@Gtk@@8
    ??_R1A@?0A@EA@ButtonBox@Gtk@@8
    ??_R1A@?0A@EA@Box@Gtk@@8
    ??_R0?AVBox@Gtk@@@8
    ??_R3Box@Gtk@@8
    ??_R2Box@Gtk@@8
    ??_R1A@?0A@EA@Container@Gtk@@8
    ??_R0?AVContainer@Gtk@@@8
    ??_R3Container@Gtk@@8
    ??_R2Container@Gtk@@8
    ??_R1A@?0A@EA@Widget@Gtk@@8
    ??_R0?AVWidget@Gtk@@@8
    ??_R3Widget@Gtk@@8
    ??_R2Widget@Gtk@@8
    ??_R1BA@?0A@EA@Object@Gtk@@8
    ??_R0?AVObject@Gtk@@@8
    ??_R3Object@Gtk@@8
    ??_R2Object@Gtk@@8
    ??_R1A@?0A@EA@Object@Gtk@@8
    ??_R1A@?0A@EA@Object@Glib@@8
    ??_R0?AVObject@Glib@@@8
    ??_R3Object@Glib@@8
    ??_R2Object@Glib@@8
    ??_R1A@A@7FA@ObjectBase@Glib@@8
    ??_R3ObjectBase@Glib@@8
    ??_R2ObjectBase@Glib@@8
    ??_R1A@?0A@EA@ObjectBase@Glib@@8
    ??_R1A@73FA@trackable@sigc@@8
    ??_R0?AUtrackable@sigc@@@8
    ??_R3trackable@sigc@@8
    ??_R2trackable@sigc@@8
    ??_R1A@?0A@EA@trackable@sigc@@8
    ??_R1A@A@3FA@trackable@sigc@@8
    ??_R1BA@?0A@EA@Object@Glib@@8
    ??_R1A@BA@7FA@ObjectBase@Glib@@8
    ??_R1A@BA@3FA@trackable@sigc@@8
    ??_R1CA@?0A@EA@Buildable@Gtk@@8
    ??_R0?AVBuildable@Gtk@@@8
    ??_R3Buildable@Gtk@@8
    ??_R2Buildable@Gtk@@8
    ??_R1A@?0A@EA@Buildable@Gtk@@8
    ??_R1A@?0A@EA@Interface@Glib@@8
    ??_R0?AVInterface@Glib@@@8
    ??_R3Interface@Glib@@8
    ??_R2Interface@Glib@@8
    ??_R1CA@?0A@EC@Interface@Glib@@8
    ??_R1A@?0A@EA@Implementor@Atk@@8
    ??_R0?AVImplementor@Atk@@@8
    ??_R3Implementor@Atk@@8
    ??_R2Implementor@Atk@@8
    ??_R17?0A@EA@Interface@Glib@@8
    ??_R1A@77FA@ObjectBase@Glib@@8
    ??_R17?0A@EC@Interface@Glib@@8
    ??_R1CI@?0A@EA@Orientable@Gtk@@8
    ??_R0?AVOrientable@Gtk@@@8
    ??_R3Orientable@Gtk@@8
    ??_R2Orientable@Gtk@@8
    ??_R1A@?0A@EA@Orientable@Gtk@@8
    ??_R1CI@?0A@EC@Interface@Glib@@8
    ??_R4ButtonBox@Gtk@@6B@
    ?calendar_class_@Calendar@Gtk@@0VCalendar_Class@2@A
    ?__empty_global_delete@@YAXPEAX@Z
    ?__empty_global_delete@@YAXPEAX_K@Z
    ?get_type@Class@Glib@@QEBA_KXZ
    ?value_type@?$Value@W4CalendarDisplayOptions@Gtk@@@Glib@@SA_KXZ
    ??1Calendar@Gtk@@UEAA@XZ
    ??0Calendar@Gtk@@IEAA@AEBVConstructParams@Glib@@@Z
    ??0Calendar@Gtk@@IEAA@PEAU_GtkCalendar@@@Z
    ?get_type@Calendar@Gtk@@SA_KXZ
    ?get_base_type@Calendar@Gtk@@SA_KXZ
    ?gobj@Calendar@Gtk@@QEAAPEAU_GtkCalendar@@XZ
    ?gobj@Calendar@Gtk@@QEBAPEBU_GtkCalendar@@XZ
    ?on_month_changed@Calendar@Gtk@@MEAAXXZ
    ?on_day_selected@Calendar@Gtk@@MEAAXXZ
    ?on_day_selected_double_click@Calendar@Gtk@@MEAAXXZ
    ?on_prev_month@Calendar@Gtk@@MEAAXXZ
    ?on_next_month@Calendar@Gtk@@MEAAXXZ
    ?on_prev_year@Calendar@Gtk@@MEAAXXZ
    ?on_next_year@Calendar@Gtk@@MEAAXXZ
    ??0Calendar@Gtk@@QEAA@XZ
    ?select_month@Calendar@Gtk@@QEAAXII@Z
    ?select_day@Calendar@Gtk@@QEAAXI@Z
    ?mark_day@Calendar@Gtk@@QEAAXI@Z
    ?unmark_day@Calendar@Gtk@@QEAAXI@Z
    ?clear_marks@Calendar@Gtk@@QEAAXXZ
    ?set_display_options@Calendar@Gtk@@QEAAXW4CalendarDisplayOptions@2@@Z
    ?get_display_options@Calendar@Gtk@@QEBA?AW4CalendarDisplayOptions@2@XZ
    ?get_date@Calendar@Gtk@@QEBAXAEAI00@Z
    ?get_date@Calendar@Gtk@@QEBAXAEAVDate@Glib@@@Z
    ?set_detail_func@Calendar@Gtk@@QEAAXAEBV?$slot@Vustring@Glib@@IIIUnil@sigc@@U34@U34@U34@@sigc@@@Z
    ?set_detail_width_chars@Calendar@Gtk@@QEAAXH@Z
    ?set_detail_height_rows@Calendar@Gtk@@QEAAXH@Z
    ?get_detail_width_chars@Calendar@Gtk@@QEBAHXZ
    ?get_detail_height_rows@Calendar@Gtk@@QEBAHXZ
    ?get_day_is_marked@Calendar@Gtk@@QEBA_NI@Z
    ?signal_month_changed@Calendar@Gtk@@QEAA?AV?$SignalProxy0@X@Glib@@XZ
    ?signal_day_selected@Calendar@Gtk@@QEAA?AV?$SignalProxy0@X@Glib@@XZ
    ?signal_day_selected_double_click@Calendar@Gtk@@QEAA?AV?$SignalProxy0@X@Glib@@XZ
    ?signal_prev_month@Calendar@Gtk@@QEAA?AV?$SignalProxy0@X@Glib@@XZ
    ?signal_next_month@Calendar@Gtk@@QEAA?AV?$SignalProxy0@X@Glib@@XZ
    ?signal_prev_year@Calendar@Gtk@@QEAA?AV?$SignalProxy0@X@Glib@@XZ
    ?signal_next_year@Calendar@Gtk@@QEAA?AV?$SignalProxy0@X@Glib@@XZ
    ?property_year@Calendar@Gtk@@QEAA?AV?$PropertyProxy@H@Glib@@XZ
    ?property_year@Calendar@Gtk@@QEBA?AV?$PropertyProxy_ReadOnly@H@Glib@@XZ
    ?property_month@Calendar@Gtk@@QEAA?AV?$PropertyProxy@H@Glib@@XZ
    ?property_month@Calendar@Gtk@@QEBA?AV?$PropertyProxy_ReadOnly@H@Glib@@XZ
    ?property_day@Calendar@Gtk@@QEAA?AV?$PropertyProxy@H@Glib@@XZ
    ?property_day@Calendar@Gtk@@QEBA?AV?$PropertyProxy_ReadOnly@H@Glib@@XZ
    ?property_show_heading@Calendar@Gtk@@QEAA?AV?$PropertyProxy@_N@Glib@@XZ
    ?property_show_heading@Calendar@Gtk@@QEBA?AV?$PropertyProxy_ReadOnly@_N@Glib@@XZ
    ?property_show_day_names@Calendar@Gtk@@QEAA?AV?$PropertyProxy@_N@Glib@@XZ
    ?property_show_day_names@Calendar@Gtk@@QEBA?AV?$PropertyProxy_ReadOnly@_N@Glib@@XZ
    ?property_no_month_change@Calendar@Gtk@@QEAA?AV?$PropertyProxy@_N@Glib@@XZ
    ?property_no_month_change@Calendar@Gtk@@QEBA?AV?$PropertyProxy_ReadOnly@_N@Glib@@XZ
    ?property_show_week_numbers@Calendar@Gtk@@QEAA?AV?$PropertyProxy@_N@Glib@@XZ
    ?property_show_week_numbers@Calendar@Gtk@@QEBA?AV?$PropertyProxy_ReadOnly@_N@Glib@@XZ
    ?property_show_details@Calendar@Gtk@@QEAA?AV?$PropertyProxy@_N@Glib@@XZ
    ?property_show_details@Calendar@Gtk@@QEBA?AV?$PropertyProxy_ReadOnly@_N@Glib@@XZ
    ?property_detail_width_chars@Calendar@Gtk@@QEAA?AV?$PropertyProxy@H@Glib@@XZ
    ?property_detail_width_chars@Calendar@Gtk@@QEBA?AV?$PropertyProxy_ReadOnly@H@Glib@@XZ
    ?property_detail_height_rows@Calendar@Gtk@@QEAA?AV?$PropertyProxy@H@Glib@@XZ
    ?property_detail_height_rows@Calendar@Gtk@@QEBA?AV?$PropertyProxy_ReadOnly@H@Glib@@XZ
    ??_DCalendar@Gtk@@QEAAXXZ
    ?wrap@Glib@@YAPEAVCalendar@Gtk@@PEAU_GtkCalendar@@_N@Z
    ?init@Calendar_Class@Gtk@@QEAAAEBVClass@Glib@@XZ
    ?class_init_function@Calendar_Class@Gtk@@SAXPEAX0@Z
    ?wrap_new@Calendar_Class@Gtk@@SAPEAVObjectBase@Glib@@PEAU_GObject@@@Z
    ?month_changed_callback@Calendar_Class@Gtk@@KAXPEAU_GtkCalendar@@@Z
    ?day_selected_callback@Calendar_Class@Gtk@@KAXPEAU_GtkCalendar@@@Z
    ?day_selected_double_click_callback@Calendar_Class@Gtk@@KAXPEAU_GtkCalendar@@@Z
    ?prev_month_callback@Calendar_Class@Gtk@@KAXPEAU_GtkCalendar@@@Z
    ?next_month_callback@Calendar_Class@Gtk@@KAXPEAU_GtkCalendar@@@Z
    ?prev_year_callback@Calendar_Class@Gtk@@KAXPEAU_GtkCalendar@@@Z
    ?next_year_callback@Calendar_Class@Gtk@@KAXPEAU_GtkCalendar@@@Z
    ??R?$slot3@Vustring@Glib@@III@sigc@@QEBA?AVustring@Glib@@AEBI00@Z
    ??0?$slot3@Vustring@Glib@@III@sigc@@QEAA@AEBV01@@Z
    ??1?$slot3@Vustring@Glib@@III@sigc@@QEAA@XZ
    ??0?$slot@Vustring@Glib@@IIIUnil@sigc@@U34@U34@U34@@sigc@@QEAA@AEBV01@@Z
    ??1?$slot@Vustring@Glib@@IIIUnil@sigc@@U34@U34@U34@@sigc@@QEAA@XZ
    ??$manage@VCalendar@Gtk@@@Gtk@@YAPEAVCalendar@0@PEAV10@@Z
    ??0?$SignalProxy0@X@Glib@@QEAA@PEAVObjectBase@1@PEBUSignalProxyInfo@1@@Z
    ??0?$PropertyProxy@H@Glib@@QEAA@PEAVObjectBase@1@PEBD@Z
    ??0?$PropertyProxy_ReadOnly@H@Glib@@QEAA@PEBVObjectBase@1@PEBD@Z
    ??0?$PropertyProxy@_N@Glib@@QEAA@PEAVObjectBase@1@PEBD@Z
    ??0?$PropertyProxy_ReadOnly@_N@Glib@@QEAA@PEBVObjectBase@1@PEBD@Z
    ?destroy_notify_@Object@Gtk@@$2PPPPPPPM@7EAAXXZ
    ?set_manage@Object@Gtk@@$4PPPPPPPM@7EAAXXZ
    ??_7Calendar@Gtk@@6BImplementor@Atk@@@
    ??_7Calendar@Gtk@@6B@
    ??_8Calendar@Gtk@@7BObject@Glib@@@
    ??_8Calendar@Gtk@@7BInterface@Glib@@Buildable@1@@
    ??_8Calendar@Gtk@@7BInterface@Glib@@Implementor@Atk@@@
    ??_8Calendar@Gtk@@7BObjectBase@Glib@@@
    ??_R0?AVObjectBase@Glib@@@8
    ??_R0?AVCalendar@Gtk@@@8
    ??_R4Calendar@Gtk@@6BImplementor@Atk@@@
    ??_R3Calendar@Gtk@@8
    ??_R2Calendar@Gtk@@8
    ??_R1A@?0A@EA@Calendar@Gtk@@8
    ??_R1A@?0A@EA@Widget@Gtk@@8
    ??_R0?AVWidget@Gtk@@@8
    ??_R3Widget@Gtk@@8
    ??_R2Widget@Gtk@@8
    ??_R1BA@?0A@EA@Object@Gtk@@8
    ??_R0?AVObject@Gtk@@@8
    ??_R3Object@Gtk@@8
    ??_R2Object@Gtk@@8
    ??_R1A@?0A@EA@Object@Gtk@@8
    ??_R1A@?0A@EA@Object@Glib@@8
    ??_R0?AVObject@Glib@@@8
    ??_R3Object@Glib@@8
    ??_R2Object@Glib@@8
    ??_R1A@A@7FA@ObjectBase@Glib@@8
    ??_R3ObjectBase@Glib@@8
    ??_R2ObjectBase@Glib@@8
    ??_R1A@?0A@EA@ObjectBase@Glib@@8
    ??_R1A@73FA@trackable@sigc@@8
    ??_R0?AUtrackable@sigc@@@8
    ??_R3trackable@sigc@@8
    ??_R2trackable@sigc@@8
    ??_R1A@?0A@EA@trackable@sigc@@8
    ??_R1A@A@3FA@trackable@sigc@@8
    ??_R1BA@?0A@EA@Object@Glib@@8
    ??_R1A@BA@7FA@ObjectBase@Glib@@8
    ??_R1A@BA@3FA@trackable@sigc@@8
    ??_R1CA@?0A@EA@Buildable@Gtk@@8
    ??_R0?AVBuildable@Gtk@@@8
    ??_R3Buildable@Gtk@@8
    ??_R2Buildable@Gtk@@8
    ??_R1A@?0A@EA@Buildable@Gtk@@8
    ??_R1A@?0A@EA@Interface@Glib@@8
    ??_R0?AVInterface@Glib@@@8
    ??_R3Interface@Glib@@8
    ??_R2Interface@Glib@@8
    ??_R1CA@?0A@EC@Interface@Glib@@8
    ??_R1A@?0A@EA@Implementor@Atk@@8
    ??_R0?AVImplementor@Atk@@@8
    ??_R3Implementor@Atk@@8
    ??_R2Implementor@Atk@@8
    ??_R17?0A@EA@Interface@Glib@@8
    ??_R1A@77FA@ObjectBase@Glib@@8
    ??_R17?0A@EC@Interface@Glib@@8
    ??_R4Calendar@Gtk@@6B@
    ?cellarea_class_@CellArea@Gtk@@0VCellArea_Class@2@A
    ?__empty_global_delete@@YAXPEAX@Z
    ?__empty_global_delete@@YAXPEAX_K@Z
    ??2@YAPEAX_KPEAX@Z
    ??0_Container_proxy@std@@QEAA@XZ
    ??0_Container_base12@std@@QEAA@XZ
    ??1_Container_base12@std@@QEAA@XZ
    ?_Orphan_all@_Container_base12@std@@QEAAXXZ
    ?_Allocate@std@@YAPEAX_K0_N@Z
    ?_Deallocate@std@@YAXPEAX_K1@Z
    ?get_type@Class@Glib@@QEBA_KXZ
    ?data_to_slot@SignalProxyBase@Glib@@SAPEAVslot_base@sigc@@PEAX@Z
    ?gobj@ValueBase@Glib@@QEAAPEAU_GValue@@XZ
    ?gobj@ValueBase@Glib@@QEBAPEBU_GValue@@XZ
    ?convert_const_gchar_ptr_to_ustring@Glib@@YA?AVustring@1@PEBD@Z
    ?gobj@CellAreaContext@Gtk@@QEAAPEAU_GtkCellAreaContext@@XZ
    ?gobj@CellAreaContext@Gtk@@QEBAPEBU_GtkCellAreaContext@@XZ
    ?cobj@Context@Cairo@@QEAAPEAU_cairo@@XZ
    ?gobj@Rectangle@Gdk@@QEAAPEAU_cairo_rectangle_int@@XZ
    ?gobj@Rectangle@Gdk@@QEBAPEBU_cairo_rectangle_int@@XZ
    ?gobj@Widget@Gtk@@QEAAPEAU_GtkWidget@@XZ
    ?gobj@CellRenderer@Gtk@@QEAAPEAU_GtkCellRenderer@@XZ
    ?gobj@CellRenderer@Gtk@@QEBAPEBU_GtkCellRenderer@@XZ
    ?gobj@TreeIterBase@Gtk@@QEBAPEBU_GtkTreeIter@@XZ
    ?gobj@TreeModel@Gtk@@QEAAPEAU_GtkTreeModel@@XZ
    ??0CellArea@Gtk@@IEAA@AEBVConstructParams@Glib@@@Z
    ??0CellArea@Gtk@@IEAA@PEAU_GtkCellArea@@@Z
    ??1CellArea@Gtk@@UEAA@XZ
    ?get_type@CellArea@Gtk@@SA_KXZ
    ?get_base_type@CellArea@Gtk@@SA_KXZ
    ?gobj@CellArea@Gtk@@QEAAPEAU_GtkCellArea@@XZ
    ?gobj@CellArea@Gtk@@QEBAPEBU_GtkCellArea@@XZ
    ?gobj_copy@CellArea@Gtk@@QEAAPEAU_GtkCellArea@@XZ
    ??0CellArea@Gtk@@IEAA@XZ
    ?add@CellArea@Gtk@@QEAAXAEAVCellRenderer@2@@Z
    ?remove@CellArea@Gtk@@QEAAXAEAVCellRenderer@2@@Z
    ?has_renderer@CellArea@Gtk@@QEAA_NAEAVCellRenderer@2@@Z
    ?foreach@CellArea@Gtk@@QEAAXAEBV?$slot@_NPEAVCellRenderer@Gtk@@Unil@sigc@@U34@U34@U34@U34@U34@@sigc@@@Z
    ?foreach@CellArea@Gtk@@QEAAXAEBV?$RefPtr@VCellAreaContext@Gtk@@@Glib@@PEAVWidget@2@AEBVRectangle@Gdk@@2AEBV?$slot@_NPEAVCellRenderer@Gtk@@AEBVRectangle@Gdk@@AEBV34@Unil@sigc@@U56@U56@U56@@sigc@@@Z
    ?event@CellArea@Gtk@@QEAAHAEBV?$RefPtr@VCellAreaContext@Gtk@@@Glib@@AEAVWidget@2@PEAT_GdkEvent@@AEBVRectangle@Gdk@@W4GtkCellRendererState@@@Z
    ?render@CellArea@Gtk@@QEAAXAEBV?$RefPtr@VCellAreaContext@Gtk@@@Glib@@AEAVWidget@2@AEBV?$RefPtr@VContext@Cairo@@@Cairo@@AEBVRectangle@Gdk@@3W4CellRendererState@2@_N@Z
    ?get_cell_allocation@CellArea@Gtk@@QEAAXAEBV?$RefPtr@VCellAreaContext@Gtk@@@Glib@@AEAVWidget@2@AEAVCellRenderer@2@AEBVRectangle@Gdk@@AEAV78@@Z
    ?get_cell_at_position@CellArea@Gtk@@QEAAPEAVCellRenderer@2@AEBV?$RefPtr@VCellAreaContext@Gtk@@@Glib@@AEAVWidget@2@AEBVRectangle@Gdk@@HHAEAV78@@Z
    ?get_cell_at_position@CellArea@Gtk@@QEBAPEBVCellRenderer@2@AEBV?$RefPtr@VCellAreaContext@Gtk@@@Glib@@AEAVWidget@2@AEBVRectangle@Gdk@@HHAEAV78@@Z
    ?create_context@CellArea@Gtk@@QEBA?AV?$RefPtr@VCellAreaContext@Gtk@@@Glib@@XZ
    ?copy_context@CellArea@Gtk@@QEAA?AV?$RefPtr@VCellAreaContext@Gtk@@@Glib@@AEBV?$RefPtr@$$CBVCellAreaContext@Gtk@@@4@@Z
    ?get_request_mode@CellArea@Gtk@@QEBA?AW4SizeRequestMode@2@XZ
    ?get_preferred_width@CellArea@Gtk@@QEAAXAEBV?$RefPtr@VCellAreaContext@Gtk@@@Glib@@AEAVWidget@2@AEAH2@Z
    ?get_preferred_height_for_width@CellArea@Gtk@@QEAAXAEBV?$RefPtr@VCellAreaContext@Gtk@@@Glib@@AEAVWidget@2@HAEAH2@Z
    ?get_preferred_height@CellArea@Gtk@@QEAAXAEBV?$RefPtr@VCellAreaContext@Gtk@@@Glib@@AEAVWidget@2@AEAH2@Z
    ?get_preferred_width_for_height@CellArea@Gtk@@QEAAXAEBV?$RefPtr@VCellAreaContext@Gtk@@@Glib@@AEAVWidget@2@HAEAH2@Z
    ?get_current_path_string@CellArea@Gtk@@QEBA?AVustring@Glib@@XZ
    ?apply_attributes@CellArea@Gtk@@QEAAXAEBV?$RefPtr@VTreeModel@Gtk@@@Glib@@AEBVTreeIter@2@_N2@Z
    ?attribute_connect@CellArea@Gtk@@QEAAXAEAVCellRenderer@2@AEBVustring@Glib@@H@Z
    ?attribute_disconnect@CellArea@Gtk@@QEAAXAEAVCellRenderer@2@AEBVustring@Glib@@@Z
    ?attribute_get_column@CellArea@Gtk@@QEBAHAEAVCellRenderer@2@AEBVustring@Glib@@@Z
    ?cell_set_property@CellArea@Gtk@@QEAAXAEAVCellRenderer@2@AEBVustring@Glib@@AEBVValueBase@5@@Z
    ?cell_get_property@CellArea@Gtk@@QEAAXAEAVCellRenderer@2@AEBVustring@Glib@@AEAVValueBase@5@@Z
    ?is_activatable@CellArea@Gtk@@QEBA_NXZ
    ?activate@CellArea@Gtk@@QEAA_NAEBV?$RefPtr@VCellAreaContext@Gtk@@@Glib@@AEAVWidget@2@AEBVRectangle@Gdk@@W4CellRendererState@2@_N@Z
    ?focus@CellArea@Gtk@@QEAA_NW4DirectionType@2@@Z
    ?set_focus_cell@CellArea@Gtk@@QEAAXAEAVCellRenderer@2@@Z
    ?get_focus_cell@CellArea@Gtk@@QEAAPEAVCellRenderer@2@XZ
    ?get_focus_cell@CellArea@Gtk@@QEBAPEBVCellRenderer@2@XZ
    ?add_focus_sibling@CellArea@Gtk@@QEAAXAEAVCellRenderer@2@0@Z
    ?remove_focus_sibling@CellArea@Gtk@@QEAAXAEAVCellRenderer@2@0@Z
    ?is_focus_sibling@CellArea@Gtk@@QEAA_NAEAVCellRenderer@2@0@Z
    ?get_focus_siblings@CellArea@Gtk@@QEAA?AV?$vector@PEAVCellRenderer@Gtk@@V?$allocator@PEAVCellRenderer@Gtk@@@std@@@std@@AEAVCellRenderer@2@@Z
    ?get_focus_siblings@CellArea@Gtk@@QEBA?AV?$vector@PEBVCellRenderer@Gtk@@V?$allocator@PEBVCellRenderer@Gtk@@@std@@@std@@AEBVCellRenderer@2@@Z
    ?get_focus_from_sibling@CellArea@Gtk@@QEAAPEAVCellRenderer@2@AEAV32@@Z
    ?get_focus_from_sibling@CellArea@Gtk@@QEBAPEBVCellRenderer@2@AEAV32@@Z
    ?get_edited_cell@CellArea@Gtk@@QEAAPEAVCellRenderer@2@XZ
    ?get_edited_cell@CellArea@Gtk@@QEBAPEBVCellRenderer@2@XZ
    ?get_edit_widget@CellArea@Gtk@@QEAAPEAVCellEditable@2@XZ
    ?get_edit_widget@CellArea@Gtk@@QEBAPEBVCellEditable@2@XZ
    ?activate_cell@CellArea@Gtk@@QEAA_NAEAVWidget@2@AEAVCellRenderer@2@PEAT_GdkEvent@@AEBVRectangle@Gdk@@W4CellRendererState@2@@Z
    ?stop_editing@CellArea@Gtk@@QEAAX_N@Z
    ?inner_cell_area@CellArea@Gtk@@QEAAXAEAVWidget@2@AEBVRectangle@Gdk@@AEAV45@@Z
    ?request_renderer@CellArea@Gtk@@QEAAXAEAVCellRenderer@2@W4Orientation@2@AEAVWidget@2@HAEAH3@Z
    ?signal_apply_attributes@CellArea@Gtk@@IEAA?AV?$SignalProxy4@XAEBV?$RefPtr@VTreeModel@Gtk@@@Glib@@AEBVTreeIter@Gtk@@_N_N@Glib@@XZ
    ?signal_add_editable@CellArea@Gtk@@IEAA?AV?$SignalProxy4@XPEAVCellRenderer@Gtk@@PEAVCellEditable@2@AEBVRectangle@Gdk@@AEBVustring@Glib@@@Glib@@XZ
    ?signal_remove_editable@CellArea@Gtk@@IEAA?AV?$SignalProxy2@XPEAVCellRenderer@Gtk@@PEAVCellEditable@2@@Glib@@XZ
    ?signal_focus_changed@CellArea@Gtk@@IEAA?AV?$SignalProxy2@XPEAVCellRenderer@Gtk@@AEBVustring@Glib@@@Glib@@XZ
    ?get_request_mode_vfunc@CellArea@Gtk@@MEBA?AW4SizeRequestMode@2@XZ
    ?get_preferred_width_vfunc@CellArea@Gtk@@MEAAXAEBV?$RefPtr@VCellAreaContext@Gtk@@@Glib@@AEAVWidget@2@AEAH2@Z
    ?get_preferred_height_for_width_vfunc@CellArea@Gtk@@MEAAXAEBV?$RefPtr@VCellAreaContext@Gtk@@@Glib@@AEAVWidget@2@HAEAH2@Z
    ?get_preferred_height_vfunc@CellArea@Gtk@@MEAAXAEBV?$RefPtr@VCellAreaContext@Gtk@@@Glib@@AEAVWidget@2@AEAH2@Z
    ?get_preferred_width_for_height_vfunc@CellArea@Gtk@@MEAAXAEBV?$RefPtr@VCellAreaContext@Gtk@@@Glib@@AEAVWidget@2@HAEAH2@Z
    ?property_focus_cell@CellArea@Gtk@@IEAA?AV?$PropertyProxy@PEAVCellRenderer@Gtk@@@Glib@@XZ
    ?property_focus_cell@CellArea@Gtk@@IEBA?AV?$PropertyProxy_ReadOnly@PEAVCellRenderer@Gtk@@@Glib@@XZ
    ?property_edited_cell@CellArea@Gtk@@IEBA?AV?$PropertyProxy_ReadOnly@PEAVCellRenderer@Gtk@@@Glib@@XZ
    ?property_edit_widget@CellArea@Gtk@@IEBA?AV?$PropertyProxy_ReadOnly@PEAVCellEditable@Gtk@@@Glib@@XZ
    ??_DCellArea@Gtk@@QEAAXXZ
    ?wrap@Glib@@YA?AV?$RefPtr@VCellArea@Gtk@@@1@PEAU_GtkCellArea@@_N@Z
    ?init@CellArea_Class@Gtk@@QEAAAEBVClass@Glib@@XZ
    ?class_init_function@CellArea_Class@Gtk@@SAXPEAX0@Z
    ?wrap_new@CellArea_Class@Gtk@@SAPEAVObjectBase@Glib@@PEAU_GObject@@@Z
    ?get_request_mode_vfunc_callback@CellArea_Class@Gtk@@KA?AW4GtkSizeRequestMode@@PEAU_GtkCellArea@@@Z
    ?get_preferred_width_vfunc_callback@CellArea_Class@Gtk@@KAXPEAU_GtkCellArea@@PEAU_GtkCellAreaContext@@PEAU_GtkWidget@@PEAH3@Z
    ?get_preferred_height_for_width_vfunc_callback@CellArea_Class@Gtk@@KAXPEAU_GtkCellArea@@PEAU_GtkCellAreaContext@@PEAU_GtkWidget@@HPEAH3@Z
    ?get_preferred_height_vfunc_callback@CellArea_Class@Gtk@@KAXPEAU_GtkCellArea@@PEAU_GtkCellAreaContext@@PEAU_GtkWidget@@PEAH3@Z
    ?get_preferred_width_for_height_vfunc_callback@CellArea_Class@Gtk@@KAXPEAU_GtkCellArea@@PEAU_GtkCellAreaContext@@PEAU_GtkWidget@@HPEAH3@Z
    ??R?$slot1@_NPEAVCellRenderer@Gtk@@@sigc@@QEBA_NAEBQEAVCellRenderer@Gtk@@@Z
    ??0?$slot1@_NPEAVCellRenderer@Gtk@@@sigc@@QEAA@AEBV01@@Z
    ??1?$slot1@_NPEAVCellRenderer@Gtk@@@sigc@@QEAA@XZ
    ??0?$slot@_NPEAVCellRenderer@Gtk@@Unil@sigc@@U34@U34@U34@U34@U34@@sigc@@QEAA@AEBV01@@Z
    ??1?$slot@_NPEAVCellRenderer@Gtk@@Unil@sigc@@U34@U34@U34@U34@U34@@sigc@@QEAA@XZ
    ??R?$slot3@_NPEAVCellRenderer@Gtk@@AEBVRectangle@Gdk@@AEBV34@@sigc@@QEBA_NAEBQEAVCellRenderer@Gtk@@AEBVRectangle@Gdk@@1@Z
    ??0?$slot3@_NPEAVCellRenderer@Gtk@@AEBVRectangle@Gdk@@AEBV34@@sigc@@QEAA@AEBV01@@Z
    ??1?$slot3@_NPEAVCellRenderer@Gtk@@AEBVRectangle@Gdk@@AEBV34@@sigc@@QEAA@XZ
    ??0?$slot@_NPEAVCellRenderer@Gtk@@AEBVRectangle@Gdk@@AEBV34@Unil@sigc@@U56@U56@U56@@sigc@@QEAA@AEBV01@@Z
    ??1?$slot@_NPEAVCellRenderer@Gtk@@AEBVRectangle@Gdk@@AEBV34@Unil@sigc@@U56@U56@U56@@sigc@@QEAA@XZ
    ??$unwrap@VCellAreaContext@Gtk@@@Glib@@YAPEBU_GtkCellAreaContext@@AEBV?$RefPtr@$$CBVCellAreaContext@Gtk@@@0@@Z
    ??$unwrap@VCellAreaContext@Gtk@@@Glib@@YAPEAU_GtkCellAreaContext@@AEBV?$RefPtr@VCellAreaContext@Gtk@@@0@@Z
    ??1?$RefPtr@VCellAreaContext@Gtk@@@Glib@@QEAA@XZ
    ??C?$RefPtr@VCellAreaContext@Gtk@@@Glib@@QEBAPEAVCellAreaContext@Gtk@@XZ
    ??B?$RefPtr@VCellAreaContext@Gtk@@@Glib@@QEBA_NXZ
    ??C?$RefPtr@$$CBVCellAreaContext@Gtk@@@Glib@@QEBAPEBVCellAreaContext@Gtk@@XZ
    ??B?$RefPtr@$$CBVCellAreaContext@Gtk@@@Glib@@QEBA_NXZ
    ??$unwrap@VWidget@Gtk@@@Glib@@YAPEAU_GtkWidget@@PEAVWidget@Gtk@@@Z
    ??R?$slot4@XAEBV?$RefPtr@VTreeModel@Gtk@@@Glib@@AEBVTreeIter@Gtk@@_N_N@sigc@@QEBAXAEBV?$RefPtr@VTreeModel@Gtk@@@Glib@@AEBVTreeIter@Gtk@@AEB_N2@Z
    ??1?$RefPtr@VTreeModel@Gtk@@@Glib@@QEAA@XZ
    ??C?$RefPtr@VTreeModel@Gtk@@@Glib@@QEBAPEAVTreeModel@Gtk@@XZ
    ??B?$RefPtr@VTreeModel@Gtk@@@Glib@@QEBA_NXZ
    ??R?$slot4@XPEAVCellRenderer@Gtk@@PEAVCellEditable@2@AEBVRectangle@Gdk@@AEBVustring@Glib@@@sigc@@QEBAXAEBQEAVCellRenderer@Gtk@@AEBQEAVCellEditable@3@AEBVRectangle@Gdk@@AEBVustring@Glib@@@Z
    ??R?$slot2@XPEAVCellRenderer@Gtk@@PEAVCellEditable@2@@sigc@@QEBAXAEBQEAVCellRenderer@Gtk@@AEBQEAVCellEditable@3@@Z
    ??R?$slot2@XPEAVCellRenderer@Gtk@@AEBVustring@Glib@@@sigc@@QEBAXAEBQEAVCellRenderer@Gtk@@AEBVustring@Glib@@@Z
    ??0?$RefPtr@VCellArea@Gtk@@@Glib@@QEAA@PEAVCellArea@Gtk@@@Z
    ??C?$RefPtr@VContext@Cairo@@@Cairo@@QEBAPEAVContext@1@XZ
    ??$unwrap@VTreeModel@Gtk@@@Glib@@YAPEAU_GtkTreeModel@@AEBV?$RefPtr@VTreeModel@Gtk@@@0@@Z
    ??0?$allocator@PEAVCellRenderer@Gtk@@@std@@QEAA@XZ
    ?deallocate@?$allocator@PEAVCellRenderer@Gtk@@@std@@QEAAXPEAPEAVCellRenderer@Gtk@@_K@Z
    ?allocate@?$allocator@PEAVCellRenderer@Gtk@@@std@@QEAAPEAPEAVCellRenderer@Gtk@@_K@Z
    ?max_size@?$allocator@PEAVCellRenderer@Gtk@@@std@@QEBA_KXZ
    ?max_size@?$allocator_traits@V?$allocator@PEAVCellRenderer@Gtk@@@std@@@std@@SA_KAEBV?$allocator@PEAVCellRenderer@Gtk@@@2@@Z
    ??0?$_Wrap_alloc@V?$allocator@PEAVCellRenderer@Gtk@@@std@@@std@@QEAA@XZ
    ?allocate@?$_Wrap_alloc@V?$allocator@PEAVCellRenderer@Gtk@@@std@@@std@@QEAAPEAPEAVCellRenderer@Gtk@@_K@Z
    ?deallocate@?$_Wrap_alloc@V?$allocator@PEAVCellRenderer@Gtk@@@std@@@std@@QEAAXPEAPEAVCellRenderer@Gtk@@_K@Z
    ?max_size@?$_Wrap_alloc@V?$allocator@PEAVCellRenderer@Gtk@@@std@@@std@@QEBA_KU_Nil@2@@Z
    ??0?$_Vector_alloc@U?$_Vec_base_types@PEAVCellRenderer@Gtk@@V?$allocator@PEAVCellRenderer@Gtk@@@std@@@std@@@std@@QEAA@XZ
    ??1?$_Vector_alloc@U?$_Vec_base_types@PEAVCellRenderer@Gtk@@V?$allocator@PEAVCellRenderer@Gtk@@@std@@@std@@@std@@QEAA@XZ
    ?_Alloc_proxy@?$_Vector_alloc@U?$_Vec_base_types@PEAVCellRenderer@Gtk@@V?$allocator@PEAVCellRenderer@Gtk@@@std@@@std@@@std@@QEAAXXZ
    ?_Free_proxy@?$_Vector_alloc@U?$_Vec_base_types@PEAVCellRenderer@Gtk@@V?$allocator@PEAVCellRenderer@Gtk@@@std@@@std@@@std@@QEAAXXZ
    ?_Myproxy@?$_Vector_alloc@U?$_Vec_base_types@PEAVCellRenderer@Gtk@@V?$allocator@PEAVCellRenderer@Gtk@@@std@@@std@@@std@@QEAAAEAPEAU_Container_proxy@2@XZ
    ?_Orphan_all@?$_Vector_alloc@U?$_Vec_base_types@PEAVCellRenderer@Gtk@@V?$allocator@PEAVCellRenderer@Gtk@@@std@@@std@@@std@@QEAAXXZ
    ?_Getal@?$_Vector_alloc@U?$_Vec_base_types@PEAVCellRenderer@Gtk@@V?$allocator@PEAVCellRenderer@Gtk@@@std@@@std@@@std@@QEAAAEAU?$_Wrap_alloc@V?$allocator@PEAVCellRenderer@Gtk@@@std@@@2@XZ
    ?_Getal@?$_Vector_alloc@U?$_Vec_base_types@PEAVCellRenderer@Gtk@@V?$allocator@PEAVCellRenderer@Gtk@@@std@@@std@@@std@@QEBAAEBU?$_Wrap_alloc@V?$allocator@PEAVCellRenderer@Gtk@@@std@@@2@XZ
    ?_Get_data@?$_Vector_alloc@U?$_Vec_base_types@PEAVCellRenderer@Gtk@@V?$allocator@PEAVCellRenderer@Gtk@@@std@@@std@@@std@@QEAAAEAV?$_Vector_val@U?$_Simple_types@PEAVCellRenderer@Gtk@@@std@@@2@XZ
    ?_Myfirst@?$_Vector_alloc@U?$_Vec_base_types@PEAVCellRenderer@Gtk@@V?$allocator@PEAVCellRenderer@Gtk@@@std@@@std@@@std@@QEAAAEAPEAPEAVCellRenderer@Gtk@@XZ
    ?_Mylast@?$_Vector_alloc@U?$_Vec_base_types@PEAVCellRenderer@Gtk@@V?$allocator@PEAVCellRenderer@Gtk@@@std@@@std@@@std@@QEAAAEAPEAPEAVCellRenderer@Gtk@@XZ
    ?_Myend@?$_Vector_alloc@U?$_Vec_base_types@PEAVCellRenderer@Gtk@@V?$allocator@PEAVCellRenderer@Gtk@@@std@@@std@@@std@@QEAAAEAPEAPEAVCellRenderer@Gtk@@XZ
    ??0?$_Vector_val@U?$_Simple_types@PEAVCellRenderer@Gtk@@@std@@@std@@QEAA@XZ
    ??1?$_Vector_val@U?$_Simple_types@PEAVCellRenderer@Gtk@@@std@@@std@@QEAA@XZ
    ?_Get_first@?$_Compressed_pair@U?$_Wrap_alloc@V?$allocator@PEAVCellRenderer@Gtk@@@std@@@std@@V?$_Vector_val@U?$_Simple_types@PEAVCellRenderer@Gtk@@@std@@@2@$00@std@@QEAAAEAU?$_Wrap_alloc@V?$allocator@PEAVCellRenderer@Gtk@@@std@@@2@XZ
    ?_Get_first@?$_Compressed_pair@U?$_Wrap_alloc@V?$allocator@PEAVCellRenderer@Gtk@@@std@@@std@@V?$_Vector_val@U?$_Simple_types@PEAVCellRenderer@Gtk@@@std@@@2@$00@std@@QEBAAEBU?$_Wrap_alloc@V?$allocator@PEAVCellRenderer@Gtk@@@std@@@2@XZ
    ?_Get_second@?$_Compressed_pair@U?$_Wrap_alloc@V?$allocator@PEAVCellRenderer@Gtk@@@std@@@std@@V?$_Vector_val@U?$_Simple_types@PEAVCellRenderer@Gtk@@@std@@@2@$00@std@@QEAAAEAV?$_Vector_val@U?$_Simple_types@PEAVCellRenderer@Gtk@@@std@@@2@XZ
    ??1?$_Compressed_pair@U?$_Wrap_alloc@V?$allocator@PEAVCellRenderer@Gtk@@@std@@@std@@V?$_Vector_val@U?$_Simple_types@PEAVCellRenderer@Gtk@@@std@@@2@$00@std@@QEAA@XZ
    ?max_size@?$vector@PEAVCellRenderer@Gtk@@V?$allocator@PEAVCellRenderer@Gtk@@@std@@@std@@QEBA_KXZ
    ?_Buy@?$vector@PEAVCellRenderer@Gtk@@V?$allocator@PEAVCellRenderer@Gtk@@@std@@@std@@IEAA_N_K@Z
    ?_Destroy@?$vector@PEAVCellRenderer@Gtk@@V?$allocator@PEAVCellRenderer@Gtk@@@std@@@std@@IEAAXPEAPEAVCellRenderer@Gtk@@0@Z
    ?_Tidy@?$vector@PEAVCellRenderer@Gtk@@V?$allocator@PEAVCellRenderer@Gtk@@@std@@@std@@IEAAXXZ
    ?_Xlen@?$vector@PEAVCellRenderer@Gtk@@V?$allocator@PEAVCellRenderer@Gtk@@@std@@@std@@IEBAXXZ
    ?to_cpp_type@?$TypeTraits@PEAVCellRenderer@Gtk@@@Container_Helpers@Glib@@SAPEAVCellRenderer@Gtk@@PEAU_GtkCellRenderer@@@Z
    ?release_c_type@?$TypeTraits@PEAVCellRenderer@Gtk@@@Container_Helpers@Glib@@SAXPEAU_GtkCellRenderer@@@Z
    ?list_to_vector@?$ListHandler@PEAVCellRenderer@Gtk@@U?$TypeTraits@PEAVCellRenderer@Gtk@@@Container_Helpers@Glib@@@Glib@@SA?AV?$vector@PEAVCellRenderer@Gtk@@V?$allocator@PEAVCellRenderer@Gtk@@@std@@@std@@PEAU_GList@@W4OwnershipType@2@@Z
    ??0?$allocator@PEBVCellRenderer@Gtk@@@std@@QEAA@XZ
    ?deallocate@?$allocator@PEBVCellRenderer@Gtk@@@std@@QEAAXPEAPEBVCellRenderer@Gtk@@_K@Z
    ?allocate@?$allocator@PEBVCellRenderer@Gtk@@@std@@QEAAPEAPEBVCellRenderer@Gtk@@_K@Z
    ?max_size@?$allocator@PEBVCellRenderer@Gtk@@@std@@QEBA_KXZ
    ?max_size@?$allocator_traits@V?$allocator@PEBVCellRenderer@Gtk@@@std@@@std@@SA_KAEBV?$allocator@PEBVCellRenderer@Gtk@@@2@@Z
    ??0?$_Wrap_alloc@V?$allocator@PEBVCellRenderer@Gtk@@@std@@@std@@QEAA@XZ
    ?allocate@?$_Wrap_alloc@V?$allocator@PEBVCellRenderer@Gtk@@@std@@@std@@QEAAPEAPEBVCellRenderer@Gtk@@_K@Z
    ?deallocate@?$_Wrap_alloc@V?$allocator@PEBVCellRenderer@Gtk@@@std@@@std@@QEAAXPEAPEBVCellRenderer@Gtk@@_K@Z
    ?max_size@?$_Wrap_alloc@V?$allocator@PEBVCellRenderer@Gtk@@@std@@@std@@QEBA_KU_Nil@2@@Z
    ??0?$_Vector_alloc@U?$_Vec_base_types@PEBVCellRenderer@Gtk@@V?$allocator@PEBVCellRenderer@Gtk@@@std@@@std@@@std@@QEAA@XZ
    ??1?$_Vector_alloc@U?$_Vec_base_types@PEBVCellRenderer@Gtk@@V?$allocator@PEBVCellRenderer@Gtk@@@std@@@std@@@std@@QEAA@XZ
    ?_Alloc_proxy@?$_Vector_alloc@U?$_Vec_base_types@PEBVCellRenderer@Gtk@@V?$allocator@PEBVCellRenderer@Gtk@@@std@@@std@@@std@@QEAAXXZ
    ?_Free_proxy@?$_Vector_alloc@U?$_Vec_base_types@PEBVCellRenderer@Gtk@@V?$allocator@PEBVCellRenderer@Gtk@@@std@@@std@@@std@@QEAAXXZ
    ?_Myproxy@?$_Vector_alloc@U?$_Vec_base_types@PEBVCellRenderer@Gtk@@V?$allocator@PEBVCellRenderer@Gtk@@@std@@@std@@@std@@QEAAAEAPEAU_Container_proxy@2@XZ
    ?_Orphan_all@?$_Vector_alloc@U?$_Vec_base_types@PEBVCellRenderer@Gtk@@V?$allocator@PEBVCellRenderer@Gtk@@@std@@@std@@@std@@QEAAXXZ
    ?_Getal@?$_Vector_alloc@U?$_Vec_base_types@PEBVCellRenderer@Gtk@@V?$allocator@PEBVCellRenderer@Gtk@@@std@@@std@@@std@@QEAAAEAU?$_Wrap_alloc@V?$allocator@PEBVCellRenderer@Gtk@@@std@@@2@XZ
    ?_Getal@?$_Vector_alloc@U?$_Vec_base_types@PEBVCellRenderer@Gtk@@V?$allocator@PEBVCellRenderer@Gtk@@@std@@@std@@@std@@QEBAAEBU?$_Wrap_alloc@V?$allocator@PEBVCellRenderer@Gtk@@@std@@@2@XZ
    ?_Get_data@?$_Vector_alloc@U?$_Vec_base_types@PEBVCellRenderer@Gtk@@V?$allocator@PEBVCellRenderer@Gtk@@@std@@@std@@@std@@QEAAAEAV?$_Vector_val@U?$_Simple_types@PEBVCellRenderer@Gtk@@@std@@@2@XZ
    ?_Myfirst@?$_Vector_alloc@U?$_Vec_base_types@PEBVCellRenderer@Gtk@@V?$allocator@PEBVCellRenderer@Gtk@@@std@@@std@@@std@@QEAAAEAPEAPEBVCellRenderer@Gtk@@XZ
    ?_Mylast@?$_Vector_alloc@U?$_Vec_base_types@PEBVCellRenderer@Gtk@@V?$allocator@PEBVCellRenderer@Gtk@@@std@@@std@@@std@@QEAAAEAPEAPEBVCellRenderer@Gtk@@XZ
    ?_Myend@?$_Vector_alloc@U?$_Vec_base_types@PEBVCellRenderer@Gtk@@V?$allocator@PEBVCellRenderer@Gtk@@@std@@@std@@@std@@QEAAAEAPEAPEBVCellRenderer@Gtk@@XZ
    ??0?$_Vector_val@U?$_Simple_types@PEBVCellRenderer@Gtk@@@std@@@std@@QEAA@XZ
    ??1?$_Vector_val@U?$_Simple_types@PEBVCellRenderer@Gtk@@@std@@@std@@QEAA@XZ
    ?_Get_first@?$_Compressed_pair@U?$_Wrap_alloc@V?$allocator@PEBVCellRenderer@Gtk@@@std@@@std@@V?$_Vector_val@U?$_Simple_types@PEBVCellRenderer@Gtk@@@std@@@2@$00@std@@QEAAAEAU?$_Wrap_alloc@V?$allocator@PEBVCellRenderer@Gtk@@@std@@@2@XZ
    ?_Get_first@?$_Compressed_pair@U?$_Wrap_alloc@V?$allocator@PEBVCellRenderer@Gtk@@@std@@@std@@V?$_Vector_val@U?$_Simple_types@PEBVCellRenderer@Gtk@@@std@@@2@$00@std@@QEBAAEBU?$_Wrap_alloc@V?$allocator@PEBVCellRenderer@Gtk@@@std@@@2@XZ
    ?_Get_second@?$_Compressed_pair@U?$_Wrap_alloc@V?$allocator@PEBVCellRenderer@Gtk@@@std@@@std@@V?$_Vector_val@U?$_Simple_types@PEBVCellRenderer@Gtk@@@std@@@2@$00@std@@QEAAAEAV?$_Vector_val@U?$_Simple_types@PEBVCellRenderer@Gtk@@@std@@@2@XZ
    ??1?$_Compressed_pair@U?$_Wrap_alloc@V?$allocator@PEBVCellRenderer@Gtk@@@std@@@std@@V?$_Vector_val@U?$_Simple_types@PEBVCellRenderer@Gtk@@@std@@@2@$00@std@@QEAA@XZ
    ?max_size@?$vector@PEBVCellRenderer@Gtk@@V?$allocator@PEBVCellRenderer@Gtk@@@std@@@std@@QEBA_KXZ
    ?_Buy@?$vector@PEBVCellRenderer@Gtk@@V?$allocator@PEBVCellRenderer@Gtk@@@std@@@std@@IEAA_N_K@Z
    ?_Destroy@?$vector@PEBVCellRenderer@Gtk@@V?$allocator@PEBVCellRenderer@Gtk@@@std@@@std@@IEAAXPEAPEBVCellRenderer@Gtk@@0@Z
    ?_Tidy@?$vector@PEBVCellRenderer@Gtk@@V?$allocator@PEBVCellRenderer@Gtk@@@std@@@std@@IEAAXXZ
    ?_Xlen@?$vector@PEBVCellRenderer@Gtk@@V?$allocator@PEBVCellRenderer@Gtk@@@std@@@std@@IEBAXXZ
    ?to_cpp_type@?$TypeTraits@PEBVCellRenderer@Gtk@@@Container_Helpers@Glib@@SAPEBVCellRenderer@Gtk@@PEBU_GtkCellRenderer@@@Z
    ?release_c_type@?$TypeTraits@PEBVCellRenderer@Gtk@@@Container_Helpers@Glib@@SAXPEBU_GtkCellRenderer@@@Z
    ?list_to_vector@?$ListHandler@PEBVCellRenderer@Gtk@@U?$TypeTraits@PEBVCellRenderer@Gtk@@@Container_Helpers@Glib@@@Glib@@SA?AV?$vector@PEBVCellRenderer@Gtk@@V?$allocator@PEBVCellRenderer@Gtk@@@std@@@std@@PEAU_GList@@W4OwnershipType@2@@Z
    ??0?$SignalProxy4@XAEBV?$RefPtr@VTreeModel@Gtk@@@Glib@@AEBVTreeIter@Gtk@@_N_N@Glib@@QEAA@PEAVObjectBase@1@PEBUSignalProxyInfo@1@@Z
    ??0?$SignalProxy4@XPEAVCellRenderer@Gtk@@PEAVCellEditable@2@AEBVRectangle@Gdk@@AEBVustring@Glib@@@Glib@@QEAA@PEAVObjectBase@1@PEBUSignalProxyInfo@1@@Z
    ??0?$SignalProxy2@XPEAVCellRenderer@Gtk@@PEAVCellEditable@2@@Glib@@QEAA@PEAVObjectBase@1@PEBUSignalProxyInfo@1@@Z
    ??0?$SignalProxy2@XPEAVCellRenderer@Gtk@@AEBVustring@Glib@@@Glib@@QEAA@PEAVObjectBase@1@PEBUSignalProxyInfo@1@@Z
    ??0?$PropertyProxy@PEAVCellRenderer@Gtk@@@Glib@@QEAA@PEAVObjectBase@1@PEBD@Z
    ??0?$PropertyProxy_ReadOnly@PEAVCellRenderer@Gtk@@@Glib@@QEAA@PEBVObjectBase@1@PEBD@Z
    ??0?$PropertyProxy_ReadOnly@PEAVCellEditable@Gtk@@@Glib@@QEAA@PEBVObjectBase@1@PEBD@Z
    ?deallocate@?$allocator@U_Container_proxy@std@@@std@@QEAAXPEAU_Container_proxy@2@_K@Z
    ?allocate@?$allocator@U_Container_proxy@std@@@std@@QEAAPEAU_Container_proxy@2@_K@Z
    ?allocate@?$_Wrap_alloc@V?$allocator@U_Container_proxy@std@@@std@@@std@@QEAAPEAU_Container_proxy@2@_K@Z
    ?deallocate@?$_Wrap_alloc@V?$allocator@U_Container_proxy@std@@@std@@@std@@QEAAXPEAU_Container_proxy@2@_K@Z
    ??$?0AEAU?$_Wrap_alloc@V?$allocator@PEBVCellRenderer@Gtk@@@std@@@std@@@?$_Wrap_alloc@V?$allocator@U_Container_proxy@std@@@std@@@std@@QEAA@AEAU?$_Wrap_alloc@V?$allocator@PEBVCellRenderer@Gtk@@@std@@@1@@Z
    ??$destroy@U_Container_proxy@std@@@?$_Wrap_alloc@V?$allocator@U_Container_proxy@std@@@std@@@std@@QEAAXPEAU_Container_proxy@1@@Z
    ??$?0AEAU?$_Wrap_alloc@V?$allocator@PEAVCellRenderer@Gtk@@@std@@@std@@@?$_Wrap_alloc@V?$allocator@U_Container_proxy@std@@@std@@@std@@QEAA@AEAU?$_Wrap_alloc@V?$allocator@PEAVCellRenderer@Gtk@@@std@@@1@@Z
    ??$_Destroy_range@U?$_Wrap_alloc@V?$allocator@PEBVCellRenderer@Gtk@@@std@@@std@@@std@@YAXPEAPEBVCellRenderer@Gtk@@0AEAU?$_Wrap_alloc@V?$allocator@PEBVCellRenderer@Gtk@@@std@@@0@@Z
    ??$_Destroy_range@U?$_Wrap_alloc@V?$allocator@PEAVCellRenderer@Gtk@@@std@@@std@@@std@@YAXPEAPEAVCellRenderer@Gtk@@0AEAU?$_Wrap_alloc@V?$allocator@PEAVCellRenderer@Gtk@@@std@@@0@@Z
    ??$construct@U_Container_proxy@std@@U12@@?$_Wrap_alloc@V?$allocator@U_Container_proxy@std@@@std@@@std@@QEAAXPEAU_Container_proxy@1@$$QEAU21@@Z
    ??0?$GListKeeper@U?$TypeTraits@PEAVCellRenderer@Gtk@@@Container_Helpers@Glib@@@Container_Helpers@Glib@@QEAA@PEBU_GList@@W4OwnershipType@2@@Z
    ??1?$GListKeeper@U?$TypeTraits@PEAVCellRenderer@Gtk@@@Container_Helpers@Glib@@@Container_Helpers@Glib@@QEAA@XZ
    ??0?$ListIterator@U?$TypeTraits@PEAVCellRenderer@Gtk@@@Container_Helpers@Glib@@@Container_Helpers@Glib@@QEAA@PEBU_GList@@@Z
    ??D?$ListIterator@U?$TypeTraits@PEAVCellRenderer@Gtk@@@Container_Helpers@Glib@@@Container_Helpers@Glib@@QEBAPEAVCellRenderer@Gtk@@XZ
    ??E?$ListIterator@U?$TypeTraits@PEAVCellRenderer@Gtk@@@Container_Helpers@Glib@@@Container_Helpers@Glib@@QEAAAEAV012@XZ
    ??9?$ListIterator@U?$TypeTraits@PEAVCellRenderer@Gtk@@@Container_Helpers@Glib@@@Container_Helpers@Glib@@QEBA_NAEBV012@@Z
    ??$?0V?$ListIterator@U?$TypeTraits@PEAVCellRenderer@Gtk@@@Container_Helpers@Glib@@@Container_Helpers@Glib@@X@?$vector@PEAVCellRenderer@Gtk@@V?$allocator@PEAVCellRenderer@Gtk@@@std@@@std@@QEAA@V?$ListIterator@U?$TypeTraits@PEAVCellRenderer@Gtk@@@Container_Helpers@Glib@@@Container_Helpers@Glib@@0@Z
    ??0?$GListKeeper@U?$TypeTraits@PEBVCellRenderer@Gtk@@@Container_Helpers@Glib@@@Container_Helpers@Glib@@QEAA@PEBU_GList@@W4OwnershipType@2@@Z
    ??1?$GListKeeper@U?$TypeTraits@PEBVCellRenderer@Gtk@@@Container_Helpers@Glib@@@Container_Helpers@Glib@@QEAA@XZ
    ??0?$ListIterator@U?$TypeTraits@PEBVCellRenderer@Gtk@@@Container_Helpers@Glib@@@Container_Helpers@Glib@@QEAA@PEBU_GList@@@Z
    ??D?$ListIterator@U?$TypeTraits@PEBVCellRenderer@Gtk@@@Container_Helpers@Glib@@@Container_Helpers@Glib@@QEBAPEBVCellRenderer@Gtk@@XZ
    ??E?$ListIterator@U?$TypeTraits@PEBVCellRenderer@Gtk@@@Container_Helpers@Glib@@@Container_Helpers@Glib@@QEAAAEAV012@XZ
    ??9?$ListIterator@U?$TypeTraits@PEBVCellRenderer@Gtk@@@Container_Helpers@Glib@@@Container_Helpers@Glib@@QEBA_NAEBV012@@Z
    ??$?0V?$ListIterator@U?$TypeTraits@PEBVCellRenderer@Gtk@@@Container_Helpers@Glib@@@Container_Helpers@Glib@@X@?$vector@PEBVCellRenderer@Gtk@@V?$allocator@PEBVCellRenderer@Gtk@@@std@@@std@@QEAA@V?$ListIterator@U?$TypeTraits@PEBVCellRenderer@Gtk@@@Container_Helpers@Glib@@@Container_Helpers@Glib@@0@Z
    ??$forward@AEAU?$_Wrap_alloc@V?$allocator@PEBVCellRenderer@Gtk@@@std@@@std@@@std@@YAAEAU?$_Wrap_alloc@V?$allocator@PEBVCellRenderer@Gtk@@@std@@@0@AEAU10@@Z
    ??$?0PEBVCellRenderer@Gtk@@@?$allocator@U_Container_proxy@std@@@std@@QEAA@AEBV?$allocator@PEBVCellRenderer@Gtk@@@1@@Z
    ??$destroy@U_Container_proxy@std@@@?$allocator_traits@V?$allocator@U_Container_proxy@std@@@std@@@std@@SAXAEAV?$allocator@U_Container_proxy@std@@@1@PEAU_Container_proxy@1@@Z
    ??$forward@AEAU?$_Wrap_alloc@V?$allocator@PEAVCellRenderer@Gtk@@@std@@@std@@@std@@YAAEAU?$_Wrap_alloc@V?$allocator@PEAVCellRenderer@Gtk@@@std@@@0@AEAU10@@Z
    ??$?0PEAVCellRenderer@Gtk@@@?$allocator@U_Container_proxy@std@@@std@@QEAA@AEBV?$allocator@PEAVCellRenderer@Gtk@@@1@@Z
    ??$addressof@PEBVCellRenderer@Gtk@@@std@@YAPEAPEBVCellRenderer@Gtk@@AEAPEBV12@@Z
    ??$destroy@PEBVCellRenderer@Gtk@@@?$_Wrap_alloc@V?$allocator@PEBVCellRenderer@Gtk@@@std@@@std@@QEAAXPEAPEBVCellRenderer@Gtk@@@Z
    ??$addressof@PEAVCellRenderer@Gtk@@@std@@YAPEAPEAVCellRenderer@Gtk@@AEAPEAV12@@Z
    ??$destroy@PEAVCellRenderer@Gtk@@@?$_Wrap_alloc@V?$allocator@PEAVCellRenderer@Gtk@@@std@@@std@@QEAAXPEAPEAVCellRenderer@Gtk@@@Z
    ??$forward@U_Container_proxy@std@@@std@@YA$$QEAU_Container_proxy@0@AEAU10@@Z
    ??$construct@U_Container_proxy@std@@U12@@?$allocator_traits@V?$allocator@U_Container_proxy@std@@@std@@@std@@SAXAEAV?$allocator@U_Container_proxy@std@@@1@PEAU_Container_proxy@1@$$QEAU31@@Z
    ??$_Construct@V?$ListIterator@U?$TypeTraits@PEAVCellRenderer@Gtk@@@Container_Helpers@Glib@@@Container_Helpers@Glib@@@?$vector@PEAVCellRenderer@Gtk@@V?$allocator@PEAVCellRenderer@Gtk@@@std@@@std@@QEAAXV?$ListIterator@U?$TypeTraits@PEAVCellRenderer@Gtk@@@Container_Helpers@Glib@@@Container_Helpers@Glib@@0@Z
    ??$_Construct@V?$ListIterator@U?$TypeTraits@PEBVCellRenderer@Gtk@@@Container_Helpers@Glib@@@Container_Helpers@Glib@@@?$vector@PEBVCellRenderer@Gtk@@V?$allocator@PEBVCellRenderer@Gtk@@@std@@@std@@QEAAXV?$ListIterator@U?$TypeTraits@PEBVCellRenderer@Gtk@@@Container_Helpers@Glib@@@Container_Helpers@Glib@@0@Z
    ??$destroy@U_Container_proxy@std@@@?$allocator@U_Container_proxy@std@@@std@@QEAAXPEAU_Container_proxy@1@@Z
    ??$_Addressof@PEBVCellRenderer@Gtk@@@std@@YAPEAPEBVCellRenderer@Gtk@@AEAPEBV12@U?$integral_constant@_N$0A@@0@@Z
    ??$destroy@PEBVCellRenderer@Gtk@@@?$allocator_traits@V?$allocator@PEBVCellRenderer@Gtk@@@std@@@std@@SAXAEAV?$allocator@PEBVCellRenderer@Gtk@@@1@PEAPEBVCellRenderer@Gtk@@@Z
    ??$_Addressof@PEAVCellRenderer@Gtk@@@std@@YAPEAPEAVCellRenderer@Gtk@@AEAPEAV12@U?$integral_constant@_N$0A@@0@@Z
    ??$destroy@PEAVCellRenderer@Gtk@@@?$allocator_traits@V?$allocator@PEAVCellRenderer@Gtk@@@std@@@std@@SAXAEAV?$allocator@PEAVCellRenderer@Gtk@@@1@PEAPEAVCellRenderer@Gtk@@@Z
    ??$construct@U_Container_proxy@std@@U12@@?$allocator@U_Container_proxy@std@@@std@@QEAAXPEAU_Container_proxy@1@$$QEAU21@@Z
    ??$?0$$V@?$_Compressed_pair@U?$_Wrap_alloc@V?$allocator@PEBVCellRenderer@Gtk@@@std@@@std@@V?$_Vector_val@U?$_Simple_types@PEBVCellRenderer@Gtk@@@std@@@2@$00@std@@QEAA@U_Zero_then_variadic_args_t@1@@Z
    ??$?0$$V@?$_Compressed_pair@U?$_Wrap_alloc@V?$allocator@PEAVCellRenderer@Gtk@@@std@@@std@@V?$_Vector_val@U?$_Simple_types@PEAVCellRenderer@Gtk@@@std@@@2@$00@std@@QEAA@U_Zero_then_variadic_args_t@1@@Z
    ??$_Iter_cat@V?$ListIterator@U?$TypeTraits@PEAVCellRenderer@Gtk@@@Container_Helpers@Glib@@@Container_Helpers@Glib@@@std@@YA?AUforward_iterator_tag@0@AEBV?$ListIterator@U?$TypeTraits@PEAVCellRenderer@Gtk@@@Container_Helpers@Glib@@@Container_Helpers@Glib@@@Z
    ??$_Construct@V?$ListIterator@U?$TypeTraits@PEAVCellRenderer@Gtk@@@Container_Helpers@Glib@@@Container_Helpers@Glib@@@?$vector@PEAVCellRenderer@Gtk@@V?$allocator@PEAVCellRenderer@Gtk@@@std@@@std@@QEAAXV?$ListIterator@U?$TypeTraits@PEAVCellRenderer@Gtk@@@Container_Helpers@Glib@@@Container_Helpers@Glib@@0Uforward_iterator_tag@1@@Z
    ??$_Iter_cat@V?$ListIterator@U?$TypeTraits@PEBVCellRenderer@Gtk@@@Container_Helpers@Glib@@@Container_Helpers@Glib@@@std@@YA?AUforward_iterator_tag@0@AEBV?$ListIterator@U?$TypeTraits@PEBVCellRenderer@Gtk@@@Container_Helpers@Glib@@@Container_Helpers@Glib@@@Z
    ??$_Construct@V?$ListIterator@U?$TypeTraits@PEBVCellRenderer@Gtk@@@Container_Helpers@Glib@@@Container_Helpers@Glib@@@?$vector@PEBVCellRenderer@Gtk@@V?$allocator@PEBVCellRenderer@Gtk@@@std@@@std@@QEAAXV?$ListIterator@U?$TypeTraits@PEBVCellRenderer@Gtk@@@Container_Helpers@Glib@@@Container_Helpers@Glib@@0Uforward_iterator_tag@1@@Z
    ??$destroy@PEBVCellRenderer@Gtk@@@?$allocator@PEBVCellRenderer@Gtk@@@std@@QEAAXPEAPEBVCellRenderer@Gtk@@@Z
    ??$destroy@PEAVCellRenderer@Gtk@@@?$allocator@PEAVCellRenderer@Gtk@@@std@@QEAAXPEAPEAVCellRenderer@Gtk@@@Z
    ??$distance@V?$ListIterator@U?$TypeTraits@PEAVCellRenderer@Gtk@@@Container_Helpers@Glib@@@Container_Helpers@Glib@@@std@@YA_JV?$ListIterator@U?$TypeTraits@PEAVCellRenderer@Gtk@@@Container_Helpers@Glib@@@Container_Helpers@Glib@@0@Z
    ??$_Ucopy@V?$ListIterator@U?$TypeTraits@PEAVCellRenderer@Gtk@@@Container_Helpers@Glib@@@Container_Helpers@Glib@@@?$vector@PEAVCellRenderer@Gtk@@V?$allocator@PEAVCellRenderer@Gtk@@@std@@@std@@IEAAPEAPEAVCellRenderer@Gtk@@V?$ListIterator@U?$TypeTraits@PEAVCellRenderer@Gtk@@@Container_Helpers@Glib@@@Container_Helpers@Glib@@0PEAPEAV23@@Z
    ??$distance@V?$ListIterator@U?$TypeTraits@PEBVCellRenderer@Gtk@@@Container_Helpers@Glib@@@Container_Helpers@Glib@@@std@@YA_JV?$ListIterator@U?$TypeTraits@PEBVCellRenderer@Gtk@@@Container_Helpers@Glib@@@Container_Helpers@Glib@@0@Z
    ??$_Ucopy@V?$ListIterator@U?$TypeTraits@PEBVCellRenderer@Gtk@@@Container_Helpers@Glib@@@Container_Helpers@Glib@@@?$vector@PEBVCellRenderer@Gtk@@V?$allocator@PEBVCellRenderer@Gtk@@@std@@@std@@IEAAPEAPEBVCellRenderer@Gtk@@V?$ListIterator@U?$TypeTraits@PEBVCellRenderer@Gtk@@@Container_Helpers@Glib@@@Container_Helpers@Glib@@0PEAPEBV23@@Z
    ??$_Distance2@V?$ListIterator@U?$TypeTraits@PEAVCellRenderer@Gtk@@@Container_Helpers@Glib@@@Container_Helpers@Glib@@_J@std@@YAXV?$ListIterator@U?$TypeTraits@PEAVCellRenderer@Gtk@@@Container_Helpers@Glib@@@Container_Helpers@Glib@@0AEA_JUforward_iterator_tag@0@@Z
    ??$_Uninitialized_copy@V?$ListIterator@U?$TypeTraits@PEAVCellRenderer@Gtk@@@Container_Helpers@Glib@@@Container_Helpers@Glib@@PEAPEAVCellRenderer@Gtk@@U?$_Wrap_alloc@V?$allocator@PEAVCellRenderer@Gtk@@@std@@@std@@@std@@YAPEAPEAVCellRenderer@Gtk@@V?$ListIterator@U?$TypeTraits@PEAVCellRenderer@Gtk@@@Container_Helpers@Glib@@@Container_Helpers@Glib@@0PEAPEAV12@AEAU?$_Wrap_alloc@V?$allocator@PEAVCellRenderer@Gtk@@@std@@@0@@Z
    ??$_Distance2@V?$ListIterator@U?$TypeTraits@PEBVCellRenderer@Gtk@@@Container_Helpers@Glib@@@Container_Helpers@Glib@@_J@std@@YAXV?$ListIterator@U?$TypeTraits@PEBVCellRenderer@Gtk@@@Container_Helpers@Glib@@@Container_Helpers@Glib@@0AEA_JUforward_iterator_tag@0@@Z
    ??$_Uninitialized_copy@V?$ListIterator@U?$TypeTraits@PEBVCellRenderer@Gtk@@@Container_Helpers@Glib@@@Container_Helpers@Glib@@PEAPEBVCellRenderer@Gtk@@U?$_Wrap_alloc@V?$allocator@PEBVCellRenderer@Gtk@@@std@@@std@@@std@@YAPEAPEBVCellRenderer@Gtk@@V?$ListIterator@U?$TypeTraits@PEBVCellRenderer@Gtk@@@Container_Helpers@Glib@@@Container_Helpers@Glib@@0PEAPEBV12@AEAU?$_Wrap_alloc@V?$allocator@PEBVCellRenderer@Gtk@@@std@@@0@@Z
    ??$_Unchecked@V?$ListIterator@U?$TypeTraits@PEAVCellRenderer@Gtk@@@Container_Helpers@Glib@@@Container_Helpers@Glib@@@std@@YA?AV?$ListIterator@U?$TypeTraits@PEAVCellRenderer@Gtk@@@Container_Helpers@Glib@@@Container_Helpers@Glib@@V123@@Z
    ??$_Unchecked@PEAPEAVCellRenderer@Gtk@@@std@@YAPEAPEAVCellRenderer@Gtk@@PEAPEAV12@@Z
    ??$_Uninitialized_copy_al_unchecked@V?$ListIterator@U?$TypeTraits@PEAVCellRenderer@Gtk@@@Container_Helpers@Glib@@@Container_Helpers@Glib@@PEAPEAVCellRenderer@Gtk@@U?$_Wrap_alloc@V?$allocator@PEAVCellRenderer@Gtk@@@std@@@std@@@std@@YAPEAPEAVCellRenderer@Gtk@@V?$ListIterator@U?$TypeTraits@PEAVCellRenderer@Gtk@@@Container_Helpers@Glib@@@Container_Helpers@Glib@@0PEAPEAV12@AEAU?$_Wrap_alloc@V?$allocator@PEAVCellRenderer@Gtk@@@std@@@0@@Z
    ??$_Rechecked@PEAPEAVCellRenderer@Gtk@@PEAPEAV12@@std@@YAAEAPEAPEAVCellRenderer@Gtk@@AEAPEAPEAV12@PEAPEAV12@@Z
    ??$_Unchecked@V?$ListIterator@U?$TypeTraits@PEBVCellRenderer@Gtk@@@Container_Helpers@Glib@@@Container_Helpers@Glib@@@std@@YA?AV?$ListIterator@U?$TypeTraits@PEBVCellRenderer@Gtk@@@Container_Helpers@Glib@@@Container_Helpers@Glib@@V123@@Z
    ??$_Unchecked@PEAPEBVCellRenderer@Gtk@@@std@@YAPEAPEBVCellRenderer@Gtk@@PEAPEBV12@@Z
    ??$_Uninitialized_copy_al_unchecked@V?$ListIterator@U?$TypeTraits@PEBVCellRenderer@Gtk@@@Container_Helpers@Glib@@@Container_Helpers@Glib@@PEAPEBVCellRenderer@Gtk@@U?$_Wrap_alloc@V?$allocator@PEBVCellRenderer@Gtk@@@std@@@std@@@std@@YAPEAPEBVCellRenderer@Gtk@@V?$ListIterator@U?$TypeTraits@PEBVCellRenderer@Gtk@@@Container_Helpers@Glib@@@Container_Helpers@Glib@@0PEAPEBV12@AEAU?$_Wrap_alloc@V?$allocator@PEBVCellRenderer@Gtk@@@std@@@0@@Z
    ??$_Rechecked@PEAPEBVCellRenderer@Gtk@@PEAPEBV12@@std@@YAAEAPEAPEBVCellRenderer@Gtk@@AEAPEAPEBV12@PEAPEBV12@@Z
    ??$_Ptr_copy_cat@V?$ListIterator@U?$TypeTraits@PEAVCellRenderer@Gtk@@@Container_Helpers@Glib@@@Container_Helpers@Glib@@PEAPEAVCellRenderer@Gtk@@@std@@YA?AU_General_ptr_iterator_tag@0@AEBV?$ListIterator@U?$TypeTraits@PEAVCellRenderer@Gtk@@@Container_Helpers@Glib@@@Container_Helpers@Glib@@AEBQEAPEAVCellRenderer@Gtk@@@Z
    ??$_Uninitialized_copy_al_unchecked1@V?$ListIterator@U?$TypeTraits@PEAVCellRenderer@Gtk@@@Container_Helpers@Glib@@@Container_Helpers@Glib@@PEAPEAVCellRenderer@Gtk@@V?$allocator@PEAVCellRenderer@Gtk@@@std@@@std@@YAPEAPEAVCellRenderer@Gtk@@V?$ListIterator@U?$TypeTraits@PEAVCellRenderer@Gtk@@@Container_Helpers@Glib@@@Container_Helpers@Glib@@0PEAPEAV12@AEAU?$_Wrap_alloc@V?$allocator@PEAVCellRenderer@Gtk@@@std@@@0@U_General_ptr_iterator_tag@0@@Z
    ??$_Ptr_copy_cat@V?$ListIterator@U?$TypeTraits@PEBVCellRenderer@Gtk@@@Container_Helpers@Glib@@@Container_Helpers@Glib@@PEAPEBVCellRenderer@Gtk@@@std@@YA?AU_General_ptr_iterator_tag@0@AEBV?$ListIterator@U?$TypeTraits@PEBVCellRenderer@Gtk@@@Container_Helpers@Glib@@@Container_Helpers@Glib@@AEBQEAPEBVCellRenderer@Gtk@@@Z
    ??$_Uninitialized_copy_al_unchecked1@V?$ListIterator@U?$TypeTraits@PEBVCellRenderer@Gtk@@@Container_Helpers@Glib@@@Container_Helpers@Glib@@PEAPEBVCellRenderer@Gtk@@V?$allocator@PEBVCellRenderer@Gtk@@@std@@@std@@YAPEAPEBVCellRenderer@Gtk@@V?$ListIterator@U?$TypeTraits@PEBVCellRenderer@Gtk@@@Container_Helpers@Glib@@@Container_Helpers@Glib@@0PEAPEBV12@AEAU?$_Wrap_alloc@V?$allocator@PEBVCellRenderer@Gtk@@@std@@@0@U_General_ptr_iterator_tag@0@@Z
    ??$construct@PEAVCellRenderer@Gtk@@PEAV12@@?$_Wrap_alloc@V?$allocator@PEAVCellRenderer@Gtk@@@std@@@std@@QEAAXPEAPEAVCellRenderer@Gtk@@$$QEAPEAV23@@Z
    ??$construct@PEBVCellRenderer@Gtk@@PEBV12@@?$_Wrap_alloc@V?$allocator@PEBVCellRenderer@Gtk@@@std@@@std@@QEAAXPEAPEBVCellRenderer@Gtk@@$$QEAPEBV23@@Z
    ??$forward@PEAVCellRenderer@Gtk@@@std@@YA$$QEAPEAVCellRenderer@Gtk@@AEAPEAV12@@Z
    ??$construct@PEAVCellRenderer@Gtk@@PEAV12@@?$allocator_traits@V?$allocator@PEAVCellRenderer@Gtk@@@std@@@std@@SAXAEAV?$allocator@PEAVCellRenderer@Gtk@@@1@PEAPEAVCellRenderer@Gtk@@$$QEAPEAV34@@Z
    ??$forward@PEBVCellRenderer@Gtk@@@std@@YA$$QEAPEBVCellRenderer@Gtk@@AEAPEBV12@@Z
    ??$construct@PEBVCellRenderer@Gtk@@PEBV12@@?$allocator_traits@V?$allocator@PEBVCellRenderer@Gtk@@@std@@@std@@SAXAEAV?$allocator@PEBVCellRenderer@Gtk@@@1@PEAPEBVCellRenderer@Gtk@@$$QEAPEBV34@@Z
    ??$construct@PEAVCellRenderer@Gtk@@PEAV12@@?$allocator@PEAVCellRenderer@Gtk@@@std@@QEAAXPEAPEAVCellRenderer@Gtk@@$$QEAPEAV23@@Z
    ??$construct@PEBVCellRenderer@Gtk@@PEBV12@@?$allocator@PEBVCellRenderer@Gtk@@@std@@QEAAXPEAPEBVCellRenderer@Gtk@@$$QEAPEBV23@@Z
    ??_C@_0BE@LMNLACIC@_Ptr_container?5?$CB?$DN?50?$AA@
    ??_C@_1DG@HGDKEBPG@?$AA?$CC?$AA_?$AAP?$AAt?$AAr?$AA_?$AAc?$AAo?$AAn?$AAt?$AAa?$AAi?$AAn?$AAe?$AAr?$AA?5?$AA?$CB?$AA?$DN?$AA?5?$AA0?$AA?$CC?$AA?5?$AA?$CG?$AA?$CG?$AA?5?$AA0?$AA?$AA@
    ??_C@_17CNPHIMPH@?$AA?$CF?$AAl?$AAs?$AA?$AA@
    ??_C@_1GG@GGEDIOFC@?$AAD?$AA?3?$AA?2?$AAG?$AAi?$AAt?$AAH?$AAu?$AAb?$AA?2?$AAI?$AAn?$AAs?$AAt?$AAa?$AAl?$AAl?$AA?2?$AAV?$AAi?$AAs?$AAu?$AAa?$AAl?$AAS?$AAt?$AAu?$AAd?$AAi?$AAo?$AA?2?$AAV@
    ??_C@_1BO@NKFMJPA@?$AAs?$AAt?$AAd?$AA?3?$AA?3?$AA_?$AAA?$AAl?$AAl?$AAo?$AAc?$AAa?$AAt?$AAe?$AA?$AA@
    ??_C@_1CG@JNLFBNGN@?$AA?$CC?$AAi?$AAn?$AAv?$AAa?$AAl?$AAi?$AAd?$AA?5?$AAa?$AAr?$AAg?$AAu?$AAm?$AAe?$AAn?$AAt?$AA?$CC?$AA?$AA@
    ??_C@_09GLJCAGLP@_Ptr?5?$CB?$DN?50?$AA@
    ??_C@_1CC@GKJLLHIM@?$AA?$CC?$AA_?$AAP?$AAt?$AAr?$AA?5?$AA?$CB?$AA?$DN?$AA?5?$AA0?$AA?$CC?$AA?5?$AA?$CG?$AA?$CG?$AA?5?$AA0?$AA?$AA@
    ??_C@_0BN@HMCJOMKN@_Count?5?$DM?$DN?5?$CIsize_t?$CJ?$CI?91?$CJ?5?1?5_Sz?$AA@
    ??_C@_1EI@MLOBABC@?$AA?$CC?$AA_?$AAC?$AAo?$AAu?$AAn?$AAt?$AA?5?$AA?$DM?$AA?$DN?$AA?5?$AA?$CI?$AAs?$AAi?$AAz?$AAe?$AA_?$AAt?$AA?$CJ?$AA?$CI?$AA?9?$AA1?$AA?$CJ?$AA?5?$AA?1?$AA?5?$AA_?$AAS?$AAz?$AA?$CC?$AA?5?$AA?$CG@
    ??_C@_1CC@LOFJFFDB@?$AAs?$AAt?$AAd?$AA?3?$AA?3?$AA_?$AAD?$AAe?$AAa?$AAl?$AAl?$AAo?$AAc?$AAa?$AAt?$AAe?$AA?$AA@
    ??_C@_0DD@GBGGGKGG@?$CI_Ptr_user?5?$CG?5?$CI_BIG_ALLOCATION_AL@
    ??_C@_1HE@CDMBFOKC@?$AA?$CC?$AA?$CI?$AA_?$AAP?$AAt?$AAr?$AA_?$AAu?$AAs?$AAe?$AAr?$AA?5?$AA?$CG?$AA?5?$AA?$CI?$AA_?$AAB?$AAI?$AAG?$AA_?$AAA?$AAL?$AAL?$AAO?$AAC?$AAA?$AAT?$AAI?$AAO?$AAN?$AA_?$AAA@
    ??_C@_0EI@NOJHEJCJ@reinterpret_cast?$DMuintptr_t?5?$CK?$DO?$CI_P@
    ??_C@_1JO@EKLKIEHP@?$AA?$CC?$AAr?$AAe?$AAi?$AAn?$AAt?$AAe?$AAr?$AAp?$AAr?$AAe?$AAt?$AA_?$AAc?$AAa?$AAs?$AAt?$AA?$DM?$AAu?$AAi?$AAn?$AAt?$AAp?$AAt?$AAr?$AA_?$AAt?$AA?5?$AA?$CK?$AA?$DO?$AA?$CI?$AA_@
    ??_C@_0BL@OCKMEJON@_Ptr_container?5?$DM?5_Ptr_user?$AA@
    ??_C@_1EE@PDHAHDDC@?$AA?$CC?$AA_?$AAP?$AAt?$AAr?$AA_?$AAc?$AAo?$AAn?$AAt?$AAa?$AAi?$AAn?$AAe?$AAr?$AA?5?$AA?$DM?$AA?5?$AA_?$AAP?$AAt?$AAr?$AA_?$AAu?$AAs?$AAe?$AAr?$AA?$CC?$AA?5?$AA?$CG?$AA?$CG?$AA?5@
    ??_C@_0DB@GLFJLNCE@2?5?$CK?5sizeof?$CIvoid?5?$CK?$CJ?5?$DM?$DN?5_Ptr_user?5@
    ??_C@_1HA@NAPGMHAO@?$AA?$CC?$AA2?$AA?5?$AA?$CK?$AA?5?$AAs?$AAi?$AAz?$AAe?$AAo?$AAf?$AA?$CI?$AAv?$AAo?$AAi?$AAd?$AA?5?$AA?$CK?$AA?$CJ?$AA?5?$AA?$DM?$AA?$DN?$AA?5?$AA_?$AAP?$AAt?$AAr?$AA_?$AAu?$AAs?$AAe?$AAr@
    ??_C@_0CN@BLHJCAL@_Ptr_user?5?9?5_Ptr_container?5?$DM?$DN?5_N@
    ??_C@_1GI@DHJGPFNI@?$AA?$CC?$AA_?$AAP?$AAt?$AAr?$AA_?$AAu?$AAs?$AAe?$AAr?$AA?5?$AA?9?$AA?5?$AA_?$AAP?$AAt?$AAr?$AA_?$AAc?$AAo?$AAn?$AAt?$AAa?$AAi?$AAn?$AAe?$AAr?$AA?5?$AA?$DM?$AA?$DN?$AA?5?$AA_@
    ??_7CellArea@Gtk@@6BCellLayout@1@@
    ??_7CellArea@Gtk@@6B@
    ??_8CellArea@Gtk@@7BObject@Glib@@@
    ??_8CellArea@Gtk@@7BInterface@Glib@@Buildable@1@@
    ??_8CellArea@Gtk@@7BInterface@Glib@@CellLayout@1@@
    ??_8CellArea@Gtk@@7BObjectBase@Glib@@@
    ??_R0?AVObjectBase@Glib@@@8
    ??_R0?AVCellArea@Gtk@@@8
    ??_R0?AVCellEditable@Gtk@@@8
    ??_C@_0BD@OLBABOEK@vector?$DMT?$DO?5too?5long?$AA@
    ??_R0?AVCellRenderer@Gtk@@@8
    ??_R4CellArea@Gtk@@6BCellLayout@1@@
    ??_R3CellArea@Gtk@@8
    ??_R2CellArea@Gtk@@8
    ??_R1A@?0A@EA@CellArea@Gtk@@8
    ??_R1BA@?0A@EA@Object@Glib@@8
    ??_R0?AVObject@Glib@@@8
    ??_R3Object@Glib@@8
    ??_R2Object@Glib@@8
    ??_R1A@?0A@EA@Object@Glib@@8
    ??_R1A@A@7FA@ObjectBase@Glib@@8
    ??_R3ObjectBase@Glib@@8
    ??_R2ObjectBase@Glib@@8
    ??_R1A@?0A@EA@ObjectBase@Glib@@8
    ??_R1A@73FA@trackable@sigc@@8
    ??_R0?AUtrackable@sigc@@@8
    ??_R3trackable@sigc@@8
    ??_R2trackable@sigc@@8
    ??_R1A@?0A@EA@trackable@sigc@@8
    ??_R1A@A@3FA@trackable@sigc@@8
    ??_R1A@BA@7FA@ObjectBase@Glib@@8
    ??_R1A@BA@3FA@trackable@sigc@@8
    ??_R1BI@?0A@EA@Buildable@Gtk@@8
    ??_R0?AVBuildable@Gtk@@@8
    ??_R3Buildable@Gtk@@8
    ??_R2Buildable@Gtk@@8
    ??_R1A@?0A@EA@Buildable@Gtk@@8
    ??_R1A@?0A@EA@Interface@Glib@@8
    ??_R0?AVInterface@Glib@@@8
    ??_R3Interface@Glib@@8
    ??_R2Interface@Glib@@8
    ??_R1BI@?0A@EC@Interface@Glib@@8
    ??_R1A@?0A@EA@CellLayout@Gtk@@8
    ??_R0?AVCellLayout@Gtk@@@8
    ??_R3CellLayout@Gtk@@8
    ??_R2CellLayout@Gtk@@8
    ??_R17?0A@EA@Interface@Glib@@8
    ??_R1A@77FA@ObjectBase@Glib@@8
    ??_R17?0A@EC@Interface@Glib@@8
    ??_R4CellArea@Gtk@@6B@
    ?cellareabox_class_@CellAreaBox@Gtk@@0VCellAreaBox_Class@2@A
    ?__empty_global_delete@@YAXPEAX@Z
    ?__empty_global_delete@@YAXPEAX_K@Z
    ?get_type@Class@Glib@@QEBA_KXZ
    ?gobj@CellRenderer@Gtk@@QEAAPEAU_GtkCellRenderer@@XZ
    ??0CellAreaBox@Gtk@@IEAA@AEBVConstructParams@Glib@@@Z
    ??0CellAreaBox@Gtk@@IEAA@PEAU_GtkCellAreaBox@@@Z
    ??1CellAreaBox@Gtk@@UEAA@XZ
    ?get_type@CellAreaBox@Gtk@@SA_KXZ
    ?get_base_type@CellAreaBox@Gtk@@SA_KXZ
    ?gobj@CellAreaBox@Gtk@@QEAAPEAU_GtkCellAreaBox@@XZ
    ?gobj@CellAreaBox@Gtk@@QEBAPEBU_GtkCellAreaBox@@XZ
    ?gobj_copy@CellAreaBox@Gtk@@QEAAPEAU_GtkCellAreaBox@@XZ
    ??0CellAreaBox@Gtk@@IEAA@XZ
    ?create@CellAreaBox@Gtk@@SA?AV?$RefPtr@VCellAreaBox@Gtk@@@Glib@@XZ
    ?pack_start@CellAreaBox@Gtk@@QEAAXAEAVCellRenderer@2@_N11@Z
    ?pack_end@CellAreaBox@Gtk@@QEAAXAEAVCellRenderer@2@_N11@Z
    ?get_spacing@CellAreaBox@Gtk@@QEBAHXZ
    ?set_spacing@CellAreaBox@Gtk@@QEAAXH@Z
    ?property_spacing@CellAreaBox@Gtk@@QEAA?AV?$PropertyProxy@H@Glib@@XZ
    ?property_spacing@CellAreaBox@Gtk@@QEBA?AV?$PropertyProxy_ReadOnly@H@Glib@@XZ
    ??_DCellAreaBox@Gtk@@QEAAXXZ
    ?wrap@Glib@@YA?AV?$RefPtr@VCellAreaBox@Gtk@@@1@PEAU_GtkCellAreaBox@@_N@Z
    ?init@CellAreaBox_Class@Gtk@@QEAAAEBVClass@Glib@@XZ
    ?class_init_function@CellAreaBox_Class@Gtk@@SAXPEAX0@Z
    ?wrap_new@CellAreaBox_Class@Gtk@@SAPEAVObjectBase@Glib@@PEAU_GObject@@@Z
    ??0?$RefPtr@VCellAreaBox@Gtk@@@Glib@@QEAA@PEAVCellAreaBox@Gtk@@@Z
    ??0?$PropertyProxy@H@Glib@@QEAA@PEAVObjectBase@1@PEBD@Z
    ??0?$PropertyProxy_ReadOnly@H@Glib@@QEAA@PEBVObjectBase@1@PEBD@Z
    ??_7CellAreaBox@Gtk@@6BCellLayout@1@@
    ??_7CellAreaBox@Gtk@@6B@
    ??_8CellAreaBox@Gtk@@7BObject@Glib@@@
    ??_8CellAreaBox@Gtk@@7BInterface@Glib@@Buildable@1@@
    ??_8CellAreaBox@Gtk@@7BInterface@Glib@@CellLayout@1@@
    ??_8CellAreaBox@Gtk@@7BInterface@Glib@@@
    ??_8CellAreaBox@Gtk@@7BObjectBase@Glib@@@
    ??_R0?AVObjectBase@Glib@@@8
    ??_R0?AVCellAreaBox@Gtk@@@8
    ??_R4CellAreaBox@Gtk@@6BCellLayout@1@@
    ??_R3CellAreaBox@Gtk@@8
    ??_R2CellAreaBox@Gtk@@8
    ??_R1A@?0A@EA@CellAreaBox@Gtk@@8
    ??_R1A@?0A@EA@CellArea@Gtk@@8
    ??_R0?AVCellArea@Gtk@@@8
    ??_R3CellArea@Gtk@@8
    ??_R2CellArea@Gtk@@8
    ??_R1BA@?0A@EA@Object@Glib@@8
    ??_R0?AVObject@Glib@@@8
    ??_R3Object@Glib@@8
    ??_R2Object@Glib@@8
    ??_R1A@?0A@EA@Object@Glib@@8
    ??_R1A@A@7FA@ObjectBase@Glib@@8
    ??_R3ObjectBase@Glib@@8
    ??_R2ObjectBase@Glib@@8
    ??_R1A@?0A@EA@ObjectBase@Glib@@8
    ??_R1A@73FA@trackable@sigc@@8
    ??_R0?AUtrackable@sigc@@@8
    ??_R3trackable@sigc@@8
    ??_R2trackable@sigc@@8
    ??_R1A@?0A@EA@trackable@sigc@@8
    ??_R1A@A@3FA@trackable@sigc@@8
    ??_R1A@BA@7FA@ObjectBase@Glib@@8
    ??_R1A@BA@3FA@trackable@sigc@@8
    ??_R1BI@?0A@EA@Buildable@Gtk@@8
    ??_R0?AVBuildable@Gtk@@@8
    ??_R3Buildable@Gtk@@8
    ??_R2Buildable@Gtk@@8
    ??_R1A@?0A@EA@Buildable@Gtk@@8
    ??_R1A@?0A@EA@Interface@Glib@@8
    ??_R0?AVInterface@Glib@@@8
    ??_R3Interface@Glib@@8
    ??_R2Interface@Glib@@8
    ??_R1BI@?0A@EC@Interface@Glib@@8
    ??_R1A@?0A@EA@CellLayout@Gtk@@8
    ??_R0?AVCellLayout@Gtk@@@8
    ??_R3CellLayout@Gtk@@8
    ??_R2CellLayout@Gtk@@8
    ??_R17?0A@EA@Interface@Glib@@8
    ??_R1A@77FA@ObjectBase@Glib@@8
    ??_R17?0A@EC@Interface@Glib@@8
    ??_R1CA@?0A@EA@Orientable@Gtk@@8
    ??_R0?AVOrientable@Gtk@@@8
    ??_R3Orientable@Gtk@@8
    ??_R2Orientable@Gtk@@8
    ??_R1A@?0A@EA@Orientable@Gtk@@8
    ??_R1CA@?0A@EC@Interface@Glib@@8
    ??_R4CellAreaBox@Gtk@@6B@
    ?cellareacontext_class_@CellAreaContext@Gtk@@0VCellAreaContext_Class@2@A
    ?__empty_global_delete@@YAXPEAX@Z
    ?__empty_global_delete@@YAXPEAX_K@Z
    ?get_type@Class@Glib@@QEBA_KXZ
    ??0CellAreaContext@Gtk@@IEAA@AEBVConstructParams@Glib@@@Z
    ??0CellAreaContext@Gtk@@IEAA@PEAU_GtkCellAreaContext@@@Z
    ??1CellAreaContext@Gtk@@UEAA@XZ
    ?get_type@CellAreaContext@Gtk@@SA_KXZ
    ?get_base_type@CellAreaContext@Gtk@@SA_KXZ
    ?gobj@CellAreaContext@Gtk@@QEAAPEAU_GtkCellAreaContext@@XZ
    ?gobj@CellAreaContext@Gtk@@QEBAPEBU_GtkCellAreaContext@@XZ
    ?gobj_copy@CellAreaContext@Gtk@@QEAAPEAU_GtkCellAreaContext@@XZ
    ?get_area@CellAreaContext@Gtk@@QEAA?AV?$RefPtr@VCellArea@Gtk@@@Glib@@XZ
    ?get_area@CellAreaContext@Gtk@@QEBA?AV?$RefPtr@$$CBVCellArea@Gtk@@@Glib@@XZ
    ?allocate@CellAreaContext@Gtk@@QEAAXHH@Z
    ?reset@CellAreaContext@Gtk@@QEAAXXZ
    ?get_preferred_width@CellAreaContext@Gtk@@QEBAXAEAH0@Z
    ?get_preferred_height@CellAreaContext@Gtk@@QEBAXAEAH0@Z
    ?get_preferred_height_for_width@CellAreaContext@Gtk@@QEBAXHAEAH0@Z
    ?get_preferred_width_for_height@CellAreaContext@Gtk@@QEBAXHAEAH0@Z
    ?get_allocation@CellAreaContext@Gtk@@QEBAXAEAH0@Z
    ?push_preferred_width@CellAreaContext@Gtk@@QEAAXHH@Z
    ?push_preferred_height@CellAreaContext@Gtk@@QEAAXHH@Z
    ?property_area@CellAreaContext@Gtk@@QEBA?AV?$PropertyProxy_ReadOnly@PEAVCellArea@Gtk@@@Glib@@XZ
    ?property_minimum_width@CellAreaContext@Gtk@@QEBA?AV?$PropertyProxy_ReadOnly@H@Glib@@XZ
    ?property_natural_width@CellAreaContext@Gtk@@QEBA?AV?$PropertyProxy_ReadOnly@H@Glib@@XZ
    ?property_minimum_height@CellAreaContext@Gtk@@QEBA?AV?$PropertyProxy_ReadOnly@H@Glib@@XZ
    ?property_natural_height@CellAreaContext@Gtk@@QEBA?AV?$PropertyProxy_ReadOnly@H@Glib@@XZ
    ??_DCellAreaContext@Gtk@@QEAAXXZ
    ?wrap@Glib@@YA?AV?$RefPtr@VCellAreaContext@Gtk@@@1@PEAU_GtkCellAreaContext@@_N@Z
    ?init@CellAreaContext_Class@Gtk@@QEAAAEBVClass@Glib@@XZ
    ?class_init_function@CellAreaContext_Class@Gtk@@SAXPEAX0@Z
    ?wrap_new@CellAreaContext_Class@Gtk@@SAPEAVObjectBase@Glib@@PEAU_GObject@@@Z
    ??0?$RefPtr@VCellAreaContext@Gtk@@@Glib@@QEAA@PEAVCellAreaContext@Gtk@@@Z
    ??1?$RefPtr@VCellArea@Gtk@@@Glib@@QEAA@XZ
    ??0?$RefPtr@VCellArea@Gtk@@@Glib@@QEAA@$$QEAV01@@Z
    ??C?$RefPtr@VCellArea@Gtk@@@Glib@@QEBAPEAVCellArea@Gtk@@XZ
    ??B?$RefPtr@VCellArea@Gtk@@@Glib@@QEBA_NXZ
    ?release@?$RefPtr@VCellArea@Gtk@@@Glib@@QEAAPEAVCellArea@Gtk@@XZ
    ??$?0VCellArea@Gtk@@@?$RefPtr@$$CBVCellArea@Gtk@@@Glib@@QEAA@$$QEAV?$RefPtr@VCellArea@Gtk@@@1@@Z
    ??0?$PropertyProxy_ReadOnly@PEAVCellArea@Gtk@@@Glib@@QEAA@PEBVObjectBase@1@PEBD@Z
    ??0?$PropertyProxy_ReadOnly@H@Glib@@QEAA@PEBVObjectBase@1@PEBD@Z
    ??_7CellAreaContext@Gtk@@6B@
    ??_8CellAreaContext@Gtk@@7BObject@Glib@@@
    ??_8CellAreaContext@Gtk@@7BObjectBase@Glib@@@
    ??_R0?AVObjectBase@Glib@@@8
    ??_R0?AVCellAreaContext@Gtk@@@8
    ??_R4CellAreaContext@Gtk@@6B@
    ??_R3CellAreaContext@Gtk@@8
    ??_R2CellAreaContext@Gtk@@8
    ??_R1A@?0A@EA@CellAreaContext@Gtk@@8
    ??_R1A@?0A@EA@Object@Glib@@8
    ??_R0?AVObject@Glib@@@8
    ??_R3Object@Glib@@8
    ??_R2Object@Glib@@8
    ??_R1A@A@7FA@ObjectBase@Glib@@8
    ??_R3ObjectBase@Glib@@8
    ??_R2ObjectBase@Glib@@8
    ??_R1A@?0A@EA@ObjectBase@Glib@@8
    ??_R1A@73FA@trackable@sigc@@8
    ??_R0?AUtrackable@sigc@@@8
    ??_R3trackable@sigc@@8
    ??_R2trackable@sigc@@8
    ??_R1A@?0A@EA@trackable@sigc@@8
    ??_R1A@A@3FA@trackable@sigc@@8
    ?celleditable_class_@CellEditable@Gtk@@0VCellEditable_Class@2@A
    ?__empty_global_delete@@YAXPEAX@Z
    ?__empty_global_delete@@YAXPEAX_K@Z
    ?name@type_info@@QEBAPEBDXZ
    ?get_type@Class@Glib@@QEBA_KXZ
    ??0CellEditable@Gtk@@IEAA@XZ
    ??0CellEditable@Gtk@@IEAA@AEBVInterface_Class@Glib@@@Z
    ??0CellEditable@Gtk@@QEAA@PEAU_GtkCellEditable@@@Z
    ??1CellEditable@Gtk@@UEAA@XZ
    ?add_interface@CellEditable@Gtk@@SAX_K@Z
    ?get_type@CellEditable@Gtk@@SA_KXZ
    ?get_base_type@CellEditable@Gtk@@SA_KXZ
    ?gobj@CellEditable@Gtk@@QEAAPEAU_GtkCellEditable@@XZ
    ?start_editing@CellEditable@Gtk@@QEAAXPEAT_GdkEvent@@@Z
    ?editing_done@CellEditable@Gtk@@QEAAXXZ
    ?remove_widget@CellEditable@Gtk@@QEAAXXZ
    ?signal_editing_done@CellEditable@Gtk@@QEAA?AV?$SignalProxy0@X@Glib@@XZ
    ?signal_remove_widget@CellEditable@Gtk@@QEAA?AV?$SignalProxy0@X@Glib@@XZ
    ?property_editing_canceled@CellEditable@Gtk@@QEAA?AV?$PropertyProxy@_N@Glib@@XZ
    ?property_editing_canceled@CellEditable@Gtk@@QEBA?AV?$PropertyProxy_ReadOnly@_N@Glib@@XZ
    ?start_editing_vfunc@CellEditable@Gtk@@MEAAXPEAT_GdkEvent@@@Z
    ?on_editing_done@CellEditable@Gtk@@MEAAXXZ
    ?on_remove_widget@CellEditable@Gtk@@MEAAXXZ
    ??_DCellEditable@Gtk@@QEAAXXZ
    ?wrap@Glib@@YA?AV?$RefPtr@VCellEditable@Gtk@@@1@PEAU_GtkCellEditable@@_N@Z
    ?init@CellEditable_Class@Gtk@@QEAAAEBVInterface_Class@Glib@@XZ
    ?iface_init_function@CellEditable_Class@Gtk@@SAXPEAX0@Z
    ?wrap_new@CellEditable_Class@Gtk@@SAPEAVObjectBase@Glib@@PEAU_GObject@@@Z
    ?editing_done_callback@CellEditable_Class@Gtk@@KAXPEAU_GtkCellEditable@@@Z
    ?remove_widget_callback@CellEditable_Class@Gtk@@KAXPEAU_GtkCellEditable@@@Z
    ?start_editing_vfunc_callback@CellEditable_Class@Gtk@@KAXPEAU_GtkCellEditable@@PEAT_GdkEvent@@@Z
    ??0?$RefPtr@VCellEditable@Gtk@@@Glib@@QEAA@PEAVCellEditable@Gtk@@@Z
    ??$wrap_auto_interface@VCellEditable@Gtk@@@Glib@@YAPEAVCellEditable@Gtk@@PEAU_GObject@@_N@Z
    ??0?$SignalProxy0@X@Glib@@QEAA@PEAVObjectBase@1@PEBUSignalProxyInfo@1@@Z
    ??0?$PropertyProxy@_N@Glib@@QEAA@PEAVObjectBase@1@PEBD@Z
    ??0?$PropertyProxy_ReadOnly@_N@Glib@@QEAA@PEBVObjectBase@1@PEBD@Z
    ??_7CellEditable@Gtk@@6B01@@
    ??_7CellEditable@Gtk@@6BInterface@Glib@@@
    ??_8CellEditable@Gtk@@7BInterface@Glib@@@
    ??_8CellEditable@Gtk@@7BObjectBase@Glib@@@
    ??_R0?AVObjectBase@Glib@@@8
    ??_R0?AVCellEditable@Gtk@@@8
    ??_R4CellEditable@Gtk@@6B01@@
    ??_R3CellEditable@Gtk@@8
    ??_R2CellEditable@Gtk@@8
    ??_R1A@?0A@EA@CellEditable@Gtk@@8
    ??_R17?0A@EA@Interface@Glib@@8
    ??_R0?AVInterface@Glib@@@8
    ??_R3Interface@Glib@@8
    ??_R2Interface@Glib@@8
    ??_R1A@?0A@EA@Interface@Glib@@8
    ??_R1A@A@7FA@ObjectBase@Glib@@8
    ??_R3ObjectBase@Glib@@8
    ??_R2ObjectBase@Glib@@8
    ??_R1A@?0A@EA@ObjectBase@Glib@@8
    ??_R1A@73FA@trackable@sigc@@8
    ??_R0?AUtrackable@sigc@@@8
    ??_R3trackable@sigc@@8
    ??_R2trackable@sigc@@8
    ??_R1A@?0A@EA@trackable@sigc@@8
    ??_R1A@A@3FA@trackable@sigc@@8
    ??_R1A@77FA@ObjectBase@Glib@@8
    ??_R4CellEditable@Gtk@@6BInterface@Glib@@@
    ?celllayout_class_@CellLayout@Gtk@@0VCellLayout_Class@2@A
    ?__empty_global_delete@@YAXPEAX@Z
    ?__empty_global_delete@@YAXPEAX_K@Z
    ??2@YAPEAX_KPEAX@Z
    ??0_Container_proxy@std@@QEAA@XZ
    ??0_Container_base12@std@@QEAA@XZ
    ??1_Container_base12@std@@QEAA@XZ
    ?_Orphan_all@_Container_base12@std@@QEAAXXZ
    ?_Allocate@std@@YAPEAX_K0_N@Z
    ?_Deallocate@std@@YAXPEAX_K1@Z
    ?name@type_info@@QEBAPEBDXZ
    ?get_type@Class@Glib@@QEBA_KXZ
    ?get_object@PropertyProxy_Base@Glib@@QEBAPEAVObjectBase@2@XZ
    ?get_name@PropertyProxy_Base@Glib@@QEBAPEBDXZ
    ?convert_const_gchar_ptr_to_ustring@Glib@@YA?AVustring@1@PEBD@Z
    ?gobj@CellRenderer@Gtk@@QEAAPEAU_GtkCellRenderer@@XZ
    ?index@TreeModelColumnBase@Gtk@@QEBAHXZ
    ??0CellLayout@Gtk@@IEAA@XZ
    ??0CellLayout@Gtk@@IEAA@AEBVInterface_Class@Glib@@@Z
    ??0CellLayout@Gtk@@QEAA@PEAU_GtkCellLayout@@@Z
    ??1CellLayout@Gtk@@UEAA@XZ
    ?add_interface@CellLayout@Gtk@@SAX_K@Z
    ?get_type@CellLayout@Gtk@@SA_KXZ
    ?get_base_type@CellLayout@Gtk@@SA_KXZ
    ?gobj@CellLayout@Gtk@@QEAAPEAU_GtkCellLayout@@XZ
    ?gobj@CellLayout@Gtk@@QEBAPEBU_GtkCellLayout@@XZ
    ?pack_start@CellLayout@Gtk@@QEAAXAEAVCellRenderer@2@_N@Z
    ?pack_end@CellLayout@Gtk@@QEAAXAEAVCellRenderer@2@_N@Z
    ?get_cells@CellLayout@Gtk@@QEAA?AV?$vector@PEAVCellRenderer@Gtk@@V?$allocator@PEAVCellRenderer@Gtk@@@std@@@std@@XZ
    ?get_cells@CellLayout@Gtk@@QEBA?AV?$vector@PEBVCellRenderer@Gtk@@V?$allocator@PEBVCellRenderer@Gtk@@@std@@@std@@XZ
    ?get_first_cell@CellLayout@Gtk@@QEAAPEAVCellRenderer@2@XZ
    ?get_first_cell@CellLayout@Gtk@@QEBAPEBVCellRenderer@2@XZ
    ?clear@CellLayout@Gtk@@QEAAXXZ
    ?add_attribute@CellLayout@Gtk@@QEAAXAEAVCellRenderer@2@AEBVustring@Glib@@H@Z
    ?add_attribute@CellLayout@Gtk@@QEAAXAEBVPropertyProxy_Base@Glib@@AEBVTreeModelColumnBase@2@@Z
    ?add_attribute@CellLayout@Gtk@@QEAAXAEAVCellRenderer@2@AEBVustring@Glib@@AEBVTreeModelColumnBase@2@@Z
    ?set_cell_data_func@CellLayout@Gtk@@QEAAXAEAVCellRenderer@2@AEBV?$slot@XAEBVTreeIter@Gtk@@Unil@sigc@@U34@U34@U34@U34@U34@@sigc@@@Z
    ?clear_attributes@CellLayout@Gtk@@QEAAXAEAVCellRenderer@2@@Z
    ?reorder@CellLayout@Gtk@@QEAAXAEAVCellRenderer@2@H@Z
    ?get_area@CellLayout@Gtk@@QEAA?AV?$RefPtr@VCellArea@Gtk@@@Glib@@XZ
    ?get_area@CellLayout@Gtk@@QEBA?AV?$RefPtr@$$CBVCellArea@Gtk@@@Glib@@XZ
    ?pack_start_vfunc@CellLayout@Gtk@@MEAAXPEAVCellRenderer@2@_N@Z
    ?pack_end_vfunc@CellLayout@Gtk@@MEAAXPEAVCellRenderer@2@_N@Z
    ?clear_vfunc@CellLayout@Gtk@@MEAAXXZ
    ?add_attribute_vfunc@CellLayout@Gtk@@MEAAXPEAVCellRenderer@2@AEBVustring@Glib@@H@Z
    ?clear_attributes_vfunc@CellLayout@Gtk@@MEAAXPEAVCellRenderer@2@@Z
    ?reorder_vfunc@CellLayout@Gtk@@MEAAXPEAVCellRenderer@2@H@Z
    ??_DCellLayout@Gtk@@QEAAXXZ
    ?wrap@Glib@@YA?AV?$RefPtr@VCellLayout@Gtk@@@1@PEAU_GtkCellLayout@@_N@Z
    ?init@CellLayout_Class@Gtk@@QEAAAEBVInterface_Class@Glib@@XZ
    ?iface_init_function@CellLayout_Class@Gtk@@SAXPEAX0@Z
    ?wrap_new@CellLayout_Class@Gtk@@SAPEAVObjectBase@Glib@@PEAU_GObject@@@Z
    ?pack_start_vfunc_callback@CellLayout_Class@Gtk@@KAXPEAU_GtkCellLayout@@PEAU_GtkCellRenderer@@H@Z
    ?pack_end_vfunc_callback@CellLayout_Class@Gtk@@KAXPEAU_GtkCellLayout@@PEAU_GtkCellRenderer@@H@Z
    ?clear_vfunc_callback@CellLayout_Class@Gtk@@KAXPEAU_GtkCellLayout@@@Z
    ?add_attribute_vfunc_callback@CellLayout_Class@Gtk@@KAXPEAU_GtkCellLayout@@PEAU_GtkCellRenderer@@PEBDH@Z
    ?clear_attributes_vfunc_callback@CellLayout_Class@Gtk@@KAXPEAU_GtkCellLayout@@PEAU_GtkCellRenderer@@@Z
    ?reorder_vfunc_callback@CellLayout_Class@Gtk@@KAXPEAU_GtkCellLayout@@PEAU_GtkCellRenderer@@H@Z
    ??R?$slot1@XAEBVTreeIter@Gtk@@@sigc@@QEBAXAEBVTreeIter@Gtk@@@Z
    ??0?$slot1@XAEBVTreeIter@Gtk@@@sigc@@QEAA@AEBV01@@Z
    ??1?$slot1@XAEBVTreeIter@Gtk@@@sigc@@QEAA@XZ
    ??0?$slot@XAEBVTreeIter@Gtk@@Unil@sigc@@U34@U34@U34@U34@U34@@sigc@@QEAA@AEBV01@@Z
    ??1?$slot@XAEBVTreeIter@Gtk@@Unil@sigc@@U34@U34@U34@U34@U34@@sigc@@QEAA@XZ
    ??0?$allocator@PEAVCellRenderer@Gtk@@@std@@QEAA@XZ
    ?deallocate@?$allocator@PEAVCellRenderer@Gtk@@@std@@QEAAXPEAPEAVCellRenderer@Gtk@@_K@Z
    ?allocate@?$allocator@PEAVCellRenderer@Gtk@@@std@@QEAAPEAPEAVCellRenderer@Gtk@@_K@Z
    ?max_size@?$allocator@PEAVCellRenderer@Gtk@@@std@@QEBA_KXZ
    ?max_size@?$allocator_traits@V?$allocator@PEAVCellRenderer@Gtk@@@std@@@std@@SA_KAEBV?$allocator@PEAVCellRenderer@Gtk@@@2@@Z
    ??0?$_Wrap_alloc@V?$allocator@PEAVCellRenderer@Gtk@@@std@@@std@@QEAA@XZ
    ?allocate@?$_Wrap_alloc@V?$allocator@PEAVCellRenderer@Gtk@@@std@@@std@@QEAAPEAPEAVCellRenderer@Gtk@@_K@Z
    ?deallocate@?$_Wrap_alloc@V?$allocator@PEAVCellRenderer@Gtk@@@std@@@std@@QEAAXPEAPEAVCellRenderer@Gtk@@_K@Z
    ?max_size@?$_Wrap_alloc@V?$allocator@PEAVCellRenderer@Gtk@@@std@@@std@@QEBA_KU_Nil@2@@Z
    ??0?$_Vector_alloc@U?$_Vec_base_types@PEAVCellRenderer@Gtk@@V?$allocator@PEAVCellRenderer@Gtk@@@std@@@std@@@std@@QEAA@XZ
    ??1?$_Vector_alloc@U?$_Vec_base_types@PEAVCellRenderer@Gtk@@V?$allocator@PEAVCellRenderer@Gtk@@@std@@@std@@@std@@QEAA@XZ
    ?_Alloc_proxy@?$_Vector_alloc@U?$_Vec_base_types@PEAVCellRenderer@Gtk@@V?$allocator@PEAVCellRenderer@Gtk@@@std@@@std@@@std@@QEAAXXZ
    ?_Free_proxy@?$_Vector_alloc@U?$_Vec_base_types@PEAVCellRenderer@Gtk@@V?$allocator@PEAVCellRenderer@Gtk@@@std@@@std@@@std@@QEAAXXZ
    ?_Myproxy@?$_Vector_alloc@U?$_Vec_base_types@PEAVCellRenderer@Gtk@@V?$allocator@PEAVCellRenderer@Gtk@@@std@@@std@@@std@@QEAAAEAPEAU_Container_proxy@2@XZ
    ?_Orphan_all@?$_Vector_alloc@U?$_Vec_base_types@PEAVCellRenderer@Gtk@@V?$allocator@PEAVCellRenderer@Gtk@@@std@@@std@@@std@@QEAAXXZ
    ?_Getal@?$_Vector_alloc@U?$_Vec_base_types@PEAVCellRenderer@Gtk@@V?$allocator@PEAVCellRenderer@Gtk@@@std@@@std@@@std@@QEAAAEAU?$_Wrap_alloc@V?$allocator@PEAVCellRenderer@Gtk@@@std@@@2@XZ
    ?_Getal@?$_Vector_alloc@U?$_Vec_base_types@PEAVCellRenderer@Gtk@@V?$allocator@PEAVCellRenderer@Gtk@@@std@@@std@@@std@@QEBAAEBU?$_Wrap_alloc@V?$allocator@PEAVCellRenderer@Gtk@@@std@@@2@XZ
    ?_Get_data@?$_Vector_alloc@U?$_Vec_base_types@PEAVCellRenderer@Gtk@@V?$allocator@PEAVCellRenderer@Gtk@@@std@@@std@@@std@@QEAAAEAV?$_Vector_val@U?$_Simple_types@PEAVCellRenderer@Gtk@@@std@@@2@XZ
    ?_Get_data@?$_Vector_alloc@U?$_Vec_base_types@PEAVCellRenderer@Gtk@@V?$allocator@PEAVCellRenderer@Gtk@@@std@@@std@@@std@@QEBAAEBV?$_Vector_val@U?$_Simple_types@PEAVCellRenderer@Gtk@@@std@@@2@XZ
    ?_Myfirst@?$_Vector_alloc@U?$_Vec_base_types@PEAVCellRenderer@Gtk@@V?$allocator@PEAVCellRenderer@Gtk@@@std@@@std@@@std@@QEAAAEAPEAPEAVCellRenderer@Gtk@@XZ
    ?_Myfirst@?$_Vector_alloc@U?$_Vec_base_types@PEAVCellRenderer@Gtk@@V?$allocator@PEAVCellRenderer@Gtk@@@std@@@std@@@std@@QEBAAEBQEAPEAVCellRenderer@Gtk@@XZ
    ?_Mylast@?$_Vector_alloc@U?$_Vec_base_types@PEAVCellRenderer@Gtk@@V?$allocator@PEAVCellRenderer@Gtk@@@std@@@std@@@std@@QEAAAEAPEAPEAVCellRenderer@Gtk@@XZ
    ?_Mylast@?$_Vector_alloc@U?$_Vec_base_types@PEAVCellRenderer@Gtk@@V?$allocator@PEAVCellRenderer@Gtk@@@std@@@std@@@std@@QEBAAEBQEAPEAVCellRenderer@Gtk@@XZ
    ?_Myend@?$_Vector_alloc@U?$_Vec_base_types@PEAVCellRenderer@Gtk@@V?$allocator@PEAVCellRenderer@Gtk@@@std@@@std@@@std@@QEAAAEAPEAPEAVCellRenderer@Gtk@@XZ
    ??0?$_Vector_val@U?$_Simple_types@PEAVCellRenderer@Gtk@@@std@@@std@@QEAA@XZ
    ??1?$_Vector_val@U?$_Simple_types@PEAVCellRenderer@Gtk@@@std@@@std@@QEAA@XZ
    ?_Get_first@?$_Compressed_pair@U?$_Wrap_alloc@V?$allocator@PEAVCellRenderer@Gtk@@@std@@@std@@V?$_Vector_val@U?$_Simple_types@PEAVCellRenderer@Gtk@@@std@@@2@$00@std@@QEAAAEAU?$_Wrap_alloc@V?$allocator@PEAVCellRenderer@Gtk@@@std@@@2@XZ
    ?_Get_first@?$_Compressed_pair@U?$_Wrap_alloc@V?$allocator@PEAVCellRenderer@Gtk@@@std@@@std@@V?$_Vector_val@U?$_Simple_types@PEAVCellRenderer@Gtk@@@std@@@2@$00@std@@QEBAAEBU?$_Wrap_alloc@V?$allocator@PEAVCellRenderer@Gtk@@@std@@@2@XZ
    ?_Get_second@?$_Compressed_pair@U?$_Wrap_alloc@V?$allocator@PEAVCellRenderer@Gtk@@@std@@@std@@V?$_Vector_val@U?$_Simple_types@PEAVCellRenderer@Gtk@@@std@@@2@$00@std@@QEAAAEAV?$_Vector_val@U?$_Simple_types@PEAVCellRenderer@Gtk@@@std@@@2@XZ
    ?_Get_second@?$_Compressed_pair@U?$_Wrap_alloc@V?$allocator@PEAVCellRenderer@Gtk@@@std@@@std@@V?$_Vector_val@U?$_Simple_types@PEAVCellRenderer@Gtk@@@std@@@2@$00@std@@QEBAAEBV?$_Vector_val@U?$_Simple_types@PEAVCellRenderer@Gtk@@@std@@@2@XZ
    ??1?$_Compressed_pair@U?$_Wrap_alloc@V?$allocator@PEAVCellRenderer@Gtk@@@std@@@std@@V?$_Vector_val@U?$_Simple_types@PEAVCellRenderer@Gtk@@@std@@@2@$00@std@@QEAA@XZ
    ??1?$vector@PEAVCellRenderer@Gtk@@V?$allocator@PEAVCellRenderer@Gtk@@@std@@@std@@QEAA@XZ
    ?size@?$vector@PEAVCellRenderer@Gtk@@V?$allocator@PEAVCellRenderer@Gtk@@@std@@@std@@QEBA_KXZ
    ?max_size@?$vector@PEAVCellRenderer@Gtk@@V?$allocator@PEAVCellRenderer@Gtk@@@std@@@std@@QEBA_KXZ
    ?empty@?$vector@PEAVCellRenderer@Gtk@@V?$allocator@PEAVCellRenderer@Gtk@@@std@@@std@@QEBA_NXZ
    ??A?$vector@PEAVCellRenderer@Gtk@@V?$allocator@PEAVCellRenderer@Gtk@@@std@@@std@@QEAAAEAPEAVCellRenderer@Gtk@@_K@Z
    ?_Buy@?$vector@PEAVCellRenderer@Gtk@@V?$allocator@PEAVCellRenderer@Gtk@@@std@@@std@@IEAA_N_K@Z
    ?_Destroy@?$vector@PEAVCellRenderer@Gtk@@V?$allocator@PEAVCellRenderer@Gtk@@@std@@@std@@IEAAXPEAPEAVCellRenderer@Gtk@@0@Z
    ?_Tidy@?$vector@PEAVCellRenderer@Gtk@@V?$allocator@PEAVCellRenderer@Gtk@@@std@@@std@@IEAAXXZ
    ?_Xlen@?$vector@PEAVCellRenderer@Gtk@@V?$allocator@PEAVCellRenderer@Gtk@@@std@@@std@@IEBAXXZ
    ??0?$RefPtr@VCellLayout@Gtk@@@Glib@@QEAA@PEAVCellLayout@Gtk@@@Z
    ??$wrap_auto_interface@VCellLayout@Gtk@@@Glib@@YAPEAVCellLayout@Gtk@@PEAU_GObject@@_N@Z
    ?to_cpp_type@?$TypeTraits@PEAVCellRenderer@Gtk@@@Container_Helpers@Glib@@SAPEAVCellRenderer@Gtk@@PEAU_GtkCellRenderer@@@Z
    ?release_c_type@?$TypeTraits@PEAVCellRenderer@Gtk@@@Container_Helpers@Glib@@SAXPEAU_GtkCellRenderer@@@Z
    ?list_to_vector@?$ListHandler@PEAVCellRenderer@Gtk@@U?$TypeTraits@PEAVCellRenderer@Gtk@@@Container_Helpers@Glib@@@Glib@@SA?AV?$vector@PEAVCellRenderer@Gtk@@V?$allocator@PEAVCellRenderer@Gtk@@@std@@@std@@PEAU_GList@@W4OwnershipType@2@@Z
    ??0?$allocator@PEBVCellRenderer@Gtk@@@std@@QEAA@XZ
    ?deallocate@?$allocator@PEBVCellRenderer@Gtk@@@std@@QEAAXPEAPEBVCellRenderer@Gtk@@_K@Z
    ?allocate@?$allocator@PEBVCellRenderer@Gtk@@@std@@QEAAPEAPEBVCellRenderer@Gtk@@_K@Z
    ?max_size@?$allocator@PEBVCellRenderer@Gtk@@@std@@QEBA_KXZ
    ?max_size@?$allocator_traits@V?$allocator@PEBVCellRenderer@Gtk@@@std@@@std@@SA_KAEBV?$allocator@PEBVCellRenderer@Gtk@@@2@@Z
    ??0?$_Wrap_alloc@V?$allocator@PEBVCellRenderer@Gtk@@@std@@@std@@QEAA@XZ
    ?allocate@?$_Wrap_alloc@V?$allocator@PEBVCellRenderer@Gtk@@@std@@@std@@QEAAPEAPEBVCellRenderer@Gtk@@_K@Z
    ?deallocate@?$_Wrap_alloc@V?$allocator@PEBVCellRenderer@Gtk@@@std@@@std@@QEAAXPEAPEBVCellRenderer@Gtk@@_K@Z
    ?max_size@?$_Wrap_alloc@V?$allocator@PEBVCellRenderer@Gtk@@@std@@@std@@QEBA_KU_Nil@2@@Z
    ??0?$_Vector_alloc@U?$_Vec_base_types@PEBVCellRenderer@Gtk@@V?$allocator@PEBVCellRenderer@Gtk@@@std@@@std@@@std@@QEAA@XZ
    ??1?$_Vector_alloc@U?$_Vec_base_types@PEBVCellRenderer@Gtk@@V?$allocator@PEBVCellRenderer@Gtk@@@std@@@std@@@std@@QEAA@XZ
    ?_Alloc_proxy@?$_Vector_alloc@U?$_Vec_base_types@PEBVCellRenderer@Gtk@@V?$allocator@PEBVCellRenderer@Gtk@@@std@@@std@@@std@@QEAAXXZ
    ?_Free_proxy@?$_Vector_alloc@U?$_Vec_base_types@PEBVCellRenderer@Gtk@@V?$allocator@PEBVCellRenderer@Gtk@@@std@@@std@@@std@@QEAAXXZ
    ?_Myproxy@?$_Vector_alloc@U?$_Vec_base_types@PEBVCellRenderer@Gtk@@V?$allocator@PEBVCellRenderer@Gtk@@@std@@@std@@@std@@QEAAAEAPEAU_Container_proxy@2@XZ
    ?_Orphan_all@?$_Vector_alloc@U?$_Vec_base_types@PEBVCellRenderer@Gtk@@V?$allocator@PEBVCellRenderer@Gtk@@@std@@@std@@@std@@QEAAXXZ
    ?_Getal@?$_Vector_alloc@U?$_Vec_base_types@PEBVCellRenderer@Gtk@@V?$allocator@PEBVCellRenderer@Gtk@@@std@@@std@@@std@@QEAAAEAU?$_Wrap_alloc@V?$allocator@PEBVCellRenderer@Gtk@@@std@@@2@XZ
    ?_Getal@?$_Vector_alloc@U?$_Vec_base_types@PEBVCellRenderer@Gtk@@V?$allocator@PEBVCellRenderer@Gtk@@@std@@@std@@@std@@QEBAAEBU?$_Wrap_alloc@V?$allocator@PEBVCellRenderer@Gtk@@@std@@@2@XZ
    ?_Get_data@?$_Vector_alloc@U?$_Vec_base_types@PEBVCellRenderer@Gtk@@V?$allocator@PEBVCellRenderer@Gtk@@@std@@@std@@@std@@QEAAAEAV?$_Vector_val@U?$_Simple_types@PEBVCellRenderer@Gtk@@@std@@@2@XZ
    ?_Myfirst@?$_Vector_alloc@U?$_Vec_base_types@PEBVCellRenderer@Gtk@@V?$allocator@PEBVCellRenderer@Gtk@@@std@@@std@@@std@@QEAAAEAPEAPEBVCellRenderer@Gtk@@XZ
    ?_Mylast@?$_Vector_alloc@U?$_Vec_base_types@PEBVCellRenderer@Gtk@@V?$allocator@PEBVCellRenderer@Gtk@@@std@@@std@@@std@@QEAAAEAPEAPEBVCellRenderer@Gtk@@XZ
    ?_Myend@?$_Vector_alloc@U?$_Vec_base_types@PEBVCellRenderer@Gtk@@V?$allocator@PEBVCellRenderer@Gtk@@@std@@@std@@@std@@QEAAAEAPEAPEBVCellRenderer@Gtk@@XZ
    ??0?$_Vector_val@U?$_Simple_types@PEBVCellRenderer@Gtk@@@std@@@std@@QEAA@XZ
    ??1?$_Vector_val@U?$_Simple_types@PEBVCellRenderer@Gtk@@@std@@@std@@QEAA@XZ
    ?_Get_first@?$_Compressed_pair@U?$_Wrap_alloc@V?$allocator@PEBVCellRenderer@Gtk@@@std@@@std@@V?$_Vector_val@U?$_Simple_types@PEBVCellRenderer@Gtk@@@std@@@2@$00@std@@QEAAAEAU?$_Wrap_alloc@V?$allocator@PEBVCellRenderer@Gtk@@@std@@@2@XZ
    ?_Get_first@?$_Compressed_pair@U?$_Wrap_alloc@V?$allocator@PEBVCellRenderer@Gtk@@@std@@@std@@V?$_Vector_val@U?$_Simple_types@PEBVCellRenderer@Gtk@@@std@@@2@$00@std@@QEBAAEBU?$_Wrap_alloc@V?$allocator@PEBVCellRenderer@Gtk@@@std@@@2@XZ
    ?_Get_second@?$_Compressed_pair@U?$_Wrap_alloc@V?$allocator@PEBVCellRenderer@Gtk@@@std@@@std@@V?$_Vector_val@U?$_Simple_types@PEBVCellRenderer@Gtk@@@std@@@2@$00@std@@QEAAAEAV?$_Vector_val@U?$_Simple_types@PEBVCellRenderer@Gtk@@@std@@@2@XZ
    ??1?$_Compressed_pair@U?$_Wrap_alloc@V?$allocator@PEBVCellRenderer@Gtk@@@std@@@std@@V?$_Vector_val@U?$_Simple_types@PEBVCellRenderer@Gtk@@@std@@@2@$00@std@@QEAA@XZ
    ?max_size@?$vector@PEBVCellRenderer@Gtk@@V?$allocator@PEBVCellRenderer@Gtk@@@std@@@std@@QEBA_KXZ
    ?_Buy@?$vector@PEBVCellRenderer@Gtk@@V?$allocator@PEBVCellRenderer@Gtk@@@std@@@std@@IEAA_N_K@Z
    ?_Destroy@?$vector@PEBVCellRenderer@Gtk@@V?$allocator@PEBVCellRenderer@Gtk@@@std@@@std@@IEAAXPEAPEBVCellRenderer@Gtk@@0@Z
    ?_Tidy@?$vector@PEBVCellRenderer@Gtk@@V?$allocator@PEBVCellRenderer@Gtk@@@std@@@std@@IEAAXXZ
    ?_Xlen@?$vector@PEBVCellRenderer@Gtk@@V?$allocator@PEBVCellRenderer@Gtk@@@std@@@std@@IEBAXXZ
    ?to_cpp_type@?$TypeTraits@PEBVCellRenderer@Gtk@@@Container_Helpers@Glib@@SAPEBVCellRenderer@Gtk@@PEBU_GtkCellRenderer@@@Z
    ?release_c_type@?$TypeTraits@PEBVCellRenderer@Gtk@@@Container_Helpers@Glib@@SAXPEBU_GtkCellRenderer@@@Z
    ?list_to_vector@?$ListHandler@PEBVCellRenderer@Gtk@@U?$TypeTraits@PEBVCellRenderer@Gtk@@@Container_Helpers@Glib@@@Glib@@SA?AV?$vector@PEBVCellRenderer@Gtk@@V?$allocator@PEBVCellRenderer@Gtk@@@std@@@std@@PEAU_GList@@W4OwnershipType@2@@Z
    ??1?$RefPtr@VCellArea@Gtk@@@Glib@@QEAA@XZ
    ??0?$RefPtr@VCellArea@Gtk@@@Glib@@QEAA@$$QEAV01@@Z
    ??C?$RefPtr@VCellArea@Gtk@@@Glib@@QEBAPEAVCellArea@Gtk@@XZ
    ??B?$RefPtr@VCellArea@Gtk@@@Glib@@QEBA_NXZ
    ?release@?$RefPtr@VCellArea@Gtk@@@Glib@@QEAAPEAVCellArea@Gtk@@XZ
    ??$?0VCellArea@Gtk@@@?$RefPtr@$$CBVCellArea@Gtk@@@Glib@@QEAA@$$QEAV?$RefPtr@VCellArea@Gtk@@@1@@Z
    ??$unwrap@VCellRenderer@Gtk@@@Glib@@YAPEAU_GtkCellRenderer@@PEAVCellRenderer@Gtk@@@Z
    ?deallocate@?$allocator@U_Container_proxy@std@@@std@@QEAAXPEAU_Container_proxy@2@_K@Z
    ?allocate@?$allocator@U_Container_proxy@std@@@std@@QEAAPEAU_Container_proxy@2@_K@Z
    ?allocate@?$_Wrap_alloc@V?$allocator@U_Container_proxy@std@@@std@@@std@@QEAAPEAU_Container_proxy@2@_K@Z
    ?deallocate@?$_Wrap_alloc@V?$allocator@U_Container_proxy@std@@@std@@@std@@QEAAXPEAU_Container_proxy@2@_K@Z
    ??$?0AEAU?$_Wrap_alloc@V?$allocator@PEBVCellRenderer@Gtk@@@std@@@std@@@?$_Wrap_alloc@V?$allocator@U_Container_proxy@std@@@std@@@std@@QEAA@AEAU?$_Wrap_alloc@V?$allocator@PEBVCellRenderer@Gtk@@@std@@@1@@Z
    ??$destroy@U_Container_proxy@std@@@?$_Wrap_alloc@V?$allocator@U_Container_proxy@std@@@std@@@std@@QEAAXPEAU_Container_proxy@1@@Z
    ??$?0AEAU?$_Wrap_alloc@V?$allocator@PEAVCellRenderer@Gtk@@@std@@@std@@@?$_Wrap_alloc@V?$allocator@U_Container_proxy@std@@@std@@@std@@QEAA@AEAU?$_Wrap_alloc@V?$allocator@PEAVCellRenderer@Gtk@@@std@@@1@@Z
    ??$_Destroy_range@U?$_Wrap_alloc@V?$allocator@PEBVCellRenderer@Gtk@@@std@@@std@@@std@@YAXPEAPEBVCellRenderer@Gtk@@0AEAU?$_Wrap_alloc@V?$allocator@PEBVCellRenderer@Gtk@@@std@@@0@@Z
    ??$_Destroy_range@U?$_Wrap_alloc@V?$allocator@PEAVCellRenderer@Gtk@@@std@@@std@@@std@@YAXPEAPEAVCellRenderer@Gtk@@0AEAU?$_Wrap_alloc@V?$allocator@PEAVCellRenderer@Gtk@@@std@@@0@@Z
    ??$construct@U_Container_proxy@std@@U12@@?$_Wrap_alloc@V?$allocator@U_Container_proxy@std@@@std@@@std@@QEAAXPEAU_Container_proxy@1@$$QEAU21@@Z
    ??0?$GListKeeper@U?$TypeTraits@PEAVCellRenderer@Gtk@@@Container_Helpers@Glib@@@Container_Helpers@Glib@@QEAA@PEBU_GList@@W4OwnershipType@2@@Z
    ??1?$GListKeeper@U?$TypeTraits@PEAVCellRenderer@Gtk@@@Container_Helpers@Glib@@@Container_Helpers@Glib@@QEAA@XZ
    ??0?$ListIterator@U?$TypeTraits@PEAVCellRenderer@Gtk@@@Container_Helpers@Glib@@@Container_Helpers@Glib@@QEAA@PEBU_GList@@@Z
    ??D?$ListIterator@U?$TypeTraits@PEAVCellRenderer@Gtk@@@Container_Helpers@Glib@@@Container_Helpers@Glib@@QEBAPEAVCellRenderer@Gtk@@XZ
    ??E?$ListIterator@U?$TypeTraits@PEAVCellRenderer@Gtk@@@Container_Helpers@Glib@@@Container_Helpers@Glib@@QEAAAEAV012@XZ
    ??9?$ListIterator@U?$TypeTraits@PEAVCellRenderer@Gtk@@@Container_Helpers@Glib@@@Container_Helpers@Glib@@QEBA_NAEBV012@@Z
    ??$?0V?$ListIterator@U?$TypeTraits@PEAVCellRenderer@Gtk@@@Container_Helpers@Glib@@@Container_Helpers@Glib@@X@?$vector@PEAVCellRenderer@Gtk@@V?$allocator@PEAVCellRenderer@Gtk@@@std@@@std@@QEAA@V?$ListIterator@U?$TypeTraits@PEAVCellRenderer@Gtk@@@Container_Helpers@Glib@@@Container_Helpers@Glib@@0@Z
    ??0?$GListKeeper@U?$TypeTraits@PEBVCellRenderer@Gtk@@@Container_Helpers@Glib@@@Container_Helpers@Glib@@QEAA@PEBU_GList@@W4OwnershipType@2@@Z
    ??1?$GListKeeper@U?$TypeTraits@PEBVCellRenderer@Gtk@@@Container_Helpers@Glib@@@Container_Helpers@Glib@@QEAA@XZ
    ??0?$ListIterator@U?$TypeTraits@PEBVCellRenderer@Gtk@@@Container_Helpers@Glib@@@Container_Helpers@Glib@@QEAA@PEBU_GList@@@Z
    ??D?$ListIterator@U?$TypeTraits@PEBVCellRenderer@Gtk@@@Container_Helpers@Glib@@@Container_Helpers@Glib@@QEBAPEBVCellRenderer@Gtk@@XZ
    ??E?$ListIterator@U?$TypeTraits@PEBVCellRenderer@Gtk@@@Container_Helpers@Glib@@@Container_Helpers@Glib@@QEAAAEAV012@XZ
    ??9?$ListIterator@U?$TypeTraits@PEBVCellRenderer@Gtk@@@Container_Helpers@Glib@@@Container_Helpers@Glib@@QEBA_NAEBV012@@Z
    ??$?0V?$ListIterator@U?$TypeTraits@PEBVCellRenderer@Gtk@@@Container_Helpers@Glib@@@Container_Helpers@Glib@@X@?$vector@PEBVCellRenderer@Gtk@@V?$allocator@PEBVCellRenderer@Gtk@@@std@@@std@@QEAA@V?$ListIterator@U?$TypeTraits@PEBVCellRenderer@Gtk@@@Container_Helpers@Glib@@@Container_Helpers@Glib@@0@Z
    ??$forward@AEAU?$_Wrap_alloc@V?$allocator@PEBVCellRenderer@Gtk@@@std@@@std@@@std@@YAAEAU?$_Wrap_alloc@V?$allocator@PEBVCellRenderer@Gtk@@@std@@@0@AEAU10@@Z
    ??$?0PEBVCellRenderer@Gtk@@@?$allocator@U_Container_proxy@std@@@std@@QEAA@AEBV?$allocator@PEBVCellRenderer@Gtk@@@1@@Z
    ??$destroy@U_Container_proxy@std@@@?$allocator_traits@V?$allocator@U_Container_proxy@std@@@std@@@std@@SAXAEAV?$allocator@U_Container_proxy@std@@@1@PEAU_Container_proxy@1@@Z
    ??$forward@AEAU?$_Wrap_alloc@V?$allocator@PEAVCellRenderer@Gtk@@@std@@@std@@@std@@YAAEAU?$_Wrap_alloc@V?$allocator@PEAVCellRenderer@Gtk@@@std@@@0@AEAU10@@Z
    ??$?0PEAVCellRenderer@Gtk@@@?$allocator@U_Container_proxy@std@@@std@@QEAA@AEBV?$allocator@PEAVCellRenderer@Gtk@@@1@@Z
    ??$addressof@PEBVCellRenderer@Gtk@@@std@@YAPEAPEBVCellRenderer@Gtk@@AEAPEBV12@@Z
    ??$destroy@PEBVCellRenderer@Gtk@@@?$_Wrap_alloc@V?$allocator@PEBVCellRenderer@Gtk@@@std@@@std@@QEAAXPEAPEBVCellRenderer@Gtk@@@Z
    ??$addressof@PEAVCellRenderer@Gtk@@@std@@YAPEAPEAVCellRenderer@Gtk@@AEAPEAV12@@Z
    ??$destroy@PEAVCellRenderer@Gtk@@@?$_Wrap_alloc@V?$allocator@PEAVCellRenderer@Gtk@@@std@@@std@@QEAAXPEAPEAVCellRenderer@Gtk@@@Z
    ??$forward@U_Container_proxy@std@@@std@@YA$$QEAU_Container_proxy@0@AEAU10@@Z
    ??$construct@U_Container_proxy@std@@U12@@?$allocator_traits@V?$allocator@U_Container_proxy@std@@@std@@@std@@SAXAEAV?$allocator@U_Container_proxy@std@@@1@PEAU_Container_proxy@1@$$QEAU31@@Z
    ??$_Construct@V?$ListIterator@U?$TypeTraits@PEAVCellRenderer@Gtk@@@Container_Helpers@Glib@@@Container_Helpers@Glib@@@?$vector@PEAVCellRenderer@Gtk@@V?$allocator@PEAVCellRenderer@Gtk@@@std@@@std@@QEAAXV?$ListIterator@U?$TypeTraits@PEAVCellRenderer@Gtk@@@Container_Helpers@Glib@@@Container_Helpers@Glib@@0@Z
    ??$_Construct@V?$ListIterator@U?$TypeTraits@PEBVCellRenderer@Gtk@@@Container_Helpers@Glib@@@Container_Helpers@Glib@@@?$vector@PEBVCellRenderer@Gtk@@V?$allocator@PEBVCellRenderer@Gtk@@@std@@@std@@QEAAXV?$ListIterator@U?$TypeTraits@PEBVCellRenderer@Gtk@@@Container_Helpers@Glib@@@Container_Helpers@Glib@@0@Z
    ??$destroy@U_Container_proxy@std@@@?$allocator@U_Container_proxy@std@@@std@@QEAAXPEAU_Container_proxy@1@@Z
    ??$_Addressof@PEBVCellRenderer@Gtk@@@std@@YAPEAPEBVCellRenderer@Gtk@@AEAPEBV12@U?$integral_constant@_N$0A@@0@@Z
    ??$destroy@PEBVCellRenderer@Gtk@@@?$allocator_traits@V?$allocator@PEBVCellRenderer@Gtk@@@std@@@std@@SAXAEAV?$allocator@PEBVCellRenderer@Gtk@@@1@PEAPEBVCellRenderer@Gtk@@@Z
    ??$_Addressof@PEAVCellRenderer@Gtk@@@std@@YAPEAPEAVCellRenderer@Gtk@@AEAPEAV12@U?$integral_constant@_N$0A@@0@@Z
    ??$destroy@PEAVCellRenderer@Gtk@@@?$allocator_traits@V?$allocator@PEAVCellRenderer@Gtk@@@std@@@std@@SAXAEAV?$allocator@PEAVCellRenderer@Gtk@@@1@PEAPEAVCellRenderer@Gtk@@@Z
    ??$construct@U_Container_proxy@std@@U12@@?$allocator@U_Container_proxy@std@@@std@@QEAAXPEAU_Container_proxy@1@$$QEAU21@@Z
    ??$?0$$V@?$_Compressed_pair@U?$_Wrap_alloc@V?$allocator@PEBVCellRenderer@Gtk@@@std@@@std@@V?$_Vector_val@U?$_Simple_types@PEBVCellRenderer@Gtk@@@std@@@2@$00@std@@QEAA@U_Zero_then_variadic_args_t@1@@Z
    ??$?0$$V@?$_Compressed_pair@U?$_Wrap_alloc@V?$allocator@PEAVCellRenderer@Gtk@@@std@@@std@@V?$_Vector_val@U?$_Simple_types@PEAVCellRenderer@Gtk@@@std@@@2@$00@std@@QEAA@U_Zero_then_variadic_args_t@1@@Z
    ??$_Iter_cat@V?$ListIterator@U?$TypeTraits@PEAVCellRenderer@Gtk@@@Container_Helpers@Glib@@@Container_Helpers@Glib@@@std@@YA?AUforward_iterator_tag@0@AEBV?$ListIterator@U?$TypeTraits@PEAVCellRenderer@Gtk@@@Container_Helpers@Glib@@@Container_Helpers@Glib@@@Z
    ??$_Construct@V?$ListIterator@U?$TypeTraits@PEAVCellRenderer@Gtk@@@Container_Helpers@Glib@@@Container_Helpers@Glib@@@?$vector@PEAVCellRenderer@Gtk@@V?$allocator@PEAVCellRenderer@Gtk@@@std@@@std@@QEAAXV?$ListIterator@U?$TypeTraits@PEAVCellRenderer@Gtk@@@Container_Helpers@Glib@@@Container_Helpers@Glib@@0Uforward_iterator_tag@1@@Z
    ??$_Iter_cat@V?$ListIterator@U?$TypeTraits@PEBVCellRenderer@Gtk@@@Container_Helpers@Glib@@@Container_Helpers@Glib@@@std@@YA?AUforward_iterator_tag@0@AEBV?$ListIterator@U?$TypeTraits@PEBVCellRenderer@Gtk@@@Container_Helpers@Glib@@@Container_Helpers@Glib@@@Z
    ??$_Construct@V?$ListIterator@U?$TypeTraits@PEBVCellRenderer@Gtk@@@Container_Helpers@Glib@@@Container_Helpers@Glib@@@?$vector@PEBVCellRenderer@Gtk@@V?$allocator@PEBVCellRenderer@Gtk@@@std@@@std@@QEAAXV?$ListIterator@U?$TypeTraits@PEBVCellRenderer@Gtk@@@Container_Helpers@Glib@@@Container_Helpers@Glib@@0Uforward_iterator_tag@1@@Z
    ??$destroy@PEBVCellRenderer@Gtk@@@?$allocator@PEBVCellRenderer@Gtk@@@std@@QEAAXPEAPEBVCellRenderer@Gtk@@@Z
    ??$destroy@PEAVCellRenderer@Gtk@@@?$allocator@PEAVCellRenderer@Gtk@@@std@@QEAAXPEAPEAVCellRenderer@Gtk@@@Z
    ??$distance@V?$ListIterator@U?$TypeTraits@PEAVCellRenderer@Gtk@@@Container_Helpers@Glib@@@Container_Helpers@Glib@@@std@@YA_JV?$ListIterator@U?$TypeTraits@PEAVCellRenderer@Gtk@@@Container_Helpers@Glib@@@Container_Helpers@Glib@@0@Z
    ??$_Ucopy@V?$ListIterator@U?$TypeTraits@PEAVCellRenderer@Gtk@@@Container_Helpers@Glib@@@Container_Helpers@Glib@@@?$vector@PEAVCellRenderer@Gtk@@V?$allocator@PEAVCellRenderer@Gtk@@@std@@@std@@IEAAPEAPEAVCellRenderer@Gtk@@V?$ListIterator@U?$TypeTraits@PEAVCellRenderer@Gtk@@@Container_Helpers@Glib@@@Container_Helpers@Glib@@0PEAPEAV23@@Z
    ??$distance@V?$ListIterator@U?$TypeTraits@PEBVCellRenderer@Gtk@@@Container_Helpers@Glib@@@Container_Helpers@Glib@@@std@@YA_JV?$ListIterator@U?$TypeTraits@PEBVCellRenderer@Gtk@@@Container_Helpers@Glib@@@Container_Helpers@Glib@@0@Z
    ??$_Ucopy@V?$ListIterator@U?$TypeTraits@PEBVCellRenderer@Gtk@@@Container_Helpers@Glib@@@Container_Helpers@Glib@@@?$vector@PEBVCellRenderer@Gtk@@V?$allocator@PEBVCellRenderer@Gtk@@@std@@@std@@IEAAPEAPEBVCellRenderer@Gtk@@V?$ListIterator@U?$TypeTraits@PEBVCellRenderer@Gtk@@@Container_Helpers@Glib@@@Container_Helpers@Glib@@0PEAPEBV23@@Z
    ??$_Distance2@V?$ListIterator@U?$TypeTraits@PEAVCellRenderer@Gtk@@@Container_Helpers@Glib@@@Container_Helpers@Glib@@_J@std@@YAXV?$ListIterator@U?$TypeTraits@PEAVCellRenderer@Gtk@@@Container_Helpers@Glib@@@Container_Helpers@Glib@@0AEA_JUforward_iterator_tag@0@@Z
    ??$_Uninitialized_copy@V?$ListIterator@U?$TypeTraits@PEAVCellRenderer@Gtk@@@Container_Helpers@Glib@@@Container_Helpers@Glib@@PEAPEAVCellRenderer@Gtk@@U?$_Wrap_alloc@V?$allocator@PEAVCellRenderer@Gtk@@@std@@@std@@@std@@YAPEAPEAVCellRenderer@Gtk@@V?$ListIterator@U?$TypeTraits@PEAVCellRenderer@Gtk@@@Container_Helpers@Glib@@@Container_Helpers@Glib@@0PEAPEAV12@AEAU?$_Wrap_alloc@V?$allocator@PEAVCellRenderer@Gtk@@@std@@@0@@Z
    ??$_Distance2@V?$ListIterator@U?$TypeTraits@PEBVCellRenderer@Gtk@@@Container_Helpers@Glib@@@Container_Helpers@Glib@@_J@std@@YAXV?$ListIterator@U?$TypeTraits@PEBVCellRenderer@Gtk@@@Container_Helpers@Glib@@@Container_Helpers@Glib@@0AEA_JUforward_iterator_tag@0@@Z
    ??$_Uninitialized_copy@V?$ListIterator@U?$TypeTraits@PEBVCellRenderer@Gtk@@@Container_Helpers@Glib@@@Container_Helpers@Glib@@PEAPEBVCellRenderer@Gtk@@U?$_Wrap_alloc@V?$allocator@PEBVCellRenderer@Gtk@@@std@@@std@@@std@@YAPEAPEBVCellRenderer@Gtk@@V?$ListIterator@U?$TypeTraits@PEBVCellRenderer@Gtk@@@Container_Helpers@Glib@@@Container_Helpers@Glib@@0PEAPEBV12@AEAU?$_Wrap_alloc@V?$allocator@PEBVCellRenderer@Gtk@@@std@@@0@@Z
    ??$_Unchecked@V?$ListIterator@U?$TypeTraits@PEAVCellRenderer@Gtk@@@Container_Helpers@Glib@@@Container_Helpers@Glib@@@std@@YA?AV?$ListIterator@U?$TypeTraits@PEAVCellRenderer@Gtk@@@Container_Helpers@Glib@@@Container_Helpers@Glib@@V123@@Z
    ??$_Unchecked@PEAPEAVCellRenderer@Gtk@@@std@@YAPEAPEAVCellRenderer@Gtk@@PEAPEAV12@@Z
    ??$_Uninitialized_copy_al_unchecked@V?$ListIterator@U?$TypeTraits@PEAVCellRenderer@Gtk@@@Container_Helpers@Glib@@@Container_Helpers@Glib@@PEAPEAVCellRenderer@Gtk@@U?$_Wrap_alloc@V?$allocator@PEAVCellRenderer@Gtk@@@std@@@std@@@std@@YAPEAPEAVCellRenderer@Gtk@@V?$ListIterator@U?$TypeTraits@PEAVCellRenderer@Gtk@@@Container_Helpers@Glib@@@Container_Helpers@Glib@@0PEAPEAV12@AEAU?$_Wrap_alloc@V?$allocator@PEAVCellRenderer@Gtk@@@std@@@0@@Z
    ??$_Rechecked@PEAPEAVCellRenderer@Gtk@@PEAPEAV12@@std@@YAAEAPEAPEAVCellRenderer@Gtk@@AEAPEAPEAV12@PEAPEAV12@@Z
    ??$_Unchecked@V?$ListIterator@U?$TypeTraits@PEBVCellRenderer@Gtk@@@Container_Helpers@Glib@@@Container_Helpers@Glib@@@std@@YA?AV?$ListIterator@U?$TypeTraits@PEBVCellRenderer@Gtk@@@Container_Helpers@Glib@@@Container_Helpers@Glib@@V123@@Z
    ??$_Unchecked@PEAPEBVCellRenderer@Gtk@@@std@@YAPEAPEBVCellRenderer@Gtk@@PEAPEBV12@@Z
    ??$_Uninitialized_copy_al_unchecked@V?$ListIterator@U?$TypeTraits@PEBVCellRenderer@Gtk@@@Container_Helpers@Glib@@@Container_Helpers@Glib@@PEAPEBVCellRenderer@Gtk@@U?$_Wrap_alloc@V?$allocator@PEBVCellRenderer@Gtk@@@std@@@std@@@std@@YAPEAPEBVCellRenderer@Gtk@@V?$ListIterator@U?$TypeTraits@PEBVCellRenderer@Gtk@@@Container_Helpers@Glib@@@Container_Helpers@Glib@@0PEAPEBV12@AEAU?$_Wrap_alloc@V?$allocator@PEBVCellRenderer@Gtk@@@std@@@0@@Z
    ??$_Rechecked@PEAPEBVCellRenderer@Gtk@@PEAPEBV12@@std@@YAAEAPEAPEBVCellRenderer@Gtk@@AEAPEAPEBV12@PEAPEBV12@@Z
    ??$_Ptr_copy_cat@V?$ListIterator@U?$TypeTraits@PEAVCellRenderer@Gtk@@@Container_Helpers@Glib@@@Container_Helpers@Glib@@PEAPEAVCellRenderer@Gtk@@@std@@YA?AU_General_ptr_iterator_tag@0@AEBV?$ListIterator@U?$TypeTraits@PEAVCellRenderer@Gtk@@@Container_Helpers@Glib@@@Container_Helpers@Glib@@AEBQEAPEAVCellRenderer@Gtk@@@Z
    ??$_Uninitialized_copy_al_unchecked1@V?$ListIterator@U?$TypeTraits@PEAVCellRenderer@Gtk@@@Container_Helpers@Glib@@@Container_Helpers@Glib@@PEAPEAVCellRenderer@Gtk@@V?$allocator@PEAVCellRenderer@Gtk@@@std@@@std@@YAPEAPEAVCellRenderer@Gtk@@V?$ListIterator@U?$TypeTraits@PEAVCellRenderer@Gtk@@@Container_Helpers@Glib@@@Container_Helpers@Glib@@0PEAPEAV12@AEAU?$_Wrap_alloc@V?$allocator@PEAVCellRenderer@Gtk@@@std@@@0@U_General_ptr_iterator_tag@0@@Z
    ??$_Ptr_copy_cat@V?$ListIterator@U?$TypeTraits@PEBVCellRenderer@Gtk@@@Container_Helpers@Glib@@@Container_Helpers@Glib@@PEAPEBVCellRenderer@Gtk@@@std@@YA?AU_General_ptr_iterator_tag@0@AEBV?$ListIterator@U?$TypeTraits@PEBVCellRenderer@Gtk@@@Container_Helpers@Glib@@@Container_Helpers@Glib@@AEBQEAPEBVCellRenderer@Gtk@@@Z
    ??$_Uninitialized_copy_al_unchecked1@V?$ListIterator@U?$TypeTraits@PEBVCellRenderer@Gtk@@@Container_Helpers@Glib@@@Container_Helpers@Glib@@PEAPEBVCellRenderer@Gtk@@V?$allocator@PEBVCellRenderer@Gtk@@@std@@@std@@YAPEAPEBVCellRenderer@Gtk@@V?$ListIterator@U?$TypeTraits@PEBVCellRenderer@Gtk@@@Container_Helpers@Glib@@@Container_Helpers@Glib@@0PEAPEBV12@AEAU?$_Wrap_alloc@V?$allocator@PEBVCellRenderer@Gtk@@@std@@@0@U_General_ptr_iterator_tag@0@@Z
    ??$construct@PEAVCellRenderer@Gtk@@PEAV12@@?$_Wrap_alloc@V?$allocator@PEAVCellRenderer@Gtk@@@std@@@std@@QEAAXPEAPEAVCellRenderer@Gtk@@$$QEAPEAV23@@Z
    ??$construct@PEBVCellRenderer@Gtk@@PEBV12@@?$_Wrap_alloc@V?$allocator@PEBVCellRenderer@Gtk@@@std@@@std@@QEAAXPEAPEBVCellRenderer@Gtk@@$$QEAPEBV23@@Z
    ??$forward@PEAVCellRenderer@Gtk@@@std@@YA$$QEAPEAVCellRenderer@Gtk@@AEAPEAV12@@Z
    ??$construct@PEAVCellRenderer@Gtk@@PEAV12@@?$allocator_traits@V?$allocator@PEAVCellRenderer@Gtk@@@std@@@std@@SAXAEAV?$allocator@PEAVCellRenderer@Gtk@@@1@PEAPEAVCellRenderer@Gtk@@$$QEAPEAV34@@Z
    ??$forward@PEBVCellRenderer@Gtk@@@std@@YA$$QEAPEBVCellRenderer@Gtk@@AEAPEBV12@@Z
    ??$construct@PEBVCellRenderer@Gtk@@PEBV12@@?$allocator_traits@V?$allocator@PEBVCellRenderer@Gtk@@@std@@@std@@SAXAEAV?$allocator@PEBVCellRenderer@Gtk@@@1@PEAPEBVCellRenderer@Gtk@@$$QEAPEBV34@@Z
    ??$construct@PEAVCellRenderer@Gtk@@PEAV12@@?$allocator@PEAVCellRenderer@Gtk@@@std@@QEAAXPEAPEAVCellRenderer@Gtk@@$$QEAPEAV23@@Z
    ??$construct@PEBVCellRenderer@Gtk@@PEBV12@@?$allocator@PEBVCellRenderer@Gtk@@@std@@QEAAXPEAPEBVCellRenderer@Gtk@@$$QEAPEBV23@@Z
    ??_C@_0BE@LMNLACIC@_Ptr_container?5?$CB?$DN?50?$AA@
    ??_C@_1DG@HGDKEBPG@?$AA?$CC?$AA_?$AAP?$AAt?$AAr?$AA_?$AAc?$AAo?$AAn?$AAt?$AAa?$AAi?$AAn?$AAe?$AAr?$AA?5?$AA?$CB?$AA?$DN?$AA?5?$AA0?$AA?$CC?$AA?5?$AA?$CG?$AA?$CG?$AA?5?$AA0?$AA?$AA@
    ??_C@_17CNPHIMPH@?$AA?$CF?$AAl?$AAs?$AA?$AA@
    ??_C@_1GG@GGEDIOFC@?$AAD?$AA?3?$AA?2?$AAG?$AAi?$AAt?$AAH?$AAu?$AAb?$AA?2?$AAI?$AAn?$AAs?$AAt?$AAa?$AAl?$AAl?$AA?2?$AAV?$AAi?$AAs?$AAu?$AAa?$AAl?$AAS?$AAt?$AAu?$AAd?$AAi?$AAo?$AA?2?$AAV@
    ??_C@_1BO@NKFMJPA@?$AAs?$AAt?$AAd?$AA?3?$AA?3?$AA_?$AAA?$AAl?$AAl?$AAo?$AAc?$AAa?$AAt?$AAe?$AA?$AA@
    ??_C@_1CG@JNLFBNGN@?$AA?$CC?$AAi?$AAn?$AAv?$AAa?$AAl?$AAi?$AAd?$AA?5?$AAa?$AAr?$AAg?$AAu?$AAm?$AAe?$AAn?$AAt?$AA?$CC?$AA?$AA@
    ??_C@_09GLJCAGLP@_Ptr?5?$CB?$DN?50?$AA@
    ??_C@_1CC@GKJLLHIM@?$AA?$CC?$AA_?$AAP?$AAt?$AAr?$AA?5?$AA?$CB?$AA?$DN?$AA?5?$AA0?$AA?$CC?$AA?5?$AA?$CG?$AA?$CG?$AA?5?$AA0?$AA?$AA@
    ??_C@_0BN@HMCJOMKN@_Count?5?$DM?$DN?5?$CIsize_t?$CJ?$CI?91?$CJ?5?1?5_Sz?$AA@
    ??_C@_1EI@MLOBABC@?$AA?$CC?$AA_?$AAC?$AAo?$AAu?$AAn?$AAt?$AA?5?$AA?$DM?$AA?$DN?$AA?5?$AA?$CI?$AAs?$AAi?$AAz?$AAe?$AA_?$AAt?$AA?$CJ?$AA?$CI?$AA?9?$AA1?$AA?$CJ?$AA?5?$AA?1?$AA?5?$AA_?$AAS?$AAz?$AA?$CC?$AA?5?$AA?$CG@
    ??_C@_1CC@LOFJFFDB@?$AAs?$AAt?$AAd?$AA?3?$AA?3?$AA_?$AAD?$AAe?$AAa?$AAl?$AAl?$AAo?$AAc?$AAa?$AAt?$AAe?$AA?$AA@
    ??_C@_0DD@GBGGGKGG@?$CI_Ptr_user?5?$CG?5?$CI_BIG_ALLOCATION_AL@
    ??_C@_1HE@CDMBFOKC@?$AA?$CC?$AA?$CI?$AA_?$AAP?$AAt?$AAr?$AA_?$AAu?$AAs?$AAe?$AAr?$AA?5?$AA?$CG?$AA?5?$AA?$CI?$AA_?$AAB?$AAI?$AAG?$AA_?$AAA?$AAL?$AAL?$AAO?$AAC?$AAA?$AAT?$AAI?$AAO?$AAN?$AA_?$AAA@
    ??_C@_0EI@NOJHEJCJ@reinterpret_cast?$DMuintptr_t?5?$CK?$DO?$CI_P@
    ??_C@_1JO@EKLKIEHP@?$AA?$CC?$AAr?$AAe?$AAi?$AAn?$AAt?$AAe?$AAr?$AAp?$AAr?$AAe?$AAt?$AA_?$AAc?$AAa?$AAs?$AAt?$AA?$DM?$AAu?$AAi?$AAn?$AAt?$AAp?$AAt?$AAr?$AA_?$AAt?$AA?5?$AA?$CK?$AA?$DO?$AA?$CI?$AA_@
    ??_C@_0BL@OCKMEJON@_Ptr_container?5?$DM?5_Ptr_user?$AA@
    ??_C@_1EE@PDHAHDDC@?$AA?$CC?$AA_?$AAP?$AAt?$AAr?$AA_?$AAc?$AAo?$AAn?$AAt?$AAa?$AAi?$AAn?$AAe?$AAr?$AA?5?$AA?$DM?$AA?5?$AA_?$AAP?$AAt?$AAr?$AA_?$AAu?$AAs?$AAe?$AAr?$AA?$CC?$AA?5?$AA?$CG?$AA?$CG?$AA?5@
    ??_C@_0DB@GLFJLNCE@2?5?$CK?5sizeof?$CIvoid?5?$CK?$CJ?5?$DM?$DN?5_Ptr_user?5@
    ??_C@_1HA@NAPGMHAO@?$AA?$CC?$AA2?$AA?5?$AA?$CK?$AA?5?$AAs?$AAi?$AAz?$AAe?$AAo?$AAf?$AA?$CI?$AAv?$AAo?$AAi?$AAd?$AA?5?$AA?$CK?$AA?$CJ?$AA?5?$AA?$DM?$AA?$DN?$AA?5?$AA_?$AAP?$AAt?$AAr?$AA_?$AAu?$AAs?$AAe?$AAr@
    ??_C@_0CN@BLHJCAL@_Ptr_user?5?9?5_Ptr_container?5?$DM?$DN?5_N@
    ??_C@_1GI@DHJGPFNI@?$AA?$CC?$AA_?$AAP?$AAt?$AAr?$AA_?$AAu?$AAs?$AAe?$AAr?$AA?5?$AA?9?$AA?5?$AA_?$AAP?$AAt?$AAr?$AA_?$AAc?$AAo?$AAn?$AAt?$AAa?$AAi?$AAn?$AAe?$AAr?$AA?5?$AA?$DM?$AA?$DN?$AA?5?$AA_@
    ??_7CellLayout@Gtk@@6B01@@
    ??_7CellLayout@Gtk@@6BInterface@Glib@@@
    ??_8CellLayout@Gtk@@7BInterface@Glib@@@
    ??_8CellLayout@Gtk@@7BObjectBase@Glib@@@
    ??_R0?AVObjectBase@Glib@@@8
    ??_R0?AVCellLayout@Gtk@@@8
    ??_C@_1GC@GDINDADF@?$AAD?$AA?3?$AA?2?$AAG?$AAi?$AAt?$AAH?$AAu?$AAb?$AA?2?$AAI?$AAn?$AAs?$AAt?$AAa?$AAl?$AAl?$AA?2?$AAV?$AAi?$AAs?$AAu?$AAa?$AAl?$AAS?$AAt?$AAu?$AAd?$AAi?$AAo?$AA?2?$AAV@
    ??_C@_1DM@LHGCHCBA@?$AAv?$AAe?$AAc?$AAt?$AAo?$AAr?$AA?5?$AAs?$AAu?$AAb?$AAs?$AAc?$AAr?$AAi?$AAp?$AAt?$AA?5?$AAo?$AAu?$AAt?$AA?5?$AAo?$AAf?$AA?5?$AAr?$AAa?$AAn?$AAg?$AAe?$AA?$AA@
    ??_C@_0CE@OFMIGAMM@Standard?5C?$CL?$CL?5Libraries?5Out?5of?5Ra@
    ??_C@_1FG@IBPIFFN@?$AA?$CC?$AAS?$AAt?$AAa?$AAn?$AAd?$AAa?$AAr?$AAd?$AA?5?$AAC?$AA?$CL?$AA?$CL?$AA?5?$AAL?$AAi?$AAb?$AAr?$AAa?$AAr?$AAi?$AAe?$AAs?$AA?5?$AAO?$AAu?$AAt?$AA?5?$AAo?$AAf?$AA?5?$AAR@
    ??_C@_1MK@FENOCIEM@?$AAs?$AAt?$AAd?$AA?3?$AA?3?$AAv?$AAe?$AAc?$AAt?$AAo?$AAr?$AA?$DM?$AAc?$AAl?$AAa?$AAs?$AAs?$AA?5?$AAG?$AAt?$AAk?$AA?3?$AA?3?$AAC?$AAe?$AAl?$AAl?$AAR?$AAe?$AAn?$AAd?$AAe@
    ??_C@_1BO@MEPPHOO@?$AA?$CC?$AAo?$AAu?$AAt?$AA?5?$AAo?$AAf?$AA?5?$AAr?$AAa?$AAn?$AAg?$AAe?$AA?$CC?$AA?$AA@
    ??_C@_0BD@OLBABOEK@vector?$DMT?$DO?5too?5long?$AA@
    ??_R0?AVCellRenderer@Gtk@@@8
    ??_R4CellLayout@Gtk@@6B01@@
    ??_R3CellLayout@Gtk@@8
    ??_R2CellLayout@Gtk@@8
    ??_R1A@?0A@EA@CellLayout@Gtk@@8
    ??_R17?0A@EA@Interface@Glib@@8
    ??_R0?AVInterface@Glib@@@8
    ??_R3Interface@Glib@@8
    ??_R2Interface@Glib@@8
    ??_R1A@?0A@EA@Interface@Glib@@8
    ??_R1A@A@7FA@ObjectBase@Glib@@8
    ??_R3ObjectBase@Glib@@8
    ??_R2ObjectBase@Glib@@8
    ??_R1A@?0A@EA@ObjectBase@Glib@@8
    ??_R1A@73FA@trackable@sigc@@8
    ??_R0?AUtrackable@sigc@@@8
    ??_R3trackable@sigc@@8
    ??_R2trackable@sigc@@8
    ??_R1A@?0A@EA@trackable@sigc@@8
    ??_R1A@A@3FA@trackable@sigc@@8
    ??_R1A@77FA@ObjectBase@Glib@@8
    ??_R4CellLayout@Gtk@@6BInterface@Glib@@@
    ?cellrenderer_class_@CellRenderer@Gtk@@0VCellRenderer_Class@2@A
    ?__empty_global_delete@@YAXPEAX@Z
    ?__empty_global_delete@@YAXPEAX_K@Z
    ?get_type@Class@Glib@@QEBA_KXZ
    ?data_to_slot@SignalProxyBase@Glib@@SAPEAVslot_base@sigc@@PEAX@Z
    ?convert_const_gchar_ptr_to_ustring@Glib@@YA?AVustring@1@PEBD@Z
    ?cobj@Context@Cairo@@QEAAPEAU_cairo@@XZ
    ?gobj@Rectangle@Gdk@@QEAAPEAU_cairo_rectangle_int@@XZ
    ?gobj@Rectangle@Gdk@@QEBAPEBU_cairo_rectangle_int@@XZ
    ?gobj@Widget@Gtk@@QEAAPEAU_GtkWidget@@XZ
    ?gobj@CellEditable@Gtk@@QEAAPEAU_GtkCellEditable@@XZ
    ?value_type@?$Value@W4CellRendererState@Gtk@@@Glib@@SA_KXZ
    ?value_type@?$Value@W4CellRendererMode@Gtk@@@Glib@@SA_KXZ
    ??1CellRenderer@Gtk@@UEAA@XZ
    ??0CellRenderer@Gtk@@IEAA@AEBVConstructParams@Glib@@@Z
    ??0CellRenderer@Gtk@@IEAA@PEAU_GtkCellRenderer@@@Z
    ?get_type@CellRenderer@Gtk@@SA_KXZ
    ?get_base_type@CellRenderer@Gtk@@SA_KXZ
    ?gobj@CellRenderer@Gtk@@QEAAPEAU_GtkCellRenderer@@XZ
    ?gobj@CellRenderer@Gtk@@QEBAPEBU_GtkCellRenderer@@XZ
    ?on_editing_canceled@CellRenderer@Gtk@@MEAAXXZ
    ?on_editing_started@CellRenderer@Gtk@@MEAAXPEAVCellEditable@2@AEBVustring@Glib@@@Z
    ?get_request_mode@CellRenderer@Gtk@@QEBA?AW4SizeRequestMode@2@XZ
    ?get_preferred_width@CellRenderer@Gtk@@QEBAXAEAVWidget@2@AEAH1@Z
    ?get_preferred_height_for_width@CellRenderer@Gtk@@QEBAXAEAVWidget@2@HAEAH1@Z
    ?get_preferred_height@CellRenderer@Gtk@@QEBAXAEAVWidget@2@AEAH1@Z
    ?get_preferred_width_for_height@CellRenderer@Gtk@@QEBAXAEAVWidget@2@HAEAH1@Z
    ?get_preferred_size@CellRenderer@Gtk@@QEBAXAEAVWidget@2@AEAU_GtkRequisition@@1@Z
    ?get_aligned_area@CellRenderer@Gtk@@QEAAXAEAVWidget@2@W4CellRendererState@2@AEBVRectangle@Gdk@@AEAV56@@Z
    ?render@CellRenderer@Gtk@@QEAAXAEBV?$RefPtr@VContext@Cairo@@@Cairo@@AEAVWidget@2@AEBVRectangle@Gdk@@2W4CellRendererState@2@@Z
    ?activate@CellRenderer@Gtk@@QEAA_NPEAT_GdkEvent@@AEAVWidget@2@AEBVustring@Glib@@AEBVRectangle@Gdk@@3W4CellRendererState@2@@Z
    ?start_editing@CellRenderer@Gtk@@QEAAPEAVCellEditable@2@PEAT_GdkEvent@@AEAVWidget@2@AEBVustring@Glib@@AEBVRectangle@Gdk@@3W4CellRendererState@2@@Z
    ?set_fixed_size@CellRenderer@Gtk@@QEAAXHH@Z
    ?get_fixed_size@CellRenderer@Gtk@@QEBAXAEAH0@Z
    ?set_alignment@CellRenderer@Gtk@@QEAAXMM@Z
    ?get_alignment@CellRenderer@Gtk@@QEBAXAEAM0@Z
    ?set_padding@CellRenderer@Gtk@@QEAAXHH@Z
    ?get_padding@CellRenderer@Gtk@@QEBAXAEAH0@Z
    ?set_visible@CellRenderer@Gtk@@QEAAX_N@Z
    ?get_visible@CellRenderer@Gtk@@QEBA_NXZ
    ?set_sensitive@CellRenderer@Gtk@@QEAAX_N@Z
    ?get_sensitive@CellRenderer@Gtk@@QEBA_NXZ
    ?is_activatable@CellRenderer@Gtk@@QEBA_NXZ
    ?stop_editing@CellRenderer@Gtk@@QEAAX_N@Z
    ?get_state@CellRenderer@Gtk@@QEBA?AW4StateFlags@2@AEAVWidget@2@W4CellRendererState@2@@Z
    ?_property_renderable@CellRenderer@Gtk@@UEAA?AVPropertyProxy_Base@Glib@@XZ
    ?signal_editing_canceled@CellRenderer@Gtk@@QEAA?AV?$SignalProxy0@X@Glib@@XZ
    ?signal_editing_started@CellRenderer@Gtk@@QEAA?AV?$SignalProxy2@XPEAVCellEditable@Gtk@@AEBVustring@Glib@@@Glib@@XZ
    ?property_mode@CellRenderer@Gtk@@QEAA?AV?$PropertyProxy@W4CellRendererMode@Gtk@@@Glib@@XZ
    ?property_mode@CellRenderer@Gtk@@QEBA?AV?$PropertyProxy_ReadOnly@W4CellRendererMode@Gtk@@@Glib@@XZ
    ?property_visible@CellRenderer@Gtk@@QEAA?AV?$PropertyProxy@_N@Glib@@XZ
    ?property_visible@CellRenderer@Gtk@@QEBA?AV?$PropertyProxy_ReadOnly@_N@Glib@@XZ
    ?property_sensitive@CellRenderer@Gtk@@QEAA?AV?$PropertyProxy@_N@Glib@@XZ
    ?property_sensitive@CellRenderer@Gtk@@QEBA?AV?$PropertyProxy_ReadOnly@_N@Glib@@XZ
    ?property_xalign@CellRenderer@Gtk@@QEAA?AV?$PropertyProxy@M@Glib@@XZ
    ?property_xalign@CellRenderer@Gtk@@QEBA?AV?$PropertyProxy_ReadOnly@M@Glib@@XZ
    ?property_yalign@CellRenderer@Gtk@@QEAA?AV?$PropertyProxy@M@Glib@@XZ
    ?property_yalign@CellRenderer@Gtk@@QEBA?AV?$PropertyProxy_ReadOnly@M@Glib@@XZ
    ?property_xpad@CellRenderer@Gtk@@QEAA?AV?$PropertyProxy@I@Glib@@XZ
    ?property_xpad@CellRenderer@Gtk@@QEBA?AV?$PropertyProxy_ReadOnly@I@Glib@@XZ
    ?property_ypad@CellRenderer@Gtk@@QEAA?AV?$PropertyProxy@I@Glib@@XZ
    ?property_ypad@CellRenderer@Gtk@@QEBA?AV?$PropertyProxy_ReadOnly@I@Glib@@XZ
    ?property_width@CellRenderer@Gtk@@QEAA?AV?$PropertyProxy@H@Glib@@XZ
    ?property_width@CellRenderer@Gtk@@QEBA?AV?$PropertyProxy_ReadOnly@H@Glib@@XZ
    ?property_height@CellRenderer@Gtk@@QEAA?AV?$PropertyProxy@H@Glib@@XZ
    ?property_height@CellRenderer@Gtk@@QEBA?AV?$PropertyProxy_ReadOnly@H@Glib@@XZ
    ?property_is_expander@CellRenderer@Gtk@@QEAA?AV?$PropertyProxy@_N@Glib@@XZ
    ?property_is_expander@CellRenderer@Gtk@@QEBA?AV?$PropertyProxy_ReadOnly@_N@Glib@@XZ
    ?property_is_expanded@CellRenderer@Gtk@@QEAA?AV?$PropertyProxy@_N@Glib@@XZ
    ?property_is_expanded@CellRenderer@Gtk@@QEBA?AV?$PropertyProxy_ReadOnly@_N@Glib@@XZ
    ?property_cell_background@CellRenderer@Gtk@@QEAA?AV?$PropertyProxy_WriteOnly@Vustring@Glib@@@Glib@@XZ
    ?property_cell_background_gdk@CellRenderer@Gtk@@QEAA?AV?$PropertyProxy@VColor@Gdk@@@Glib@@XZ
    ?property_cell_background_gdk@CellRenderer@Gtk@@QEBA?AV?$PropertyProxy_ReadOnly@VColor@Gdk@@@Glib@@XZ
    ?property_cell_background_rgba@CellRenderer@Gtk@@QEAA?AV?$PropertyProxy@VRGBA@Gdk@@@Glib@@XZ
    ?property_cell_background_rgba@CellRenderer@Gtk@@QEBA?AV?$PropertyProxy_ReadOnly@VRGBA@Gdk@@@Glib@@XZ
    ?property_cell_background_set@CellRenderer@Gtk@@QEAA?AV?$PropertyProxy@_N@Glib@@XZ
    ?property_cell_background_set@CellRenderer@Gtk@@QEBA?AV?$PropertyProxy_ReadOnly@_N@Glib@@XZ
    ?property_editing@CellRenderer@Gtk@@QEBA?AV?$PropertyProxy_ReadOnly@_N@Glib@@XZ
    ??0CellRenderer@Gtk@@IEAA@XZ
    ?get_request_mode_vfunc@CellRenderer@Gtk@@MEBA?AW4SizeRequestMode@2@XZ
    ?get_preferred_width_vfunc@CellRenderer@Gtk@@MEBAXAEAVWidget@2@AEAH1@Z
    ?get_preferred_height_for_width_vfunc@CellRenderer@Gtk@@MEBAXAEAVWidget@2@HAEAH1@Z
    ?get_preferred_height_vfunc@CellRenderer@Gtk@@MEBAXAEAVWidget@2@AEAH1@Z
    ?get_preferred_width_for_height_vfunc@CellRenderer@Gtk@@MEBAXAEAVWidget@2@HAEAH1@Z
    ?render_vfunc@CellRenderer@Gtk@@MEAAXAEBV?$RefPtr@VContext@Cairo@@@Cairo@@AEAVWidget@2@AEBVRectangle@Gdk@@2W4CellRendererState@2@@Z
    ?activate_vfunc@CellRenderer@Gtk@@MEAA_NPEAT_GdkEvent@@AEAVWidget@2@AEBVustring@Glib@@AEBVRectangle@Gdk@@3W4CellRendererState@2@@Z
    ?start_editing_vfunc@CellRenderer@Gtk@@MEAAPEAVCellEditable@2@PEAT_GdkEvent@@AEAVWidget@2@AEBVustring@Glib@@AEBVRectangle@Gdk@@3W4CellRendererState@2@@Z
    ??_DCellRenderer@Gtk@@QEAAXXZ
    ?wrap@Glib@@YAPEAVCellRenderer@Gtk@@PEAU_GtkCellRenderer@@_N@Z
    ?init@CellRenderer_Class@Gtk@@QEAAAEBVClass@Glib@@XZ
    ?class_init_function@CellRenderer_Class@Gtk@@SAXPEAX0@Z
    ?wrap_new@CellRenderer_Class@Gtk@@SAPEAVObjectBase@Glib@@PEAU_GObject@@@Z
    ?editing_canceled_callback@CellRenderer_Class@Gtk@@KAXPEAU_GtkCellRenderer@@@Z
    ?editing_started_callback@CellRenderer_Class@Gtk@@KAXPEAU_GtkCellRenderer@@PEAU_GtkCellEditable@@PEBD@Z
    ?get_request_mode_vfunc_callback@CellRenderer_Class@Gtk@@KA?AW4GtkSizeRequestMode@@PEAU_GtkCellRenderer@@@Z
    ?get_preferred_width_vfunc_callback@CellRenderer_Class@Gtk@@KAXPEAU_GtkCellRenderer@@PEAU_GtkWidget@@PEAH2@Z
    ?get_preferred_height_for_width_vfunc_callback@CellRenderer_Class@Gtk@@KAXPEAU_GtkCellRenderer@@PEAU_GtkWidget@@HPEAH2@Z
    ?get_preferred_height_vfunc_callback@CellRenderer_Class@Gtk@@KAXPEAU_GtkCellRenderer@@PEAU_GtkWidget@@PEAH2@Z
    ?get_preferred_width_for_height_vfunc_callback@CellRenderer_Class@Gtk@@KAXPEAU_GtkCellRenderer@@PEAU_GtkWidget@@HPEAH2@Z
    ?render_vfunc_callback@CellRenderer_Class@Gtk@@KAXPEAU_GtkCellRenderer@@PEAU_cairo@@PEAU_GtkWidget@@PEBU_cairo_rectangle_int@@3W4GtkCellRendererState@@@Z
    ?activate_vfunc_callback@CellRenderer_Class@Gtk@@KAHPEAU_GtkCellRenderer@@PEAT_GdkEvent@@PEAU_GtkWidget@@PEBDPEBU_cairo_rectangle_int@@4W4GtkCellRendererState@@@Z
    ?start_editing_vfunc_callback@CellRenderer_Class@Gtk@@KAPEAU_GtkCellEditable@@PEAU_GtkCellRenderer@@PEAT_GdkEvent@@PEAU_GtkWidget@@PEBDPEBU_cairo_rectangle_int@@4W4GtkCellRendererState@@@Z
    ??0?$PropertyProxy@H@Glib@@QEAA@PEAVObjectBase@1@PEBD@Z
    ??R?$slot2@XPEAVCellEditable@Gtk@@AEBVustring@Glib@@@sigc@@QEBAXAEBQEAVCellEditable@Gtk@@AEBVustring@Glib@@@Z
    ??1?$RefPtr@VContext@Cairo@@@Cairo@@QEAA@XZ
    ??0?$RefPtr@VContext@Cairo@@@Cairo@@QEAA@PEAVContext@1@@Z
    ??C?$RefPtr@VContext@Cairo@@@Cairo@@QEBAPEAVContext@1@XZ
    ?unref@?$RefPtr@VContext@Cairo@@@Cairo@@AEAAXXZ
    ??$unwrap@VCellEditable@Gtk@@@Glib@@YAPEAU_GtkCellEditable@@PEAVCellEditable@Gtk@@@Z
    ??$manage@VCellRenderer@Gtk@@@Gtk@@YAPEAVCellRenderer@0@PEAV10@@Z
    ??0?$SignalProxy0@X@Glib@@QEAA@PEAVObjectBase@1@PEBUSignalProxyInfo@1@@Z
    ??0?$SignalProxy2@XPEAVCellEditable@Gtk@@AEBVustring@Glib@@@Glib@@QEAA@PEAVObjectBase@1@PEBUSignalProxyInfo@1@@Z
    ??0?$PropertyProxy@W4CellRendererMode@Gtk@@@Glib@@QEAA@PEAVObjectBase@1@PEBD@Z
    ??0?$PropertyProxy_ReadOnly@W4CellRendererMode@Gtk@@@Glib@@QEAA@PEBVObjectBase@1@PEBD@Z
    ??0?$PropertyProxy@_N@Glib@@QEAA@PEAVObjectBase@1@PEBD@Z
    ??0?$PropertyProxy_ReadOnly@_N@Glib@@QEAA@PEBVObjectBase@1@PEBD@Z
    ??0?$PropertyProxy@M@Glib@@QEAA@PEAVObjectBase@1@PEBD@Z
    ??0?$PropertyProxy_ReadOnly@M@Glib@@QEAA@PEBVObjectBase@1@PEBD@Z
    ??0?$PropertyProxy@I@Glib@@QEAA@PEAVObjectBase@1@PEBD@Z
    ??0?$PropertyProxy_ReadOnly@I@Glib@@QEAA@PEBVObjectBase@1@PEBD@Z
    ??0?$PropertyProxy_ReadOnly@H@Glib@@QEAA@PEBVObjectBase@1@PEBD@Z
    ??0?$PropertyProxy_WriteOnly@Vustring@Glib@@@Glib@@QEAA@PEAVObjectBase@1@PEBD@Z
    ??0?$PropertyProxy@VColor@Gdk@@@Glib@@QEAA@PEAVObjectBase@1@PEBD@Z
    ??0?$PropertyProxy_ReadOnly@VColor@Gdk@@@Glib@@QEAA@PEBVObjectBase@1@PEBD@Z
    ??0?$PropertyProxy@VRGBA@Gdk@@@Glib@@QEAA@PEAVObjectBase@1@PEBD@Z
    ??0?$PropertyProxy_ReadOnly@VRGBA@Gdk@@@Glib@@QEAA@PEBVObjectBase@1@PEBD@Z
    ?destroy_notify_@Object@Gtk@@$2PPPPPPPM@A@EAAXXZ
    ?set_manage@Object@Gtk@@$4PPPPPPPM@A@EAAXXZ
    ??_7CellRenderer@Gtk@@6B01@@
    ??_7CellRenderer@Gtk@@6BObject@1@@
    ??_8CellRenderer@Gtk@@7BObject@Glib@@@
    ??_8CellRenderer@Gtk@@7BObjectBase@Glib@@@
    ??_R0?AVObjectBase@Glib@@@8
    ??_R0?AVCellRenderer@Gtk@@@8
    ??_R0?AVCellEditable@Gtk@@@8
    ??_R4CellRenderer@Gtk@@6B01@@
    ??_R3CellRenderer@Gtk@@8
    ??_R2CellRenderer@Gtk@@8
    ??_R1A@?0A@EA@CellRenderer@Gtk@@8
    ??_R17?0A@EA@Object@Gtk@@8
    ??_R0?AVObject@Gtk@@@8
    ??_R3Object@Gtk@@8
    ??_R2Object@Gtk@@8
    ??_R1A@?0A@EA@Object@Gtk@@8
    ??_R1A@?0A@EA@Object@Glib@@8
    ??_R0?AVObject@Glib@@@8
    ??_R3Object@Glib@@8
    ??_R2Object@Glib@@8
    ??_R1A@A@7FA@ObjectBase@Glib@@8
    ??_R3ObjectBase@Glib@@8
    ??_R2ObjectBase@Glib@@8
    ??_R1A@?0A@EA@ObjectBase@Glib@@8
    ??_R1A@73FA@trackable@sigc@@8
    ??_R0?AUtrackable@sigc@@@8
    ??_R3trackable@sigc@@8
    ??_R2trackable@sigc@@8
    ??_R1A@?0A@EA@trackable@sigc@@8
    ??_R1A@A@3FA@trackable@sigc@@8
    ??_R17?0A@EA@Object@Glib@@8
    ??_R1A@77FA@ObjectBase@Glib@@8
    ??_R4CellRenderer@Gtk@@6BObject@1@@
    ?cellrendereraccel_class_@CellRendererAccel@Gtk@@0VCellRendererAccel_Class@2@A
    ?__empty_global_delete@@YAXPEAX@Z
    ?__empty_global_delete@@YAXPEAX_K@Z
    ?get_type@Class@Glib@@QEBA_KXZ
    ?data_to_slot@SignalProxyBase@Glib@@SAPEAVslot_base@sigc@@PEAX@Z
    ?convert_const_gchar_ptr_to_ustring@Glib@@YA?AVustring@1@PEBD@Z
    ?value_type@?$Value@W4CellRendererAccelMode@Gtk@@@Glib@@SA_KXZ
    ??1CellRendererAccel@Gtk@@UEAA@XZ
    ??0CellRendererAccel@Gtk@@IEAA@AEBVConstructParams@Glib@@@Z
    ??0CellRendererAccel@Gtk@@IEAA@PEAU_GtkCellRendererAccel@@@Z
    ?get_type@CellRendererAccel@Gtk@@SA_KXZ
    ?get_base_type@CellRendererAccel@Gtk@@SA_KXZ
    ?gobj@CellRendererAccel@Gtk@@QEAAPEAU_GtkCellRendererAccel@@XZ
    ?on_accel_edited@CellRendererAccel@Gtk@@MEAAXAEBVustring@Glib@@IW4ModifierType@Gdk@@I@Z
    ?on_accel_cleared@CellRendererAccel@Gtk@@MEAAXAEBVustring@Glib@@@Z
    ??0CellRendererAccel@Gtk@@QEAA@XZ
    ?signal_accel_edited@CellRendererAccel@Gtk@@QEAA?AV?$SignalProxy4@XAEBVustring@Glib@@IW4ModifierType@Gdk@@I@Glib@@XZ
    ?signal_accel_cleared@CellRendererAccel@Gtk@@QEAA?AV?$SignalProxy1@XAEBVustring@Glib@@@Glib@@XZ
    ?property_accel_key@CellRendererAccel@Gtk@@QEAA?AV?$PropertyProxy@I@Glib@@XZ
    ?property_accel_key@CellRendererAccel@Gtk@@QEBA?AV?$PropertyProxy_ReadOnly@I@Glib@@XZ
    ?property_accel_mods@CellRendererAccel@Gtk@@QEAA?AV?$PropertyProxy@W4ModifierType@Gdk@@@Glib@@XZ
    ?property_accel_mods@CellRendererAccel@Gtk@@QEBA?AV?$PropertyProxy_ReadOnly@W4ModifierType@Gdk@@@Glib@@XZ
    ?property_keycode@CellRendererAccel@Gtk@@QEAA?AV?$PropertyProxy@I@Glib@@XZ
    ?property_keycode@CellRendererAccel@Gtk@@QEBA?AV?$PropertyProxy_ReadOnly@I@Glib@@XZ
    ?property_accel_mode@CellRendererAccel@Gtk@@QEAA?AV?$PropertyProxy@W4CellRendererAccelMode@Gtk@@@Glib@@XZ
    ?property_accel_mode@CellRendererAccel@Gtk@@QEBA?AV?$PropertyProxy_ReadOnly@W4CellRendererAccelMode@Gtk@@@Glib@@XZ
    ?_property_renderable@CellRendererAccel@Gtk@@UEAA?AVPropertyProxy_Base@Glib@@XZ
    ??_DCellRendererAccel@Gtk@@QEAAXXZ
    ?wrap@Glib@@YAPEAVCellRendererAccel@Gtk@@PEAU_GtkCellRendererAccel@@_N@Z
    ?init@CellRendererAccel_Class@Gtk@@QEAAAEBVClass@Glib@@XZ
    ?class_init_function@CellRendererAccel_Class@Gtk@@SAXPEAX0@Z
    ?wrap_new@CellRendererAccel_Class@Gtk@@SAPEAVObjectBase@Glib@@PEAU_GObject@@@Z
    ?accel_edited_callback@CellRendererAccel_Class@Gtk@@KAXPEAU_GtkCellRendererAccel@@PEBDIW4GdkModifierType@@I@Z
    ?accel_cleared_callback@CellRendererAccel_Class@Gtk@@KAXPEAU_GtkCellRendererAccel@@PEBD@Z
    ??0?$PropertyProxy@I@Glib@@QEAA@PEAVObjectBase@1@PEBD@Z
    ??R?$slot4@XAEBVustring@Glib@@IW4ModifierType@Gdk@@I@sigc@@QEBAXAEBVustring@Glib@@AEBIAEBW4ModifierType@Gdk@@1@Z
    ??R?$slot1@XAEBVustring@Glib@@@sigc@@QEBAXAEBVustring@Glib@@@Z
    ??$manage@VCellRendererAccel@Gtk@@@Gtk@@YAPEAVCellRendererAccel@0@PEAV10@@Z
    ??0?$SignalProxy4@XAEBVustring@Glib@@IW4ModifierType@Gdk@@I@Glib@@QEAA@PEAVObjectBase@1@PEBUSignalProxyInfo@1@@Z
    ??0?$SignalProxy1@XAEBVustring@Glib@@@Glib@@QEAA@PEAVObjectBase@1@PEBUSignalProxyInfo@1@@Z
    ??0?$PropertyProxy_ReadOnly@I@Glib@@QEAA@PEBVObjectBase@1@PEBD@Z
    ??0?$PropertyProxy@W4ModifierType@Gdk@@@Glib@@QEAA@PEAVObjectBase@1@PEBD@Z
    ??0?$PropertyProxy_ReadOnly@W4ModifierType@Gdk@@@Glib@@QEAA@PEBVObjectBase@1@PEBD@Z
    ??0?$PropertyProxy@W4CellRendererAccelMode@Gtk@@@Glib@@QEAA@PEAVObjectBase@1@PEBD@Z
    ??0?$PropertyProxy_ReadOnly@W4CellRendererAccelMode@Gtk@@@Glib@@QEAA@PEBVObjectBase@1@PEBD@Z
    ?destroy_notify_@Object@Gtk@@$2PPPPPPPM@A@EAAXXZ
    ?set_manage@Object@Gtk@@$4PPPPPPPM@A@EAAXXZ
    ??_7CellRendererAccel@Gtk@@6BCellRenderer@1@@
    ??_7CellRendererAccel@Gtk@@6BObject@1@@
    ??_8CellRendererAccel@Gtk@@7BObject@Glib@@@
    ??_8CellRendererAccel@Gtk@@7BObjectBase@Glib@@@
    ??_R0?AVObjectBase@Glib@@@8
    ??_R0?AVCellRendererAccel@Gtk@@@8
    ??_R4CellRendererAccel@Gtk@@6BCellRenderer@1@@
    ??_R3CellRendererAccel@Gtk@@8
    ??_R2CellRendererAccel@Gtk@@8
    ??_R1A@?0A@EA@CellRendererAccel@Gtk@@8
    ??_R1A@?0A@EA@CellRendererText@Gtk@@8
    ??_R0?AVCellRendererText@Gtk@@@8
    ??_R3CellRendererText@Gtk@@8
    ??_R2CellRendererText@Gtk@@8
    ??_R1A@?0A@EA@CellRenderer@Gtk@@8
    ??_R0?AVCellRenderer@Gtk@@@8
    ??_R3CellRenderer@Gtk@@8
    ??_R2CellRenderer@Gtk@@8
    ??_R17?0A@EA@Object@Gtk@@8
    ??_R0?AVObject@Gtk@@@8
    ??_R3Object@Gtk@@8
    ??_R2Object@Gtk@@8
    ??_R1A@?0A@EA@Object@Gtk@@8
    ??_R1A@?0A@EA@Object@Glib@@8
    ??_R0?AVObject@Glib@@@8
    ??_R3Object@Glib@@8
    ??_R2Object@Glib@@8
    ??_R1A@A@7FA@ObjectBase@Glib@@8
    ??_R3ObjectBase@Glib@@8
    ??_R2ObjectBase@Glib@@8
    ??_R1A@?0A@EA@ObjectBase@Glib@@8
    ??_R1A@73FA@trackable@sigc@@8
    ??_R0?AUtrackable@sigc@@@8
    ??_R3trackable@sigc@@8
    ??_R2trackable@sigc@@8
    ??_R1A@?0A@EA@trackable@sigc@@8
    ??_R1A@A@3FA@trackable@sigc@@8
    ??_R17?0A@EA@Object@Glib@@8
    ??_R1A@77FA@ObjectBase@Glib@@8
    ??_R4CellRendererAccel@Gtk@@6BObject@1@@
    ?cellrenderercombo_class_@CellRendererCombo@Gtk@@0VCellRendererCombo_Class@2@A
    ?__empty_global_delete@@YAXPEAX@Z
    ?__empty_global_delete@@YAXPEAX_K@Z
    ?get_type@Class@Glib@@QEBA_KXZ
    ?data_to_slot@SignalProxyBase@Glib@@SAPEAVslot_base@sigc@@PEAX@Z
    ?convert_const_gchar_ptr_to_ustring@Glib@@YA?AVustring@1@PEBD@Z
    ??1CellRendererCombo@Gtk@@UEAA@XZ
    ??0CellRendererCombo@Gtk@@IEAA@AEBVConstructParams@Glib@@@Z
    ??0CellRendererCombo@Gtk@@IEAA@PEAU_GtkCellRendererCombo@@@Z
    ?get_type@CellRendererCombo@Gtk@@SA_KXZ
    ?get_base_type@CellRendererCombo@Gtk@@SA_KXZ
    ??0CellRendererCombo@Gtk@@QEAA@XZ
    ?signal_changed@CellRendererCombo@Gtk@@QEAA?AV?$SignalProxy2@XAEBVustring@Glib@@AEBVTreeIter@Gtk@@@Glib@@XZ
    ?property_model@CellRendererCombo@Gtk@@QEAA?AV?$PropertyProxy@V?$RefPtr@VTreeModel@Gtk@@@Glib@@@Glib@@XZ
    ?property_model@CellRendererCombo@Gtk@@QEBA?AV?$PropertyProxy_ReadOnly@V?$RefPtr@VTreeModel@Gtk@@@Glib@@@Glib@@XZ
    ?property_text_column@CellRendererCombo@Gtk@@QEAA?AV?$PropertyProxy@H@Glib@@XZ
    ?property_text_column@CellRendererCombo@Gtk@@QEBA?AV?$PropertyProxy_ReadOnly@H@Glib@@XZ
    ?property_has_entry@CellRendererCombo@Gtk@@QEAA?AV?$PropertyProxy@_N@Glib@@XZ
    ?property_has_entry@CellRendererCombo@Gtk@@QEBA?AV?$PropertyProxy_ReadOnly@_N@Glib@@XZ
    ?_property_renderable@CellRendererCombo@Gtk@@UEAA?AVPropertyProxy_Base@Glib@@XZ
    ??_DCellRendererCombo@Gtk@@QEAAXXZ
    ?wrap@Glib@@YAPEAVCellRendererCombo@Gtk@@PEAU_GtkCellRendererCombo@@_N@Z
    ?init@CellRendererCombo_Class@Gtk@@QEAAAEBVClass@Glib@@XZ
    ?class_init_function@CellRendererCombo_Class@Gtk@@SAXPEAX0@Z
    ?wrap_new@CellRendererCombo_Class@Gtk@@SAPEAVObjectBase@Glib@@PEAU_GObject@@@Z
    ??R?$slot2@XAEBVustring@Glib@@AEBVTreeIter@Gtk@@@sigc@@QEBAXAEBVustring@Glib@@AEBVTreeIter@Gtk@@@Z
    ??$manage@VCellRendererCombo@Gtk@@@Gtk@@YAPEAVCellRendererCombo@0@PEAV10@@Z
    ??0?$SignalProxy2@XAEBVustring@Glib@@AEBVTreeIter@Gtk@@@Glib@@QEAA@PEAVObjectBase@1@PEBUSignalProxyInfo@1@@Z
    ??0?$PropertyProxy@V?$RefPtr@VTreeModel@Gtk@@@Glib@@@Glib@@QEAA@PEAVObjectBase@1@PEBD@Z
    ??0?$PropertyProxy_ReadOnly@V?$RefPtr@VTreeModel@Gtk@@@Glib@@@Glib@@QEAA@PEBVObjectBase@1@PEBD@Z
    ??0?$PropertyProxy@H@Glib@@QEAA@PEAVObjectBase@1@PEBD@Z
    ??0?$PropertyProxy_ReadOnly@H@Glib@@QEAA@PEBVObjectBase@1@PEBD@Z
    ??0?$PropertyProxy@_N@Glib@@QEAA@PEAVObjectBase@1@PEBD@Z
    ??0?$PropertyProxy_ReadOnly@_N@Glib@@QEAA@PEBVObjectBase@1@PEBD@Z
    ?destroy_notify_@Object@Gtk@@$2PPPPPPPM@A@EAAXXZ
    ?set_manage@Object@Gtk@@$4PPPPPPPM@A@EAAXXZ
    ??_7CellRendererCombo@Gtk@@6BCellRenderer@1@@
    ??_7CellRendererCombo@Gtk@@6BObject@1@@
    ??_8CellRendererCombo@Gtk@@7BObject@Glib@@@
    ??_8CellRendererCombo@Gtk@@7BObjectBase@Glib@@@
    ??_R0?AVObjectBase@Glib@@@8
    ??_R0?AVCellRendererCombo@Gtk@@@8
    ??_R4CellRendererCombo@Gtk@@6BCellRenderer@1@@
    ??_R3CellRendererCombo@Gtk@@8
    ??_R2CellRendererCombo@Gtk@@8
    ??_R1A@?0A@EA@CellRendererCombo@Gtk@@8
    ??_R1A@?0A@EA@CellRendererText@Gtk@@8
    ??_R0?AVCellRendererText@Gtk@@@8
    ??_R3CellRendererText@Gtk@@8
    ??_R2CellRendererText@Gtk@@8
    ??_R1A@?0A@EA@CellRenderer@Gtk@@8
    ??_R0?AVCellRenderer@Gtk@@@8
    ??_R3CellRenderer@Gtk@@8
    ??_R2CellRenderer@Gtk@@8
    ??_R17?0A@EA@Object@Gtk@@8
    ??_R0?AVObject@Gtk@@@8
    ??_R3Object@Gtk@@8
    ??_R2Object@Gtk@@8
    ??_R1A@?0A@EA@Object@Gtk@@8
    ??_R1A@?0A@EA@Object@Glib@@8
    ??_R0?AVObject@Glib@@@8
    ??_R3Object@Glib@@8
    ??_R2Object@Glib@@8
    ??_R1A@A@7FA@ObjectBase@Glib@@8
    ??_R3ObjectBase@Glib@@8
    ??_R2ObjectBase@Glib@@8
    ??_R1A@?0A@EA@ObjectBase@Glib@@8
    ??_R1A@73FA@trackable@sigc@@8
    ??_R0?AUtrackable@sigc@@@8
    ??_R3trackable@sigc@@8
    ??_R2trackable@sigc@@8
    ??_R1A@?0A@EA@trackable@sigc@@8
    ??_R1A@A@3FA@trackable@sigc@@8
    ??_R17?0A@EA@Object@Glib@@8
    ??_R1A@77FA@ObjectBase@Glib@@8
    ??_R4CellRendererCombo@Gtk@@6BObject@1@@
    ?cellrendererpixbuf_class_@CellRendererPixbuf@Gtk@@0VCellRendererPixbuf_Class@2@A
    ?__empty_global_delete@@YAXPEAX@Z
    ?__empty_global_delete@@YAXPEAX_K@Z
    ?get_type@Class@Glib@@QEBA_KXZ
    ??1CellRendererPixbuf@Gtk@@UEAA@XZ
    ??0CellRendererPixbuf@Gtk@@IEAA@AEBVConstructParams@Glib@@@Z
    ??0CellRendererPixbuf@Gtk@@IEAA@PEAU_GtkCellRendererPixbuf@@@Z
    ?get_type@CellRendererPixbuf@Gtk@@SA_KXZ
    ?get_base_type@CellRendererPixbuf@Gtk@@SA_KXZ
    ??0CellRendererPixbuf@Gtk@@QEAA@XZ
    ?property_pixbuf@CellRendererPixbuf@Gtk@@QEAA?AV?$PropertyProxy@V?$RefPtr@VPixbuf@Gdk@@@Glib@@@Glib@@XZ
    ?property_pixbuf@CellRendererPixbuf@Gtk@@QEBA?AV?$PropertyProxy_ReadOnly@V?$RefPtr@VPixbuf@Gdk@@@Glib@@@Glib@@XZ
    ?property_pixbuf_expander_open@CellRendererPixbuf@Gtk@@QEAA?AV?$PropertyProxy@V?$RefPtr@VPixbuf@Gdk@@@Glib@@@Glib@@XZ
    ?property_pixbuf_expander_open@CellRendererPixbuf@Gtk@@QEBA?AV?$PropertyProxy_ReadOnly@V?$RefPtr@VPixbuf@Gdk@@@Glib@@@Glib@@XZ
    ?property_pixbuf_expander_closed@CellRendererPixbuf@Gtk@@QEAA?AV?$PropertyProxy@V?$RefPtr@VPixbuf@Gdk@@@Glib@@@Glib@@XZ
    ?property_pixbuf_expander_closed@CellRendererPixbuf@Gtk@@QEBA?AV?$PropertyProxy_ReadOnly@V?$RefPtr@VPixbuf@Gdk@@@Glib@@@Glib@@XZ
    ?property_stock_id@CellRendererPixbuf@Gtk@@QEAA?AV?$PropertyProxy@Vustring@Glib@@@Glib@@XZ
    ?property_stock_id@CellRendererPixbuf@Gtk@@QEBA?AV?$PropertyProxy_ReadOnly@Vustring@Glib@@@Glib@@XZ
    ?property_stock_size@CellRendererPixbuf@Gtk@@QEAA?AV?$PropertyProxy@I@Glib@@XZ
    ?property_stock_size@CellRendererPixbuf@Gtk@@QEBA?AV?$PropertyProxy_ReadOnly@I@Glib@@XZ
    ?property_stock_detail@CellRendererPixbuf@Gtk@@QEAA?AV?$PropertyProxy@Vustring@Glib@@@Glib@@XZ
    ?property_stock_detail@CellRendererPixbuf@Gtk@@QEBA?AV?$PropertyProxy_ReadOnly@Vustring@Glib@@@Glib@@XZ
    ?property_icon_name@CellRendererPixbuf@Gtk@@QEAA?AV?$PropertyProxy@Vustring@Glib@@@Glib@@XZ
    ?property_icon_name@CellRendererPixbuf@Gtk@@QEBA?AV?$PropertyProxy_ReadOnly@Vustring@Glib@@@Glib@@XZ
    ?property_follow_state@CellRendererPixbuf@Gtk@@QEAA?AV?$PropertyProxy@_N@Glib@@XZ
    ?property_follow_state@CellRendererPixbuf@Gtk@@QEBA?AV?$PropertyProxy_ReadOnly@_N@Glib@@XZ
    ?property_gicon@CellRendererPixbuf@Gtk@@QEAA?AV?$PropertyProxy@V?$RefPtr@VIcon@Gio@@@Glib@@@Glib@@XZ
    ?property_gicon@CellRendererPixbuf@Gtk@@QEBA?AV?$PropertyProxy_ReadOnly@V?$RefPtr@VIcon@Gio@@@Glib@@@Glib@@XZ
    ?property_surface@CellRendererPixbuf@Gtk@@QEAA?AV?$PropertyProxy@V?$RefPtr@VSurface@Cairo@@@Cairo@@@Glib@@XZ
    ?property_surface@CellRendererPixbuf@Gtk@@QEBA?AV?$PropertyProxy_ReadOnly@V?$RefPtr@VSurface@Cairo@@@Cairo@@@Glib@@XZ
    ?_property_renderable@CellRendererPixbuf@Gtk@@UEAA?AVPropertyProxy_Base@Glib@@XZ
    ??_DCellRendererPixbuf@Gtk@@QEAAXXZ
    ?wrap@Glib@@YAPEAVCellRendererPixbuf@Gtk@@PEAU_GtkCellRendererPixbuf@@_N@Z
    ?init@CellRendererPixbuf_Class@Gtk@@QEAAAEBVClass@Glib@@XZ
    ?class_init_function@CellRendererPixbuf_Class@Gtk@@SAXPEAX0@Z
    ?wrap_new@CellRendererPixbuf_Class@Gtk@@SAPEAVObjectBase@Glib@@PEAU_GObject@@@Z
    ??0?$PropertyProxy@V?$RefPtr@VPixbuf@Gdk@@@Glib@@@Glib@@QEAA@PEAVObjectBase@1@PEBD@Z
    ??$manage@VCellRendererPixbuf@Gtk@@@Gtk@@YAPEAVCellRendererPixbuf@0@PEAV10@@Z
    ??0?$PropertyProxy_ReadOnly@V?$RefPtr@VPixbuf@Gdk@@@Glib@@@Glib@@QEAA@PEBVObjectBase@1@PEBD@Z
    ??0?$PropertyProxy@Vustring@Glib@@@Glib@@QEAA@PEAVObjectBase@1@PEBD@Z
    ??0?$PropertyProxy_ReadOnly@Vustring@Glib@@@Glib@@QEAA@PEBVObjectBase@1@PEBD@Z
    ??0?$PropertyProxy@I@Glib@@QEAA@PEAVObjectBase@1@PEBD@Z
    ??0?$PropertyProxy_ReadOnly@I@Glib@@QEAA@PEBVObjectBase@1@PEBD@Z
    ??0?$PropertyProxy@_N@Glib@@QEAA@PEAVObjectBase@1@PEBD@Z
    ??0?$PropertyProxy_ReadOnly@_N@Glib@@QEAA@PEBVObjectBase@1@PEBD@Z
    ??0?$PropertyProxy@V?$RefPtr@VIcon@Gio@@@Glib@@@Glib@@QEAA@PEAVObjectBase@1@PEBD@Z
    ??0?$PropertyProxy_ReadOnly@V?$RefPtr@VIcon@Gio@@@Glib@@@Glib@@QEAA@PEBVObjectBase@1@PEBD@Z
    ??0?$PropertyProxy@V?$RefPtr@VSurface@Cairo@@@Cairo@@@Glib@@QEAA@PEAVObjectBase@1@PEBD@Z
    ??0?$PropertyProxy_ReadOnly@V?$RefPtr@VSurface@Cairo@@@Cairo@@@Glib@@QEAA@PEBVObjectBase@1@PEBD@Z
    ?destroy_notify_@Object@Gtk@@$2PPPPPPPM@A@EAAXXZ
    ?set_manage@Object@Gtk@@$4PPPPPPPM@A@EAAXXZ
    ??_7CellRendererPixbuf@Gtk@@6BCellRenderer@1@@
    ??_7CellRendererPixbuf@Gtk@@6BObject@1@@
    ??_8CellRendererPixbuf@Gtk@@7BObject@Glib@@@
    ??_8CellRendererPixbuf@Gtk@@7BObjectBase@Glib@@@
    ??_R0?AVObjectBase@Glib@@@8
    ??_R0?AVCellRendererPixbuf@Gtk@@@8
    ??_R4CellRendererPixbuf@Gtk@@6BCellRenderer@1@@
    ??_R3CellRendererPixbuf@Gtk@@8
    ??_R2CellRendererPixbuf@Gtk@@8
    ??_R1A@?0A@EA@CellRendererPixbuf@Gtk@@8
    ??_R1A@?0A@EA@CellRenderer@Gtk@@8
    ??_R0?AVCellRenderer@Gtk@@@8
    ??_R3CellRenderer@Gtk@@8
    ??_R2CellRenderer@Gtk@@8
    ??_R17?0A@EA@Object@Gtk@@8
    ??_R0?AVObject@Gtk@@@8
    ??_R3Object@Gtk@@8
    ??_R2Object@Gtk@@8
    ??_R1A@?0A@EA@Object@Gtk@@8
    ??_R1A@?0A@EA@Object@Glib@@8
    ??_R0?AVObject@Glib@@@8
    ??_R3Object@Glib@@8
    ??_R2Object@Glib@@8
    ??_R1A@A@7FA@ObjectBase@Glib@@8
    ??_R3ObjectBase@Glib@@8
    ??_R2ObjectBase@Glib@@8
    ??_R1A@?0A@EA@ObjectBase@Glib@@8
    ??_R1A@73FA@trackable@sigc@@8
    ??_R0?AUtrackable@sigc@@@8
    ??_R3trackable@sigc@@8
    ??_R2trackable@sigc@@8
    ??_R1A@?0A@EA@trackable@sigc@@8
    ??_R1A@A@3FA@trackable@sigc@@8
    ??_R17?0A@EA@Object@Glib@@8
    ??_R1A@77FA@ObjectBase@Glib@@8
    ??_R4CellRendererPixbuf@Gtk@@6BObject@1@@
    ?cellrendererprogress_class_@CellRendererProgress@Gtk@@0VCellRendererProgress_Class@2@A
    ?__empty_global_delete@@YAXPEAX@Z
    ?__empty_global_delete@@YAXPEAX_K@Z
    ?get_type@Class@Glib@@QEBA_KXZ
    ??1CellRendererProgress@Gtk@@UEAA@XZ
    ??0CellRendererProgress@Gtk@@IEAA@AEBVConstructParams@Glib@@@Z
    ??0CellRendererProgress@Gtk@@IEAA@PEAU_GtkCellRendererProgress@@@Z
    ?get_type@CellRendererProgress@Gtk@@SA_KXZ
    ?get_base_type@CellRendererProgress@Gtk@@SA_KXZ
    ??0CellRendererProgress@Gtk@@QEAA@XZ
    ?property_value@CellRendererProgress@Gtk@@QEAA?AV?$PropertyProxy@H@Glib@@XZ
    ?property_value@CellRendererProgress@Gtk@@QEBA?AV?$PropertyProxy_ReadOnly@H@Glib@@XZ
    ?property_text@CellRendererProgress@Gtk@@QEAA?AV?$PropertyProxy@Vustring@Glib@@@Glib@@XZ
    ?property_text@CellRendererProgress@Gtk@@QEBA?AV?$PropertyProxy_ReadOnly@Vustring@Glib@@@Glib@@XZ
    ?property_pulse@CellRendererProgress@Gtk@@QEAA?AV?$PropertyProxy@H@Glib@@XZ
    ?property_pulse@CellRendererProgress@Gtk@@QEBA?AV?$PropertyProxy_ReadOnly@H@Glib@@XZ
    ?property_text_xalign@CellRendererProgress@Gtk@@QEAA?AV?$PropertyProxy@M@Glib@@XZ
    ?property_text_xalign@CellRendererProgress@Gtk@@QEBA?AV?$PropertyProxy_ReadOnly@M@Glib@@XZ
    ?property_text_yalign@CellRendererProgress@Gtk@@QEAA?AV?$PropertyProxy@M@Glib@@XZ
    ?property_text_yalign@CellRendererProgress@Gtk@@QEBA?AV?$PropertyProxy_ReadOnly@M@Glib@@XZ
    ?property_inverted@CellRendererProgress@Gtk@@QEAA?AV?$PropertyProxy@_N@Glib@@XZ
    ?property_inverted@CellRendererProgress@Gtk@@QEBA?AV?$PropertyProxy_ReadOnly@_N@Glib@@XZ
    ?_property_renderable@CellRendererProgress@Gtk@@UEAA?AVPropertyProxy_Base@Glib@@XZ
    ??_DCellRendererProgress@Gtk@@QEAAXXZ
    ?wrap@Glib@@YAPEAVCellRendererProgress@Gtk@@PEAU_GtkCellRendererProgress@@_N@Z
    ?init@CellRendererProgress_Class@Gtk@@QEAAAEBVClass@Glib@@XZ
    ?class_init_function@CellRendererProgress_Class@Gtk@@SAXPEAX0@Z
    ?wrap_new@CellRendererProgress_Class@Gtk@@SAPEAVObjectBase@Glib@@PEAU_GObject@@@Z
    ??$manage@VCellRendererProgress@Gtk@@@Gtk@@YAPEAVCellRendererProgress@0@PEAV10@@Z
    ??0?$PropertyProxy@H@Glib@@QEAA@PEAVObjectBase@1@PEBD@Z
    ??0?$PropertyProxy_ReadOnly@H@Glib@@QEAA@PEBVObjectBase@1@PEBD@Z
    ??0?$PropertyProxy@Vustring@Glib@@@Glib@@QEAA@PEAVObjectBase@1@PEBD@Z
    ??0?$PropertyProxy_ReadOnly@Vustring@Glib@@@Glib@@QEAA@PEBVObjectBase@1@PEBD@Z
    ??0?$PropertyProxy@M@Glib@@QEAA@PEAVObjectBase@1@PEBD@Z
    ??0?$PropertyProxy_ReadOnly@M@Glib@@QEAA@PEBVObjectBase@1@PEBD@Z
    ??0?$PropertyProxy@_N@Glib@@QEAA@PEAVObjectBase@1@PEBD@Z
    ??0?$PropertyProxy_ReadOnly@_N@Glib@@QEAA@PEBVObjectBase@1@PEBD@Z
    ?destroy_notify_@Object@Gtk@@$2PPPPPPPM@7EAAXXZ
    ?set_manage@Object@Gtk@@$4PPPPPPPM@7EAAXXZ
    ??_7CellRendererProgress@Gtk@@6BCellRenderer@1@@
    ??_7CellRendererProgress@Gtk@@6BObject@1@@
    ??_8CellRendererProgress@Gtk@@7BObject@Glib@@@
    ??_8CellRendererProgress@Gtk@@7BInterface@Glib@@@
    ??_8CellRendererProgress@Gtk@@7BObjectBase@Glib@@@
    ??_R0?AVObjectBase@Glib@@@8
    ??_R0?AVCellRendererProgress@Gtk@@@8
    ??_R4CellRendererProgress@Gtk@@6BCellRenderer@1@@
    ??_R3CellRendererProgress@Gtk@@8
    ??_R2CellRendererProgress@Gtk@@8
    ??_R1A@?0A@EA@CellRendererProgress@Gtk@@8
    ??_R1A@?0A@EA@CellRenderer@Gtk@@8
    ??_R0?AVCellRenderer@Gtk@@@8
    ??_R3CellRenderer@Gtk@@8
    ??_R2CellRenderer@Gtk@@8
    ??_R17?0A@EA@Object@Gtk@@8
    ??_R0?AVObject@Gtk@@@8
    ??_R3Object@Gtk@@8
    ??_R2Object@Gtk@@8
    ??_R1A@?0A@EA@Object@Gtk@@8
    ??_R1A@?0A@EA@Object@Glib@@8
    ??_R0?AVObject@Glib@@@8
    ??_R3Object@Glib@@8
    ??_R2Object@Glib@@8
    ??_R1A@A@7FA@ObjectBase@Glib@@8
    ??_R3ObjectBase@Glib@@8
    ??_R2ObjectBase@Glib@@8
    ??_R1A@?0A@EA@ObjectBase@Glib@@8
    ??_R1A@73FA@trackable@sigc@@8
    ??_R0?AUtrackable@sigc@@@8
    ??_R3trackable@sigc@@8
    ??_R2trackable@sigc@@8
    ??_R1A@?0A@EA@trackable@sigc@@8
    ??_R1A@A@3FA@trackable@sigc@@8
    ??_R17?0A@EA@Object@Glib@@8
    ??_R1A@77FA@ObjectBase@Glib@@8
    ??_R1BI@?0A@EA@Orientable@Gtk@@8
    ??_R0?AVOrientable@Gtk@@@8
    ??_R3Orientable@Gtk@@8
    ??_R2Orientable@Gtk@@8
    ??_R1A@?0A@EA@Orientable@Gtk@@8
    ??_R1A@?0A@EA@Interface@Glib@@8
    ??_R0?AVInterface@Glib@@@8
    ??_R3Interface@Glib@@8
    ??_R2Interface@Glib@@8
    ??_R1BI@?0A@EA@Interface@Glib@@8
    ??_R4CellRendererProgress@Gtk@@6BObject@1@@
    ?cellrendererspin_class_@CellRendererSpin@Gtk@@0VCellRendererSpin_Class@2@A
    ?__empty_global_delete@@YAXPEAX@Z
    ?__empty_global_delete@@YAXPEAX_K@Z
    ?get_type@Class@Glib@@QEBA_KXZ
    ??1CellRendererSpin@Gtk@@UEAA@XZ
    ??0CellRendererSpin@Gtk@@IEAA@AEBVConstructParams@Glib@@@Z
    ??0CellRendererSpin@Gtk@@IEAA@PEAU_GtkCellRendererSpin@@@Z
    ?get_type@CellRendererSpin@Gtk@@SA_KXZ
    ?get_base_type@CellRendererSpin@Gtk@@SA_KXZ
    ??0CellRendererSpin@Gtk@@QEAA@XZ
    ?property_adjustment@CellRendererSpin@Gtk@@QEAA?AV?$PropertyProxy@V?$RefPtr@VAdjustment@Gtk@@@Glib@@@Glib@@XZ
    ?property_adjustment@CellRendererSpin@Gtk@@QEBA?AV?$PropertyProxy_ReadOnly@V?$RefPtr@VAdjustment@Gtk@@@Glib@@@Glib@@XZ
    ?property_climb_rate@CellRendererSpin@Gtk@@QEAA?AV?$PropertyProxy@N@Glib@@XZ
    ?property_climb_rate@CellRendererSpin@Gtk@@QEBA?AV?$PropertyProxy_ReadOnly@N@Glib@@XZ
    ?property_digits@CellRendererSpin@Gtk@@QEAA?AV?$PropertyProxy@I@Glib@@XZ
    ?property_digits@CellRendererSpin@Gtk@@QEBA?AV?$PropertyProxy_ReadOnly@I@Glib@@XZ
    ?_property_renderable@CellRendererSpin@Gtk@@UEAA?AVPropertyProxy_Base@Glib@@XZ
    ??_DCellRendererSpin@Gtk@@QEAAXXZ
    ?wrap@Glib@@YAPEAVCellRendererSpin@Gtk@@PEAU_GtkCellRendererSpin@@_N@Z
    ?init@CellRendererSpin_Class@Gtk@@QEAAAEBVClass@Glib@@XZ
    ?class_init_function@CellRendererSpin_Class@Gtk@@SAXPEAX0@Z
    ?wrap_new@CellRendererSpin_Class@Gtk@@SAPEAVObjectBase@Glib@@PEAU_GObject@@@Z
    ??$manage@VCellRendererSpin@Gtk@@@Gtk@@YAPEAVCellRendererSpin@0@PEAV10@@Z
    ??0?$PropertyProxy@V?$RefPtr@VAdjustment@Gtk@@@Glib@@@Glib@@QEAA@PEAVObjectBase@1@PEBD@Z
    ??0?$PropertyProxy_ReadOnly@V?$RefPtr@VAdjustment@Gtk@@@Glib@@@Glib@@QEAA@PEBVObjectBase@1@PEBD@Z
    ??0?$PropertyProxy@N@Glib@@QEAA@PEAVObjectBase@1@PEBD@Z
    ??0?$PropertyProxy_ReadOnly@N@Glib@@QEAA@PEBVObjectBase@1@PEBD@Z
    ??0?$PropertyProxy@I@Glib@@QEAA@PEAVObjectBase@1@PEBD@Z
    ??0?$PropertyProxy_ReadOnly@I@Glib@@QEAA@PEBVObjectBase@1@PEBD@Z
    ?destroy_notify_@Object@Gtk@@$2PPPPPPPM@A@EAAXXZ
    ?set_manage@Object@Gtk@@$4PPPPPPPM@A@EAAXXZ
    ??_7CellRendererSpin@Gtk@@6BCellRenderer@1@@
    ??_7CellRendererSpin@Gtk@@6BObject@1@@
    ??_8CellRendererSpin@Gtk@@7BObject@Glib@@@
    ??_8CellRendererSpin@Gtk@@7BObjectBase@Glib@@@
    ??_R0?AVObjectBase@Glib@@@8
    ??_R0?AVCellRendererSpin@Gtk@@@8
    ??_R4CellRendererSpin@Gtk@@6BCellRenderer@1@@
    ??_R3CellRendererSpin@Gtk@@8
    ??_R2CellRendererSpin@Gtk@@8
    ??_R1A@?0A@EA@CellRendererSpin@Gtk@@8
    ??_R1A@?0A@EA@CellRendererText@Gtk@@8
    ??_R0?AVCellRendererText@Gtk@@@8
    ??_R3CellRendererText@Gtk@@8
    ??_R2CellRendererText@Gtk@@8
    ??_R1A@?0A@EA@CellRenderer@Gtk@@8
    ??_R0?AVCellRenderer@Gtk@@@8
    ??_R3CellRenderer@Gtk@@8
    ??_R2CellRenderer@Gtk@@8
    ??_R17?0A@EA@Object@Gtk@@8
    ??_R0?AVObject@Gtk@@@8
    ??_R3Object@Gtk@@8
    ??_R2Object@Gtk@@8
    ??_R1A@?0A@EA@Object@Gtk@@8
    ??_R1A@?0A@EA@Object@Glib@@8
    ??_R0?AVObject@Glib@@@8
    ??_R3Object@Glib@@8
    ??_R2Object@Glib@@8
    ??_R1A@A@7FA@ObjectBase@Glib@@8
    ??_R3ObjectBase@Glib@@8
    ??_R2ObjectBase@Glib@@8
    ??_R1A@?0A@EA@ObjectBase@Glib@@8
    ??_R1A@73FA@trackable@sigc@@8
    ??_R0?AUtrackable@sigc@@@8
    ??_R3trackable@sigc@@8
    ??_R2trackable@sigc@@8
    ??_R1A@?0A@EA@trackable@sigc@@8
    ??_R1A@A@3FA@trackable@sigc@@8
    ??_R17?0A@EA@Object@Glib@@8
    ??_R1A@77FA@ObjectBase@Glib@@8
    ??_R4CellRendererSpin@Gtk@@6BObject@1@@
    ?cellrendererspinner_class_@CellRendererSpinner@Gtk@@0VCellRendererSpinner_Class@2@A
    ?__empty_global_delete@@YAXPEAX@Z
    ?__empty_global_delete@@YAXPEAX_K@Z
    ?get_type@Class@Glib@@QEBA_KXZ
    ??1CellRendererSpinner@Gtk@@UEAA@XZ
    ??0CellRendererSpinner@Gtk@@IEAA@AEBVConstructParams@Glib@@@Z
    ??0CellRendererSpinner@Gtk@@IEAA@PEAU_GtkCellRendererSpinner@@@Z
    ?get_type@CellRendererSpinner@Gtk@@SA_KXZ
    ?get_base_type@CellRendererSpinner@Gtk@@SA_KXZ
    ??0CellRendererSpinner@Gtk@@QEAA@XZ
    ?property_active@CellRendererSpinner@Gtk@@QEAA?AV?$PropertyProxy@_N@Glib@@XZ
    ?property_active@CellRendererSpinner@Gtk@@QEBA?AV?$PropertyProxy_ReadOnly@_N@Glib@@XZ
    ?property_pulse@CellRendererSpinner@Gtk@@QEAA?AV?$PropertyProxy@I@Glib@@XZ
    ?property_pulse@CellRendererSpinner@Gtk@@QEBA?AV?$PropertyProxy_ReadOnly@I@Glib@@XZ
    ?property_size@CellRendererSpinner@Gtk@@QEAA?AV?$PropertyProxy@VIconSize@Gtk@@@Glib@@XZ
    ?property_size@CellRendererSpinner@Gtk@@QEBA?AV?$PropertyProxy_ReadOnly@VIconSize@Gtk@@@Glib@@XZ
    ??_DCellRendererSpinner@Gtk@@QEAAXXZ
    ?wrap@Glib@@YAPEAVCellRendererSpinner@Gtk@@PEAU_GtkCellRendererSpinner@@_N@Z
    ?init@CellRendererSpinner_Class@Gtk@@QEAAAEBVClass@Glib@@XZ
    ?class_init_function@CellRendererSpinner_Class@Gtk@@SAXPEAX0@Z
    ?wrap_new@CellRendererSpinner_Class@Gtk@@SAPEAVObjectBase@Glib@@PEAU_GObject@@@Z
    ??$manage@VCellRendererSpinner@Gtk@@@Gtk@@YAPEAVCellRendererSpinner@0@PEAV10@@Z
    ??0?$PropertyProxy@_N@Glib@@QEAA@PEAVObjectBase@1@PEBD@Z
    ??0?$PropertyProxy_ReadOnly@_N@Glib@@QEAA@PEBVObjectBase@1@PEBD@Z
    ??0?$PropertyProxy@I@Glib@@QEAA@PEAVObjectBase@1@PEBD@Z
    ??0?$PropertyProxy_ReadOnly@I@Glib@@QEAA@PEBVObjectBase@1@PEBD@Z
    ??0?$PropertyProxy@VIconSize@Gtk@@@Glib@@QEAA@PEAVObjectBase@1@PEBD@Z
    ??0?$PropertyProxy_ReadOnly@VIconSize@Gtk@@@Glib@@QEAA@PEBVObjectBase@1@PEBD@Z
    ?destroy_notify_@Object@Gtk@@$2PPPPPPPM@A@EAAXXZ
    ?set_manage@Object@Gtk@@$4PPPPPPPM@A@EAAXXZ
    ??_7CellRendererSpinner@Gtk@@6BCellRenderer@1@@
    ??_7CellRendererSpinner@Gtk@@6BObject@1@@
    ??_8CellRendererSpinner@Gtk@@7BObject@Glib@@@
    ??_8CellRendererSpinner@Gtk@@7BObjectBase@Glib@@@
    ??_R0?AVObjectBase@Glib@@@8
    ??_R0?AVCellRendererSpinner@Gtk@@@8
    ??_R4CellRendererSpinner@Gtk@@6BCellRenderer@1@@
    ??_R3CellRendererSpinner@Gtk@@8
    ??_R2CellRendererSpinner@Gtk@@8
    ??_R1A@?0A@EA@CellRendererSpinner@Gtk@@8
    ??_R1A@?0A@EA@CellRenderer@Gtk@@8
    ??_R0?AVCellRenderer@Gtk@@@8
    ??_R3CellRenderer@Gtk@@8
    ??_R2CellRenderer@Gtk@@8
    ??_R17?0A@EA@Object@Gtk@@8
    ??_R0?AVObject@Gtk@@@8
    ??_R3Object@Gtk@@8
    ??_R2Object@Gtk@@8
    ??_R1A@?0A@EA@Object@Gtk@@8
    ??_R1A@?0A@EA@Object@Glib@@8
    ??_R0?AVObject@Glib@@@8
    ??_R3Object@Glib@@8
    ??_R2Object@Glib@@8
    ??_R1A@A@7FA@ObjectBase@Glib@@8
    ??_R3ObjectBase@Glib@@8
    ??_R2ObjectBase@Glib@@8
    ??_R1A@?0A@EA@ObjectBase@Glib@@8
    ??_R1A@73FA@trackable@sigc@@8
    ??_R0?AUtrackable@sigc@@@8
    ??_R3trackable@sigc@@8
    ??_R2trackable@sigc@@8
    ??_R1A@?0A@EA@trackable@sigc@@8
    ??_R1A@A@3FA@trackable@sigc@@8
    ??_R17?0A@EA@Object@Glib@@8
    ??_R1A@77FA@ObjectBase@Glib@@8
    ??_R4CellRendererSpinner@Gtk@@6BObject@1@@
    ?cellrenderertext_class_@CellRendererText@Gtk@@0VCellRendererText_Class@2@A
    ?__empty_global_delete@@YAXPEAX@Z
    ?__empty_global_delete@@YAXPEAX_K@Z
    ?get_type@Class@Glib@@QEBA_KXZ
    ?data_to_slot@SignalProxyBase@Glib@@SAPEAVslot_base@sigc@@PEAX@Z
    ?convert_const_gchar_ptr_to_ustring@Glib@@YA?AVustring@1@PEBD@Z
    ??1CellRendererText@Gtk@@UEAA@XZ
    ??0CellRendererText@Gtk@@IEAA@AEBVConstructParams@Glib@@@Z
    ??0CellRendererText@Gtk@@IEAA@PEAU_GtkCellRendererText@@@Z
    ?get_type@CellRendererText@Gtk@@SA_KXZ
    ?get_base_type@CellRendererText@Gtk@@SA_KXZ
    ?gobj@CellRendererText@Gtk@@QEAAPEAU_GtkCellRendererText@@XZ
    ?on_edited@CellRendererText@Gtk@@MEAAXAEBVustring@Glib@@0@Z
    ??0CellRendererText@Gtk@@QEAA@XZ
    ?set_fixed_height_from_font@CellRendererText@Gtk@@QEAAXH@Z
    ?signal_edited@CellRendererText@Gtk@@QEAA?AV?$SignalProxy2@XAEBVustring@Glib@@AEBV12@@Glib@@XZ
    ?property_text@CellRendererText@Gtk@@QEAA?AV?$PropertyProxy@Vustring@Glib@@@Glib@@XZ
    ?property_text@CellRendererText@Gtk@@QEBA?AV?$PropertyProxy_ReadOnly@Vustring@Glib@@@Glib@@XZ
    ?property_markup@CellRendererText@Gtk@@QEAA?AV?$PropertyProxy_WriteOnly@Vustring@Glib@@@Glib@@XZ
    ?property_attributes@CellRendererText@Gtk@@QEAA?AV?$PropertyProxy@VAttrList@Pango@@@Glib@@XZ
    ?property_attributes@CellRendererText@Gtk@@QEBA?AV?$PropertyProxy_ReadOnly@VAttrList@Pango@@@Glib@@XZ
    ?property_background@CellRendererText@Gtk@@QEAA?AV?$PropertyProxy_WriteOnly@Vustring@Glib@@@Glib@@XZ
    ?property_foreground@CellRendererText@Gtk@@QEAA?AV?$PropertyProxy_WriteOnly@Vustring@Glib@@@Glib@@XZ
    ?property_background_gdk@CellRendererText@Gtk@@QEAA?AV?$PropertyProxy@VColor@Gdk@@@Glib@@XZ
    ?property_background_gdk@CellRendererText@Gtk@@QEBA?AV?$PropertyProxy_ReadOnly@VColor@Gdk@@@Glib@@XZ
    ?property_foreground_gdk@CellRendererText@Gtk@@QEAA?AV?$PropertyProxy@VColor@Gdk@@@Glib@@XZ
    ?property_foreground_gdk@CellRendererText@Gtk@@QEBA?AV?$PropertyProxy_ReadOnly@VColor@Gdk@@@Glib@@XZ
    ?property_background_rgba@CellRendererText@Gtk@@QEAA?AV?$PropertyProxy@VRGBA@Gdk@@@Glib@@XZ
    ?property_background_rgba@CellRendererText@Gtk@@QEBA?AV?$PropertyProxy_ReadOnly@VRGBA@Gdk@@@Glib@@XZ
    ?property_foreground_rgba@CellRendererText@Gtk@@QEAA?AV?$PropertyProxy@VRGBA@Gdk@@@Glib@@XZ
    ?property_foreground_rgba@CellRendererText@Gtk@@QEBA?AV?$PropertyProxy_ReadOnly@VRGBA@Gdk@@@Glib@@XZ
    ?property_font@CellRendererText@Gtk@@QEAA?AV?$PropertyProxy@Vustring@Glib@@@Glib@@XZ
    ?property_font@CellRendererText@Gtk@@QEBA?AV?$PropertyProxy_ReadOnly@Vustring@Glib@@@Glib@@XZ
    ?property_font_desc@CellRendererText@Gtk@@QEAA?AV?$PropertyProxy@VFontDescription@Pango@@@Glib@@XZ
    ?property_font_desc@CellRendererText@Gtk@@QEBA?AV?$PropertyProxy_ReadOnly@VFontDescription@Pango@@@Glib@@XZ
    ?property_family@CellRendererText@Gtk@@QEAA?AV?$PropertyProxy@Vustring@Glib@@@Glib@@XZ
    ?property_family@CellRendererText@Gtk@@QEBA?AV?$PropertyProxy_ReadOnly@Vustring@Glib@@@Glib@@XZ
    ?property_style@CellRendererText@Gtk@@QEAA?AV?$PropertyProxy@W4Style@Pango@@@Glib@@XZ
    ?property_style@CellRendererText@Gtk@@QEBA?AV?$PropertyProxy_ReadOnly@W4Style@Pango@@@Glib@@XZ
    ?property_variant@CellRendererText@Gtk@@QEAA?AV?$PropertyProxy@W4Variant@Pango@@@Glib@@XZ
    ?property_variant@CellRendererText@Gtk@@QEBA?AV?$PropertyProxy_ReadOnly@W4Variant@Pango@@@Glib@@XZ
    ?property_weight@CellRendererText@Gtk@@QEAA?AV?$PropertyProxy@H@Glib@@XZ
    ?property_weight@CellRendererText@Gtk@@QEBA?AV?$PropertyProxy_ReadOnly@H@Glib@@XZ
    ?property_stretch@CellRendererText@Gtk@@QEAA?AV?$PropertyProxy@W4Stretch@Pango@@@Glib@@XZ
    ?property_stretch@CellRendererText@Gtk@@QEBA?AV?$PropertyProxy_ReadOnly@W4Stretch@Pango@@@Glib@@XZ
    ?property_size@CellRendererText@Gtk@@QEAA?AV?$PropertyProxy@H@Glib@@XZ
    ?property_size@CellRendererText@Gtk@@QEBA?AV?$PropertyProxy_ReadOnly@H@Glib@@XZ
    ?property_size_points@CellRendererText@Gtk@@QEAA?AV?$PropertyProxy@N@Glib@@XZ
    ?property_size_points@CellRendererText@Gtk@@QEBA?AV?$PropertyProxy_ReadOnly@N@Glib@@XZ
    ?property_scale@CellRendererText@Gtk@@QEAA?AV?$PropertyProxy@N@Glib@@XZ
    ?property_scale@CellRendererText@Gtk@@QEBA?AV?$PropertyProxy_ReadOnly@N@Glib@@XZ
    ?property_editable@CellRendererText@Gtk@@QEAA?AV?$PropertyProxy@_N@Glib@@XZ
    ?property_editable@CellRendererText@Gtk@@QEBA?AV?$PropertyProxy_ReadOnly@_N@Glib@@XZ
    ?property_strikethrough@CellRendererText@Gtk@@QEAA?AV?$PropertyProxy@_N@Glib@@XZ
    ?property_strikethrough@CellRendererText@Gtk@@QEBA?AV?$PropertyProxy_ReadOnly@_N@Glib@@XZ
    ?property_underline@CellRendererText@Gtk@@QEAA?AV?$PropertyProxy@W4Underline@Pango@@@Glib@@XZ
    ?property_underline@CellRendererText@Gtk@@QEBA?AV?$PropertyProxy_ReadOnly@W4Underline@Pango@@@Glib@@XZ
    ?property_rise@CellRendererText@Gtk@@QEAA?AV?$PropertyProxy@H@Glib@@XZ
    ?property_rise@CellRendererText@Gtk@@QEBA?AV?$PropertyProxy_ReadOnly@H@Glib@@XZ
    ?property_language@CellRendererText@Gtk@@QEAA?AV?$PropertyProxy@Vustring@Glib@@@Glib@@XZ
    ?property_language@CellRendererText@Gtk@@QEBA?AV?$PropertyProxy_ReadOnly@Vustring@Glib@@@Glib@@XZ
    ?property_ellipsize@CellRendererText@Gtk@@QEAA?AV?$PropertyProxy@W4EllipsizeMode@Pango@@@Glib@@XZ
    ?property_ellipsize@CellRendererText@Gtk@@QEBA?AV?$PropertyProxy_ReadOnly@W4EllipsizeMode@Pango@@@Glib@@XZ
    ?property_width_chars@CellRendererText@Gtk@@QEAA?AV?$PropertyProxy@H@Glib@@XZ
    ?property_width_chars@CellRendererText@Gtk@@QEBA?AV?$PropertyProxy_ReadOnly@H@Glib@@XZ
    ?property_max_width_chars@CellRendererText@Gtk@@QEAA?AV?$PropertyProxy@H@Glib@@XZ
    ?property_max_width_chars@CellRendererText@Gtk@@QEBA?AV?$PropertyProxy_ReadOnly@H@Glib@@XZ
    ?property_wrap_mode@CellRendererText@Gtk@@QEAA?AV?$PropertyProxy@W4WrapMode@Pango@@@Glib@@XZ
    ?property_wrap_mode@CellRendererText@Gtk@@QEBA?AV?$PropertyProxy_ReadOnly@W4WrapMode@Pango@@@Glib@@XZ
    ?property_wrap_width@CellRendererText@Gtk@@QEAA?AV?$PropertyProxy@H@Glib@@XZ
    ?property_wrap_width@CellRendererText@Gtk@@QEBA?AV?$PropertyProxy_ReadOnly@H@Glib@@XZ
    ?property_alignment@CellRendererText@Gtk@@QEAA?AV?$PropertyProxy@W4Alignment@Pango@@@Glib@@XZ
    ?property_alignment@CellRendererText@Gtk@@QEBA?AV?$PropertyProxy_ReadOnly@W4Alignment@Pango@@@Glib@@XZ
    ?property_background_set@CellRendererText@Gtk@@QEAA?AV?$PropertyProxy@_N@Glib@@XZ
    ?property_background_set@CellRendererText@Gtk@@QEBA?AV?$PropertyProxy_ReadOnly@_N@Glib@@XZ
    ?property_foreground_set@CellRendererText@Gtk@@QEAA?AV?$PropertyProxy@_N@Glib@@XZ
    ?property_foreground_set@CellRendererText@Gtk@@QEBA?AV?$PropertyProxy_ReadOnly@_N@Glib@@XZ
    ?property_family_set@CellRendererText@Gtk@@QEAA?AV?$PropertyProxy@_N@Glib@@XZ
    ?property_family_set@CellRendererText@Gtk@@QEBA?AV?$PropertyProxy_ReadOnly@_N@Glib@@XZ
    ?property_style_set@CellRendererText@Gtk@@QEAA?AV?$PropertyProxy@_N@Glib@@XZ
    ?property_style_set@CellRendererText@Gtk@@QEBA?AV?$PropertyProxy_ReadOnly@_N@Glib@@XZ
    ?property_variant_set@CellRendererText@Gtk@@QEAA?AV?$PropertyProxy@_N@Glib@@XZ
    ?property_variant_set@CellRendererText@Gtk@@QEBA?AV?$PropertyProxy_ReadOnly@_N@Glib@@XZ
    ?property_weight_set@CellRendererText@Gtk@@QEAA?AV?$PropertyProxy@_N@Glib@@XZ
    ?property_weight_set@CellRendererText@Gtk@@QEBA?AV?$PropertyProxy_ReadOnly@_N@Glib@@XZ
    ?property_stretch_set@CellRendererText@Gtk@@QEAA?AV?$PropertyProxy@_N@Glib@@XZ
    ?property_stretch_set@CellRendererText@Gtk@@QEBA?AV?$PropertyProxy_ReadOnly@_N@Glib@@XZ
    ?property_size_set@CellRendererText@Gtk@@QEAA?AV?$PropertyProxy@_N@Glib@@XZ
    ?property_size_set@CellRendererText@Gtk@@QEBA?AV?$PropertyProxy_ReadOnly@_N@Glib@@XZ
    ?property_scale_set@CellRendererText@Gtk@@QEAA?AV?$PropertyProxy@_N@Glib@@XZ
    ?property_scale_set@CellRendererText@Gtk@@QEBA?AV?$PropertyProxy_ReadOnly@_N@Glib@@XZ
    ?property_editable_set@CellRendererText@Gtk@@QEAA?AV?$PropertyProxy@_N@Glib@@XZ
    ?property_editable_set@CellRendererText@Gtk@@QEBA?AV?$PropertyProxy_ReadOnly@_N@Glib@@XZ
    ?property_strikethrough_set@CellRendererText@Gtk@@QEAA?AV?$PropertyProxy@_N@Glib@@XZ
    ?property_strikethrough_set@CellRendererText@Gtk@@QEBA?AV?$PropertyProxy_ReadOnly@_N@Glib@@XZ
    ?property_underline_set@CellRendererText@Gtk@@QEAA?AV?$PropertyProxy@_N@Glib@@XZ
    ?property_underline_set@CellRendererText@Gtk@@QEBA?AV?$PropertyProxy_ReadOnly@_N@Glib@@XZ
    ?property_rise_set@CellRendererText@Gtk@@QEAA?AV?$PropertyProxy@_N@Glib@@XZ
    ?property_rise_set@CellRendererText@Gtk@@QEBA?AV?$PropertyProxy_ReadOnly@_N@Glib@@XZ
    ?property_language_set@CellRendererText@Gtk@@QEAA?AV?$PropertyProxy@_N@Glib@@XZ
    ?property_language_set@CellRendererText@Gtk@@QEBA?AV?$PropertyProxy_ReadOnly@_N@Glib@@XZ
    ?property_ellipsize_set@CellRendererText@Gtk@@QEAA?AV?$PropertyProxy@_N@Glib@@XZ
    ?property_ellipsize_set@CellRendererText@Gtk@@QEBA?AV?$PropertyProxy_ReadOnly@_N@Glib@@XZ
    ?property_single_paragraph_mode@CellRendererText@Gtk@@QEAA?AV?$PropertyProxy@_N@Glib@@XZ
    ?property_single_paragraph_mode@CellRendererText@Gtk@@QEBA?AV?$PropertyProxy_ReadOnly@_N@Glib@@XZ
    ?property_align_set@CellRendererText@Gtk@@QEAA?AV?$PropertyProxy@_N@Glib@@XZ
    ?property_align_set@CellRendererText@Gtk@@QEBA?AV?$PropertyProxy_ReadOnly@_N@Glib@@XZ
    ?property_placeholder_text@CellRendererText@Gtk@@QEAA?AV?$PropertyProxy@Vustring@Glib@@@Glib@@XZ
    ?property_placeholder_text@CellRendererText@Gtk@@QEBA?AV?$PropertyProxy_ReadOnly@Vustring@Glib@@@Glib@@XZ
    ?_property_renderable@CellRendererText@Gtk@@UEAA?AVPropertyProxy_Base@Glib@@XZ
    ?edited@CellRendererText@Gtk@@IEAAXAEBVustring@Glib@@0@Z
    ??_DCellRendererText@Gtk@@QEAAXXZ
    ?wrap@Glib@@YAPEAVCellRendererText@Gtk@@PEAU_GtkCellRendererText@@_N@Z
    ?init@CellRendererText_Class@Gtk@@QEAAAEBVClass@Glib@@XZ
    ?class_init_function@CellRendererText_Class@Gtk@@SAXPEAX0@Z
    ?wrap_new@CellRendererText_Class@Gtk@@SAPEAVObjectBase@Glib@@PEAU_GObject@@@Z
    ?edited_callback@CellRendererText_Class@Gtk@@KAXPEAU_GtkCellRendererText@@PEBD1@Z
    ??0?$PropertyProxy@Vustring@Glib@@@Glib@@QEAA@PEAVObjectBase@1@PEBD@Z
    ??R?$slot2@XAEBVustring@Glib@@AEBV12@@sigc@@QEBAXAEBVustring@Glib@@0@Z
    ??$manage@VCellRendererText@Gtk@@@Gtk@@YAPEAVCellRendererText@0@PEAV10@@Z
    ??0?$SignalProxy2@XAEBVustring@Glib@@AEBV12@@Glib@@QEAA@PEAVObjectBase@1@PEBUSignalProxyInfo@1@@Z
    ??0?$PropertyProxy_ReadOnly@Vustring@Glib@@@Glib@@QEAA@PEBVObjectBase@1@PEBD@Z
    ??0?$PropertyProxy_WriteOnly@Vustring@Glib@@@Glib@@QEAA@PEAVObjectBase@1@PEBD@Z
    ??0?$PropertyProxy@VAttrList@Pango@@@Glib@@QEAA@PEAVObjectBase@1@PEBD@Z
    ??0?$PropertyProxy_ReadOnly@VAttrList@Pango@@@Glib@@QEAA@PEBVObjectBase@1@PEBD@Z
    ??0?$PropertyProxy@VColor@Gdk@@@Glib@@QEAA@PEAVObjectBase@1@PEBD@Z
    ??0?$PropertyProxy_ReadOnly@VColor@Gdk@@@Glib@@QEAA@PEBVObjectBase@1@PEBD@Z
    ??0?$PropertyProxy@VRGBA@Gdk@@@Glib@@QEAA@PEAVObjectBase@1@PEBD@Z
    ??0?$PropertyProxy_ReadOnly@VRGBA@Gdk@@@Glib@@QEAA@PEBVObjectBase@1@PEBD@Z
    ??0?$PropertyProxy@VFontDescription@Pango@@@Glib@@QEAA@PEAVObjectBase@1@PEBD@Z
    ??0?$PropertyProxy_ReadOnly@VFontDescription@Pango@@@Glib@@QEAA@PEBVObjectBase@1@PEBD@Z
    ??0?$PropertyProxy@W4Style@Pango@@@Glib@@QEAA@PEAVObjectBase@1@PEBD@Z
    ??0?$PropertyProxy_ReadOnly@W4Style@Pango@@@Glib@@QEAA@PEBVObjectBase@1@PEBD@Z
    ??0?$PropertyProxy@W4Variant@Pango@@@Glib@@QEAA@PEAVObjectBase@1@PEBD@Z
    ??0?$PropertyProxy_ReadOnly@W4Variant@Pango@@@Glib@@QEAA@PEBVObjectBase@1@PEBD@Z
    ??0?$PropertyProxy@H@Glib@@QEAA@PEAVObjectBase@1@PEBD@Z
    ??0?$PropertyProxy_ReadOnly@H@Glib@@QEAA@PEBVObjectBase@1@PEBD@Z
    ??0?$PropertyProxy@W4Stretch@Pango@@@Glib@@QEAA@PEAVObjectBase@1@PEBD@Z
    ??0?$PropertyProxy_ReadOnly@W4Stretch@Pango@@@Glib@@QEAA@PEBVObjectBase@1@PEBD@Z
    ??0?$PropertyProxy@N@Glib@@QEAA@PEAVObjectBase@1@PEBD@Z
    ??0?$PropertyProxy_ReadOnly@N@Glib@@QEAA@PEBVObjectBase@1@PEBD@Z
    ??0?$PropertyProxy@_N@Glib@@QEAA@PEAVObjectBase@1@PEBD@Z
    ??0?$PropertyProxy_ReadOnly@_N@Glib@@QEAA@PEBVObjectBase@1@PEBD@Z
    ??0?$PropertyProxy@W4Underline@Pango@@@Glib@@QEAA@PEAVObjectBase@1@PEBD@Z
    ??0?$PropertyProxy_ReadOnly@W4Underline@Pango@@@Glib@@QEAA@PEBVObjectBase@1@PEBD@Z
    ??0?$PropertyProxy@W4EllipsizeMode@Pango@@@Glib@@QEAA@PEAVObjectBase@1@PEBD@Z
    ??0?$PropertyProxy_ReadOnly@W4EllipsizeMode@Pango@@@Glib@@QEAA@PEBVObjectBase@1@PEBD@Z
    ??0?$PropertyProxy@W4WrapMode@Pango@@@Glib@@QEAA@PEAVObjectBase@1@PEBD@Z
    ??0?$PropertyProxy_ReadOnly@W4WrapMode@Pango@@@Glib@@QEAA@PEBVObjectBase@1@PEBD@Z
    ??0?$PropertyProxy@W4Alignment@Pango@@@Glib@@QEAA@PEAVObjectBase@1@PEBD@Z
    ??0?$PropertyProxy_ReadOnly@W4Alignment@Pango@@@Glib@@QEAA@PEBVObjectBase@1@PEBD@Z
    ?destroy_notify_@Object@Gtk@@$2PPPPPPPM@A@EAAXXZ
    ?set_manage@Object@Gtk@@$4PPPPPPPM@A@EAAXXZ
    ??_7CellRendererText@Gtk@@6BCellRenderer@1@@
    ??_7CellRendererText@Gtk@@6BObject@1@@
    ??_8CellRendererText@Gtk@@7BObject@Glib@@@
    ??_8CellRendererText@Gtk@@7BObjectBase@Glib@@@
    ??_R0?AVObjectBase@Glib@@@8
    ??_R0?AVCellRendererText@Gtk@@@8
    ??_R4CellRendererText@Gtk@@6BCellRenderer@1@@
    ??_R3CellRendererText@Gtk@@8
    ??_R2CellRendererText@Gtk@@8
    ??_R1A@?0A@EA@CellRendererText@Gtk@@8
    ??_R1A@?0A@EA@CellRenderer@Gtk@@8
    ??_R0?AVCellRenderer@Gtk@@@8
    ??_R3CellRenderer@Gtk@@8
    ??_R2CellRenderer@Gtk@@8
    ??_R17?0A@EA@Object@Gtk@@8
    ??_R0?AVObject@Gtk@@@8
    ??_R3Object@Gtk@@8
    ??_R2Object@Gtk@@8
    ??_R1A@?0A@EA@Object@Gtk@@8
    ??_R1A@?0A@EA@Object@Glib@@8
    ??_R0?AVObject@Glib@@@8
    ??_R3Object@Glib@@8
    ??_R2Object@Glib@@8
    ??_R1A@A@7FA@ObjectBase@Glib@@8
    ??_R3ObjectBase@Glib@@8
    ??_R2ObjectBase@Glib@@8
    ??_R1A@?0A@EA@ObjectBase@Glib@@8
    ??_R1A@73FA@trackable@sigc@@8
    ??_R0?AUtrackable@sigc@@@8
    ??_R3trackable@sigc@@8
    ??_R2trackable@sigc@@8
    ??_R1A@?0A@EA@trackable@sigc@@8
    ??_R1A@A@3FA@trackable@sigc@@8
    ??_R17?0A@EA@Object@Glib@@8
    ??_R1A@77FA@ObjectBase@Glib@@8
    ??_R4CellRendererText@Gtk@@6BObject@1@@
    ?cellrenderertoggle_class_@CellRendererToggle@Gtk@@0VCellRendererToggle_Class@2@A
    ?__empty_global_delete@@YAXPEAX@Z
    ?__empty_global_delete@@YAXPEAX_K@Z
    ?get_type@Class@Glib@@QEBA_KXZ
    ?data_to_slot@SignalProxyBase@Glib@@SAPEAVslot_base@sigc@@PEAX@Z
    ?convert_const_gchar_ptr_to_ustring@Glib@@YA?AVustring@1@PEBD@Z
    ??1CellRendererToggle@Gtk@@UEAA@XZ
    ??0CellRendererToggle@Gtk@@IEAA@AEBVConstructParams@Glib@@@Z
    ??0CellRendererToggle@Gtk@@IEAA@PEAU_GtkCellRendererToggle@@@Z
    ?get_type@CellRendererToggle@Gtk@@SA_KXZ
    ?get_base_type@CellRendererToggle@Gtk@@SA_KXZ
    ?gobj@CellRendererToggle@Gtk@@QEAAPEAU_GtkCellRendererToggle@@XZ
    ?gobj@CellRendererToggle@Gtk@@QEBAPEBU_GtkCellRendererToggle@@XZ
    ?on_toggled@CellRendererToggle@Gtk@@MEAAXAEBVustring@Glib@@@Z
    ??0CellRendererToggle@Gtk@@QEAA@XZ
    ?get_radio@CellRendererToggle@Gtk@@QEBA_NXZ
    ?set_radio@CellRendererToggle@Gtk@@QEAAX_N@Z
    ?get_active@CellRendererToggle@Gtk@@QEBA_NXZ
    ?set_active@CellRendererToggle@Gtk@@QEAAX_N@Z
    ?get_activatable@CellRendererToggle@Gtk@@QEBA_NXZ
    ?set_activatable@CellRendererToggle@Gtk@@QEAAX_N@Z
    ?signal_toggled@CellRendererToggle@Gtk@@QEAA?AV?$SignalProxy1@XAEBVustring@Glib@@@Glib@@XZ
    ?property_activatable@CellRendererToggle@Gtk@@QEAA?AV?$PropertyProxy@_N@Glib@@XZ
    ?property_activatable@CellRendererToggle@Gtk@@QEBA?AV?$PropertyProxy_ReadOnly@_N@Glib@@XZ
    ?property_active@CellRendererToggle@Gtk@@QEAA?AV?$PropertyProxy@_N@Glib@@XZ
    ?property_active@CellRendererToggle@Gtk@@QEBA?AV?$PropertyProxy_ReadOnly@_N@Glib@@XZ
    ?property_inconsistent@CellRendererToggle@Gtk@@QEAA?AV?$PropertyProxy@_N@Glib@@XZ
    ?property_inconsistent@CellRendererToggle@Gtk@@QEBA?AV?$PropertyProxy_ReadOnly@_N@Glib@@XZ
    ?property_radio@CellRendererToggle@Gtk@@QEAA?AV?$PropertyProxy@_N@Glib@@XZ
    ?property_radio@CellRendererToggle@Gtk@@QEBA?AV?$PropertyProxy_ReadOnly@_N@Glib@@XZ
    ?property_indicator_size@CellRendererToggle@Gtk@@QEAA?AV?$PropertyProxy@H@Glib@@XZ
    ?property_indicator_size@CellRendererToggle@Gtk@@QEBA?AV?$PropertyProxy_ReadOnly@H@Glib@@XZ
    ?_property_renderable@CellRendererToggle@Gtk@@UEAA?AVPropertyProxy_Base@Glib@@XZ
    ??_DCellRendererToggle@Gtk@@QEAAXXZ
    ?wrap@Glib@@YAPEAVCellRendererToggle@Gtk@@PEAU_GtkCellRendererToggle@@_N@Z
    ?init@CellRendererToggle_Class@Gtk@@QEAAAEBVClass@Glib@@XZ
    ?class_init_function@CellRendererToggle_Class@Gtk@@SAXPEAX0@Z
    ?wrap_new@CellRendererToggle_Class@Gtk@@SAPEAVObjectBase@Glib@@PEAU_GObject@@@Z
    ?toggled_callback@CellRendererToggle_Class@Gtk@@KAXPEAU_GtkCellRendererToggle@@PEBD@Z
    ??0?$PropertyProxy@_N@Glib@@QEAA@PEAVObjectBase@1@PEBD@Z
    ??R?$slot1@XAEBVustring@Glib@@@sigc@@QEBAXAEBVustring@Glib@@@Z
    ??$manage@VCellRendererToggle@Gtk@@@Gtk@@YAPEAVCellRendererToggle@0@PEAV10@@Z
    ??0?$SignalProxy1@XAEBVustring@Glib@@@Glib@@QEAA@PEAVObjectBase@1@PEBUSignalProxyInfo@1@@Z
    ??0?$PropertyProxy_ReadOnly@_N@Glib@@QEAA@PEBVObjectBase@1@PEBD@Z
    ??0?$PropertyProxy@H@Glib@@QEAA@PEAVObjectBase@1@PEBD@Z
    ??0?$PropertyProxy_ReadOnly@H@Glib@@QEAA@PEBVObjectBase@1@PEBD@Z
    ?destroy_notify_@Object@Gtk@@$2PPPPPPPM@A@EAAXXZ
    ?set_manage@Object@Gtk@@$4PPPPPPPM@A@EAAXXZ
    ??_7CellRendererToggle@Gtk@@6BCellRenderer@1@@
    ??_7CellRendererToggle@Gtk@@6BObject@1@@
    ??_8CellRendererToggle@Gtk@@7BObject@Glib@@@
    ??_8CellRendererToggle@Gtk@@7BObjectBase@Glib@@@
    ??_R0?AVObjectBase@Glib@@@8
    ??_R0?AVCellRendererToggle@Gtk@@@8
    ??_R4CellRendererToggle@Gtk@@6BCellRenderer@1@@
    ??_R3CellRendererToggle@Gtk@@8
    ??_R2CellRendererToggle@Gtk@@8
    ??_R1A@?0A@EA@CellRendererToggle@Gtk@@8
    ??_R1A@?0A@EA@CellRenderer@Gtk@@8
    ??_R0?AVCellRenderer@Gtk@@@8
    ??_R3CellRenderer@Gtk@@8
    ??_R2CellRenderer@Gtk@@8
    ??_R17?0A@EA@Object@Gtk@@8
    ??_R0?AVObject@Gtk@@@8
    ??_R3Object@Gtk@@8
    ??_R2Object@Gtk@@8
    ??_R1A@?0A@EA@Object@Gtk@@8
    ??_R1A@?0A@EA@Object@Glib@@8
    ??_R0?AVObject@Glib@@@8
    ??_R3Object@Glib@@8
    ??_R2Object@Glib@@8
    ??_R1A@A@7FA@ObjectBase@Glib@@8
    ??_R3ObjectBase@Glib@@8
    ??_R2ObjectBase@Glib@@8
    ??_R1A@?0A@EA@ObjectBase@Glib@@8
    ??_R1A@73FA@trackable@sigc@@8
    ??_R0?AUtrackable@sigc@@@8
    ??_R3trackable@sigc@@8
    ??_R2trackable@sigc@@8
    ??_R1A@?0A@EA@trackable@sigc@@8
    ??_R1A@A@3FA@trackable@sigc@@8
    ??_R17?0A@EA@Object@Glib@@8
    ??_R1A@77FA@ObjectBase@Glib@@8
    ??_R4CellRendererToggle@Gtk@@6BObject@1@@
    ?__empty_global_delete@@YAXPEAX@Z
    ?__empty_global_delete@@YAXPEAX_K@Z
    ??0?$Value@_N@Glib@@QEAA@XZ
    ??1?$Value@_N@Glib@@QEAA@XZ
    ??$generate_cellrenderer@_N@CellRenderer_Generation@Gtk@@YAPEAVCellRenderer@1@_N@Z
    ??$generate_cellrenderer@V?$RefPtr@VPixbuf@Gdk@@@Glib@@@CellRenderer_Generation@Gtk@@YAPEAVCellRenderer@1@_N@Z
    ??$generate_cellrenderer@VAccelKey@Gtk@@@CellRenderer_Generation@Gtk@@YAPEAVCellRenderer@1@_N@Z
    ?set_value@?$PropertyProxy@_N@Glib@@QEAAXAEB_N@Z
    ??4?$PropertyProxy@_N@Glib@@QEAAAEAV01@AEB_N@Z
    ?cellview_class_@CellView@Gtk@@0VCellView_Class@2@A
    ?__empty_global_delete@@YAXPEAX@Z
    ?__empty_global_delete@@YAXPEAX_K@Z
    ?get_type@Class@Glib@@QEBA_KXZ
    ??0ValueBase_Object@Glib@@QEAA@XZ
    ??1ValueBase_Object@Glib@@QEAA@XZ
    ??0ValueBase_String@Glib@@QEAA@XZ
    ??1ValueBase_String@Glib@@QEAA@XZ
    ??0?$Value@Vustring@Glib@@@Glib@@QEAA@XZ
    ??1?$Value@Vustring@Glib@@@Glib@@QEAA@XZ
    ?gobj@Color@Gdk@@QEBAPEBU_GdkColor@@XZ
    ?gobj@RGBA@Gdk@@QEBAPEBU_GdkRGBA@@XZ
    ?gobj@TreeModel@Gtk@@QEAAPEAU_GtkTreeModel@@XZ
    ?gobj@TreePath@Gtk@@QEBAPEBU_GtkTreePath@@XZ
    ??1CellView@Gtk@@UEAA@XZ
    ??0CellView@Gtk@@IEAA@AEBVConstructParams@Glib@@@Z
    ??0CellView@Gtk@@IEAA@PEAU_GtkCellView@@@Z
    ?get_type@CellView@Gtk@@SA_KXZ
    ?get_base_type@CellView@Gtk@@SA_KXZ
    ?gobj@CellView@Gtk@@QEAAPEAU_GtkCellView@@XZ
    ?gobj@CellView@Gtk@@QEBAPEBU_GtkCellView@@XZ
    ??0CellView@Gtk@@QEAA@XZ
    ??0CellView@Gtk@@QEAA@AEBVustring@Glib@@_N@Z
    ??0CellView@Gtk@@QEAA@AEBV?$RefPtr@VPixbuf@Gdk@@@Glib@@@Z
    ?set_model@CellView@Gtk@@QEAAXAEBV?$RefPtr@VTreeModel@Gtk@@@Glib@@@Z
    ?unset_model@CellView@Gtk@@QEAAXXZ
    ?get_model@CellView@Gtk@@QEAA?AV?$RefPtr@VTreeModel@Gtk@@@Glib@@XZ
    ?get_model@CellView@Gtk@@QEBA?AV?$RefPtr@$$CBVTreeModel@Gtk@@@Glib@@XZ
    ?set_displayed_row@CellView@Gtk@@QEAAXAEBVTreePath@2@@Z
    ?get_displayed_row@CellView@Gtk@@QEBA?AVTreePath@2@XZ
    ?set_background_color@CellView@Gtk@@QEAAXAEBVColor@Gdk@@@Z
    ?set_background_rgba@CellView@Gtk@@QEAAXAEBVRGBA@Gdk@@@Z
    ?get_draw_sensitive@CellView@Gtk@@QEBA_NXZ
    ?set_draw_sensitive@CellView@Gtk@@QEAAX_N@Z
    ?get_fit_model@CellView@Gtk@@QEBA_NXZ
    ?set_fit_model@CellView@Gtk@@QEAAX_N@Z
    ?property_background@CellView@Gtk@@QEAA?AV?$PropertyProxy_WriteOnly@Vustring@Glib@@@Glib@@XZ
    ?property_background_gdk@CellView@Gtk@@QEAA?AV?$PropertyProxy@VColor@Gdk@@@Glib@@XZ
    ?property_background_gdk@CellView@Gtk@@QEBA?AV?$PropertyProxy_ReadOnly@VColor@Gdk@@@Glib@@XZ
    ?property_background_rgba@CellView@Gtk@@QEAA?AV?$PropertyProxy@VRGBA@Gdk@@@Glib@@XZ
    ?property_background_rgba@CellView@Gtk@@QEBA?AV?$PropertyProxy_ReadOnly@VRGBA@Gdk@@@Glib@@XZ
    ?property_background_set@CellView@Gtk@@QEAA?AV?$PropertyProxy@_N@Glib@@XZ
    ?property_background_set@CellView@Gtk@@QEBA?AV?$PropertyProxy_ReadOnly@_N@Glib@@XZ
    ?property_model@CellView@Gtk@@QEAA?AV?$PropertyProxy@V?$RefPtr@VTreeModel@Gtk@@@Glib@@@Glib@@XZ
    ?property_model@CellView@Gtk@@QEBA?AV?$PropertyProxy_ReadOnly@V?$RefPtr@VTreeModel@Gtk@@@Glib@@@Glib@@XZ
    ?property_cell_area@CellView@Gtk@@QEBA?AV?$PropertyProxy_ReadOnly@V?$RefPtr@VCellArea@Gtk@@@Glib@@@Glib@@XZ
    ?property_cell_area_context@CellView@Gtk@@QEBA?AV?$PropertyProxy_ReadOnly@V?$RefPtr@VCellAreaContext@Gtk@@@Glib@@@Glib@@XZ
    ?property_draw_sensitive@CellView@Gtk@@QEAA?AV?$PropertyProxy@_N@Glib@@XZ
    ?property_draw_sensitive@CellView@Gtk@@QEBA?AV?$PropertyProxy_ReadOnly@_N@Glib@@XZ
    ?property_fit_model@CellView@Gtk@@QEAA?AV?$PropertyProxy@_N@Glib@@XZ
    ?property_fit_model@CellView@Gtk@@QEBA?AV?$PropertyProxy_ReadOnly@_N@Glib@@XZ
    ??_DCellView@Gtk@@QEAAXXZ
    ?wrap@Glib@@YAPEAVCellView@Gtk@@PEAU_GtkCellView@@_N@Z
    ?init@CellView_Class@Gtk@@QEAAAEBVClass@Glib@@XZ
    ?class_init_function@CellView_Class@Gtk@@SAXPEAX0@Z
    ?wrap_new@CellView_Class@Gtk@@SAPEAVObjectBase@Glib@@PEAU_GObject@@@Z
    ??$manage@VCellRendererText@Gtk@@@Gtk@@YAPEAVCellRendererText@0@PEAV10@@Z
    ??0?$PropertyProxy_WriteOnly@Vustring@Glib@@@Glib@@QEAA@PEAVObjectBase@1@PEBD@Z
    ?set_value@?$PropertyProxy_WriteOnly@Vustring@Glib@@@Glib@@QEAAXAEBVustring@2@@Z
    ??4?$PropertyProxy_WriteOnly@Vustring@Glib@@@Glib@@QEAAAEAV01@AEBVustring@1@@Z
    ?set_value@?$PropertyProxy@Vustring@Glib@@@Glib@@QEAAXAEBVustring@2@@Z
    ??4?$PropertyProxy@Vustring@Glib@@@Glib@@QEAAAEAV01@AEBVustring@1@@Z
    ??$manage@VCellRendererPixbuf@Gtk@@@Gtk@@YAPEAVCellRendererPixbuf@0@PEAV10@@Z
    ?set_value@?$PropertyProxy@V?$RefPtr@VPixbuf@Gdk@@@Glib@@@Glib@@QEAAXAEBV?$RefPtr@VPixbuf@Gdk@@@2@@Z
    ??4?$PropertyProxy@V?$RefPtr@VPixbuf@Gdk@@@Glib@@@Glib@@QEAAAEAV01@AEBV?$RefPtr@VPixbuf@Gdk@@@1@@Z
    ??C?$RefPtr@VPixbuf@Gdk@@@Glib@@QEBAPEAVPixbuf@Gdk@@XZ
    ??$manage@VCellView@Gtk@@@Gtk@@YAPEAVCellView@0@PEAV10@@Z
    ??$unwrap@VTreeModel@Gtk@@@Glib@@YAPEAU_GtkTreeModel@@AEBV?$RefPtr@VTreeModel@Gtk@@@0@@Z
    ??1?$RefPtr@VTreeModel@Gtk@@@Glib@@QEAA@XZ
    ??0?$RefPtr@VTreeModel@Gtk@@@Glib@@QEAA@$$QEAV01@@Z
    ??C?$RefPtr@VTreeModel@Gtk@@@Glib@@QEBAPEAVTreeModel@Gtk@@XZ
    ??B?$RefPtr@VTreeModel@Gtk@@@Glib@@QEBA_NXZ
    ?release@?$RefPtr@VTreeModel@Gtk@@@Glib@@QEAAPEAVTreeModel@Gtk@@XZ
    ??$?0VTreeModel@Gtk@@@?$RefPtr@$$CBVTreeModel@Gtk@@@Glib@@QEAA@$$QEAV?$RefPtr@VTreeModel@Gtk@@@1@@Z
    ??0?$PropertyProxy@VColor@Gdk@@@Glib@@QEAA@PEAVObjectBase@1@PEBD@Z
    ??0?$PropertyProxy_ReadOnly@VColor@Gdk@@@Glib@@QEAA@PEBVObjectBase@1@PEBD@Z
    ??0?$PropertyProxy@VRGBA@Gdk@@@Glib@@QEAA@PEAVObjectBase@1@PEBD@Z
    ??0?$PropertyProxy_ReadOnly@VRGBA@Gdk@@@Glib@@QEAA@PEBVObjectBase@1@PEBD@Z
    ??0?$PropertyProxy@_N@Glib@@QEAA@PEAVObjectBase@1@PEBD@Z
    ??0?$PropertyProxy_ReadOnly@_N@Glib@@QEAA@PEBVObjectBase@1@PEBD@Z
    ??0?$PropertyProxy@V?$RefPtr@VTreeModel@Gtk@@@Glib@@@Glib@@QEAA@PEAVObjectBase@1@PEBD@Z
    ??0?$PropertyProxy_ReadOnly@V?$RefPtr@VTreeModel@Gtk@@@Glib@@@Glib@@QEAA@PEBVObjectBase@1@PEBD@Z
    ??0?$PropertyProxy_ReadOnly@V?$RefPtr@VCellArea@Gtk@@@Glib@@@Glib@@QEAA@PEBVObjectBase@1@PEBD@Z
    ??0?$PropertyProxy_ReadOnly@V?$RefPtr@VCellAreaContext@Gtk@@@Glib@@@Glib@@QEAA@PEBVObjectBase@1@PEBD@Z
    ?value_type@?$Value@V?$RefPtr@VPixbuf@Gdk@@@Glib@@@Glib@@SA_KXZ
    ?set@?$Value@V?$RefPtr@VPixbuf@Gdk@@@Glib@@@Glib@@QEAAXAEBV?$RefPtr@VPixbuf@Gdk@@@2@@Z
    ??0?$Value@V?$RefPtr@VPixbuf@Gdk@@@Glib@@@Glib@@QEAA@XZ
    ??1?$Value@V?$RefPtr@VPixbuf@Gdk@@@Glib@@@Glib@@QEAA@XZ
    ?destroy_notify_@Object@Gtk@@$2PPPPPPPM@CA@EAAXXZ
    ?set_manage@Object@Gtk@@$4PPPPPPPM@CA@EAAXXZ
    ??_7CellView@Gtk@@6BImplementor@Atk@@@
    ??_7CellView@Gtk@@6BCellLayout@1@@
    ??_7CellView@Gtk@@6B@
    ??_8CellView@Gtk@@7BObject@Glib@@@
    ??_8CellView@Gtk@@7BInterface@Glib@@Buildable@1@@
    ??_8CellView@Gtk@@7BInterface@Glib@@Implementor@Atk@@@
    ??_8CellView@Gtk@@7BInterface@Glib@@CellLayout@1@@
    ??_8CellView@Gtk@@7BInterface@Glib@@Orientable@1@@
    ??_8CellView@Gtk@@7BObjectBase@Glib@@@
    ??_R0?AVObjectBase@Glib@@@8
    ??_R0?AVCellView@Gtk@@@8
    ??_R4CellView@Gtk@@6BImplementor@Atk@@@
    ??_R3CellView@Gtk@@8
    ??_R2CellView@Gtk@@8
    ??_R1A@?0A@EA@CellView@Gtk@@8
    ??_R1A@?0A@EA@Widget@Gtk@@8
    ??_R0?AVWidget@Gtk@@@8
    ??_R3Widget@Gtk@@8
    ??_R2Widget@Gtk@@8
    ??_R1BA@?0A@EA@Object@Gtk@@8
    ??_R0?AVObject@Gtk@@@8
    ??_R3Object@Gtk@@8
    ??_R2Object@Gtk@@8
    ??_R1A@?0A@EA@Object@Gtk@@8
    ??_R1A@?0A@EA@Object@Glib@@8
    ??_R0?AVObject@Glib@@@8
    ??_R3Object@Glib@@8
    ??_R2Object@Glib@@8
    ??_R1A@A@7FA@ObjectBase@Glib@@8
    ??_R3ObjectBase@Glib@@8
    ??_R2ObjectBase@Glib@@8
    ??_R1A@?0A@EA@ObjectBase@Glib@@8
    ??_R1A@73FA@trackable@sigc@@8
    ??_R0?AUtrackable@sigc@@@8
    ??_R3trackable@sigc@@8
    ??_R2trackable@sigc@@8
    ??_R1A@?0A@EA@trackable@sigc@@8
    ??_R1A@A@3FA@trackable@sigc@@8
    ??_R1BA@?0A@EA@Object@Glib@@8
    ??_R1A@BA@7FA@ObjectBase@Glib@@8
    ??_R1A@BA@3FA@trackable@sigc@@8
    ??_R1CA@?0A@EA@Buildable@Gtk@@8
    ??_R0?AVBuildable@Gtk@@@8
    ??_R3Buildable@Gtk@@8
    ??_R2Buildable@Gtk@@8
    ??_R1A@?0A@EA@Buildable@Gtk@@8
    ??_R1A@?0A@EA@Interface@Glib@@8
    ??_R0?AVInterface@Glib@@@8
    ??_R3Interface@Glib@@8
    ??_R2Interface@Glib@@8
    ??_R1CA@?0A@EC@Interface@Glib@@8
    ??_R1A@?0A@EA@Implementor@Atk@@8
    ??_R0?AVImplementor@Atk@@@8
    ??_R3Implementor@Atk@@8
    ??_R2Implementor@Atk@@8
    ??_R17?0A@EA@Interface@Glib@@8
    ??_R1A@77FA@ObjectBase@Glib@@8
    ??_R17?0A@EC@Interface@Glib@@8
    ??_R1CI@?0A@EA@CellLayout@Gtk@@8
    ??_R0?AVCellLayout@Gtk@@@8
    ??_R3CellLayout@Gtk@@8
    ??_R2CellLayout@Gtk@@8
    ??_R1A@?0A@EA@CellLayout@Gtk@@8
    ??_R1DA@?0A@EC@Interface@Glib@@8
    ??_R1DI@?0A@EA@Orientable@Gtk@@8
    ??_R0?AVOrientable@Gtk@@@8
    ??_R3Orientable@Gtk@@8
    ??_R2Orientable@Gtk@@8
    ??_R1A@?0A@EA@Orientable@Gtk@@8
    ??_R1DI@?0A@EC@Interface@Glib@@8
    ??_R4CellView@Gtk@@6BCellLayout@1@@
    ??_R4CellView@Gtk@@6B@
    ?checkbutton_class_@CheckButton@Gtk@@0VCheckButton_Class@2@A
    ?__empty_global_delete@@YAXPEAX@Z
    ?__empty_global_delete@@YAXPEAX_K@Z
    ?get_type@Class@Glib@@QEBA_KXZ
    ?cobj@Context@Cairo@@QEAAPEAU_cairo@@XZ
    ??1CheckButton@Gtk@@UEAA@XZ
    ??0CheckButton@Gtk@@IEAA@AEBVConstructParams@Glib@@@Z
    ??0CheckButton@Gtk@@IEAA@PEAU_GtkCheckButton@@@Z
    ?get_type@CheckButton@Gtk@@SA_KXZ
    ?get_base_type@CheckButton@Gtk@@SA_KXZ
    ?gobj@CheckButton@Gtk@@QEAAPEAU_GtkCheckButton@@XZ
    ??0CheckButton@Gtk@@QEAA@XZ
    ??0CheckButton@Gtk@@QEAA@AEBVustring@Glib@@_N@Z
    ?draw_indicator_vfunc@CheckButton@Gtk@@MEAAXAEBV?$RefPtr@VContext@Cairo@@@Cairo@@@Z
    ??_DCheckButton@Gtk@@QEAAXXZ
    ?wrap@Glib@@YAPEAVCheckButton@Gtk@@PEAU_GtkCheckButton@@_N@Z
    ?init@CheckButton_Class@Gtk@@QEAAAEBVClass@Glib@@XZ
    ?class_init_function@CheckButton_Class@Gtk@@SAXPEAX0@Z
    ?wrap_new@CheckButton_Class@Gtk@@SAPEAVObjectBase@Glib@@PEAU_GObject@@@Z
    ?draw_indicator_vfunc_callback@CheckButton_Class@Gtk@@KAXPEAU_GtkCheckButton@@PEAU_cairo@@@Z
    ??1?$RefPtr@VContext@Cairo@@@Cairo@@QEAA@XZ
    ??0?$RefPtr@VContext@Cairo@@@Cairo@@QEAA@PEAVContext@1@@Z
    ??C?$RefPtr@VContext@Cairo@@@Cairo@@QEBAPEAVContext@1@XZ
    ?unref@?$RefPtr@VContext@Cairo@@@Cairo@@AEAAXXZ
    ??$manage@VCheckButton@Gtk@@@Gtk@@YAPEAVCheckButton@0@PEAV10@@Z
    ?destroy_notify_@Object@Gtk@@$2PPPPPPPM@BI@EAAXXZ
    ?set_manage@Object@Gtk@@$4PPPPPPPM@BI@EAAXXZ
    ??_7CheckButton@Gtk@@6BImplementor@Atk@@@
    ??_7CheckButton@Gtk@@6BActivatable@1@@
    ??_7CheckButton@Gtk@@6B@
    ??_8CheckButton@Gtk@@7BObject@Glib@@@
    ??_8CheckButton@Gtk@@7BInterface@Glib@@Buildable@1@@
    ??_8CheckButton@Gtk@@7BInterface@Glib@@Implementor@Atk@@@
    ??_8CheckButton@Gtk@@7BInterface@Glib@@@
    ??_8CheckButton@Gtk@@7BObjectBase@Glib@@@
    ??_R0?AVObjectBase@Glib@@@8
    ??_R0?AVCheckButton@Gtk@@@8
    ??_R4CheckButton@Gtk@@6BImplementor@Atk@@@
    ??_R3CheckButton@Gtk@@8
    ??_R2CheckButton@Gtk@@8
    ??_R1A@?0A@EA@CheckButton@Gtk@@8
    ??_R1A@?0A@EA@ToggleButton@Gtk@@8
    ??_R0?AVToggleButton@Gtk@@@8
    ??_R3ToggleButton@Gtk@@8
    ??_R2ToggleButton@Gtk@@8
    ??_R1A@?0A@EA@Button@Gtk@@8
    ??_R0?AVButton@Gtk@@@8
    ??_R3Button@Gtk@@8
    ??_R2Button@Gtk@@8
    ??_R1A@?0A@EA@Bin@Gtk@@8
    ??_R0?AVBin@Gtk@@@8
    ??_R3Bin@Gtk@@8
    ??_R2Bin@Gtk@@8
    ??_R1A@?0A@EA@Container@Gtk@@8
    ??_R0?AVContainer@Gtk@@@8
    ??_R3Container@Gtk@@8
    ??_R2Container@Gtk@@8
    ??_R1A@?0A@EA@Widget@Gtk@@8
    ??_R0?AVWidget@Gtk@@@8
    ??_R3Widget@Gtk@@8
    ??_R2Widget@Gtk@@8
    ??_R1BA@?0A@EA@Object@Gtk@@8
    ??_R0?AVObject@Gtk@@@8
    ??_R3Object@Gtk@@8
    ??_R2Object@Gtk@@8
    ??_R1A@?0A@EA@Object@Gtk@@8
    ??_R1A@?0A@EA@Object@Glib@@8
    ??_R0?AVObject@Glib@@@8
    ??_R3Object@Glib@@8
    ??_R2Object@Glib@@8
    ??_R1A@A@7FA@ObjectBase@Glib@@8
    ??_R3ObjectBase@Glib@@8
    ??_R2ObjectBase@Glib@@8
    ??_R1A@?0A@EA@ObjectBase@Glib@@8
    ??_R1A@73FA@trackable@sigc@@8
    ??_R0?AUtrackable@sigc@@@8
    ??_R3trackable@sigc@@8
    ??_R2trackable@sigc@@8
    ??_R1A@?0A@EA@trackable@sigc@@8
    ??_R1A@A@3FA@trackable@sigc@@8
    ??_R1BA@?0A@EA@Object@Glib@@8
    ??_R1A@BA@7FA@ObjectBase@Glib@@8
    ??_R1A@BA@3FA@trackable@sigc@@8
    ??_R1CA@?0A@EA@Buildable@Gtk@@8
    ??_R0?AVBuildable@Gtk@@@8
    ??_R3Buildable@Gtk@@8
    ??_R2Buildable@Gtk@@8
    ??_R1A@?0A@EA@Buildable@Gtk@@8
    ??_R1A@?0A@EA@Interface@Glib@@8
    ??_R0?AVInterface@Glib@@@8
    ??_R3Interface@Glib@@8
    ??_R2Interface@Glib@@8
    ??_R1CA@?0A@EC@Interface@Glib@@8
    ??_R1A@?0A@EA@Implementor@Atk@@8
    ??_R0?AVImplementor@Atk@@@8
    ??_R3Implementor@Atk@@8
    ??_R2Implementor@Atk@@8
    ??_R17?0A@EA@Interface@Glib@@8
    ??_R1A@77FA@ObjectBase@Glib@@8
    ??_R17?0A@EC@Interface@Glib@@8
    ??_R1CI@?0A@EA@Activatable@Gtk@@8
    ??_R0?AVActivatable@Gtk@@@8
    ??_R3Activatable@Gtk@@8
    ??_R2Activatable@Gtk@@8
    ??_R1A@?0A@EA@Activatable@Gtk@@8
    ??_R1DA@?0A@EC@Interface@Glib@@8
    ??_R4CheckButton@Gtk@@6BActivatable@1@@
