LIBRARY gtkmm
EXPORTS
    ??_C@_0O@KEDPLALK@activate?9link?$AA@
    ?aboutdialog_class_@AboutDialog@Gtk@@0VAboutDialog_Class@2@A
    ?__empty_global_delete@@YAXPEAX@Z
    ?__empty_global_delete@@YAXPEAX_K@Z
    ??3@YAXPEAX0@Z
    ?allocate@?$allocator@D@std@@QEAAPEAD_K@Z
    ?deallocate@?$_Wrap_alloc@V?$allocator@D@std@@@std@@QEAAXPEAD_K@Z
    ?_Assign_rv@?$basic_string@DU?$char_traits@D@std@@V?$allocator@D@2@@std@@QEAAX$$QEAV12@@Z
    ??1?$basic_string@DU?$char_traits@D@std@@V?$allocator@D@2@@std@@QEAA@XZ
    ?assign@?$basic_string@DU?$char_traits@D@std@@V?$allocator@D@2@@std@@QEAAAEAV12@AEBV12@_K1@Z
    ?assign@?$basic_string@DU?$char_traits@D@std@@V?$allocator@D@2@@std@@QEAAAEAV12@PEBD_K@Z
    ?erase@?$basic_string@DU?$char_traits@D@std@@V?$allocator@D@2@@std@@QEAAAEAV12@_K0@Z
    ?_Copy@?$basic_string@DU?$char_traits@D@std@@V?$allocator@D@2@@std@@QEAAX_K0@Z
    ?to_cpp_type@?$TypeTraits@Vustring@Glib@@@Container_Helpers@Glib@@SA?AVustring@3@PEBD@Z
    ?convert_const_gchar_ptr_to_ustring@Glib@@YA?AVustring@1@PEBD@Z
    ?convert_const_gchar_ptr_to_stdstring@Glib@@YA?AV?$basic_string@DU?$char_traits@D@std@@V?$allocator@D@2@@std@@PEBD@Z
    ?value_type@?$Value@W4License@Gtk@@@Glib@@SA_KXZ
    ??1AboutDialog@Gtk@@UEAA@XZ
    ??0AboutDialog@Gtk@@IEAA@AEBVConstructParams@Glib@@@Z
    ??0AboutDialog@Gtk@@IEAA@PEAU_GtkAboutDialog@@@Z
    ?get_type@AboutDialog@Gtk@@SA_KXZ
    ?get_base_type@AboutDialog@Gtk@@SA_KXZ
    ?on_activate_link@AboutDialog@Gtk@@MEAA_NAEBV?$basic_string@DU?$char_traits@D@std@@V?$allocator@D@2@@std@@@Z
    ??0AboutDialog@Gtk@@QEAA@XZ
    ?get_program_name@AboutDialog@Gtk@@QEBA?AVustring@Glib@@XZ
    ?set_program_name@AboutDialog@Gtk@@QEAAXAEBVustring@Glib@@@Z
    ?get_version@AboutDialog@Gtk@@QEBA?AVustring@Glib@@XZ
    ?set_version@AboutDialog@Gtk@@QEAAXAEBVustring@Glib@@@Z
    ?get_copyright@AboutDialog@Gtk@@QEBA?AVustring@Glib@@XZ
    ?set_copyright@AboutDialog@Gtk@@QEAAXAEBVustring@Glib@@@Z
    ?get_comments@AboutDialog@Gtk@@QEBA?AVustring@Glib@@XZ
    ?set_comments@AboutDialog@Gtk@@QEAAXAEBVustring@Glib@@@Z
    ?get_license@AboutDialog@Gtk@@QEBA?AVustring@Glib@@XZ
    ?set_license@AboutDialog@Gtk@@QEAAXAEBVustring@Glib@@@Z
    ?unset_license@AboutDialog@Gtk@@QEAAXXZ
    ?get_license_type@AboutDialog@Gtk@@QEBA?AW4License@2@XZ
    ?set_license_type@AboutDialog@Gtk@@QEAAXW4License@2@@Z
    ?get_website@AboutDialog@Gtk@@QEBA?AVustring@Glib@@XZ
    ?set_website@AboutDialog@Gtk@@QEAAXAEBVustring@Glib@@@Z
    ?get_website_label@AboutDialog@Gtk@@QEBA?AVustring@Glib@@XZ
    ?set_website_label@AboutDialog@Gtk@@QEAAXAEBVustring@Glib@@@Z
    ?get_authors@AboutDialog@Gtk@@QEBA?AV?$vector@Vustring@Glib@@V?$allocator@Vustring@Glib@@@std@@@std@@XZ
    ?set_authors@AboutDialog@Gtk@@QEBAXAEBV?$vector@Vustring@Glib@@V?$allocator@Vustring@Glib@@@std@@@std@@@Z
    ?get_documenters@AboutDialog@Gtk@@QEBA?AV?$vector@Vustring@Glib@@V?$allocator@Vustring@Glib@@@std@@@std@@XZ
    ?set_documenters@AboutDialog@Gtk@@QEAAXAEBV?$vector@Vustring@Glib@@V?$allocator@Vustring@Glib@@@std@@@std@@@Z
    ?get_artists@AboutDialog@Gtk@@QEBA?AV?$vector@Vustring@Glib@@V?$allocator@Vustring@Glib@@@std@@@std@@XZ
    ?set_artists@AboutDialog@Gtk@@QEAAXAEBV?$vector@Vustring@Glib@@V?$allocator@Vustring@Glib@@@std@@@std@@@Z
    ?get_translator_credits@AboutDialog@Gtk@@QEBA?AVustring@Glib@@XZ
    ?set_translator_credits@AboutDialog@Gtk@@QEAAXAEBVustring@Glib@@@Z
    ?get_logo@AboutDialog@Gtk@@QEAA?AV?$RefPtr@VPixbuf@Gdk@@@Glib@@XZ
    ?get_logo@AboutDialog@Gtk@@QEBA?AV?$RefPtr@$$CBVPixbuf@Gdk@@@Glib@@XZ
    ?set_logo@AboutDialog@Gtk@@QEAAXAEBV?$RefPtr@VPixbuf@Gdk@@@Glib@@@Z
    ?set_logo_default@AboutDialog@Gtk@@QEAAXXZ
    ?get_logo_icon_name@AboutDialog@Gtk@@QEBA?AVustring@Glib@@XZ
    ?set_logo_icon_name@AboutDialog@Gtk@@QEAAXAEBVustring@Glib@@@Z
    ?get_wrap_license@AboutDialog@Gtk@@QEBA_NXZ
    ?set_wrap_license@AboutDialog@Gtk@@QEAAX_N@Z
    ?add_credit_section@AboutDialog@Gtk@@QEAAXAEBVustring@Glib@@AEBV?$vector@Vustring@Glib@@V?$allocator@Vustring@Glib@@@std@@@std@@@Z
    ?property_program_name@AboutDialog@Gtk@@QEAA?AV?$PropertyProxy@Vustring@Glib@@@Glib@@XZ
    ?property_program_name@AboutDialog@Gtk@@QEBA?AV?$PropertyProxy_ReadOnly@Vustring@Glib@@@Glib@@XZ
    ?property_version@AboutDialog@Gtk@@QEAA?AV?$PropertyProxy@Vustring@Glib@@@Glib@@XZ
    ?property_version@AboutDialog@Gtk@@QEBA?AV?$PropertyProxy_ReadOnly@Vustring@Glib@@@Glib@@XZ
    ?property_copyright@AboutDialog@Gtk@@QEAA?AV?$PropertyProxy@Vustring@Glib@@@Glib@@XZ
    ?property_copyright@AboutDialog@Gtk@@QEBA?AV?$PropertyProxy_ReadOnly@Vustring@Glib@@@Glib@@XZ
    ?property_comments@AboutDialog@Gtk@@QEAA?AV?$PropertyProxy@Vustring@Glib@@@Glib@@XZ
    ?property_comments@AboutDialog@Gtk@@QEBA?AV?$PropertyProxy_ReadOnly@Vustring@Glib@@@Glib@@XZ
    ?property_website@AboutDialog@Gtk@@QEAA?AV?$PropertyProxy@Vustring@Glib@@@Glib@@XZ
    ?property_website@AboutDialog@Gtk@@QEBA?AV?$PropertyProxy_ReadOnly@Vustring@Glib@@@Glib@@XZ
    ?property_website_label@AboutDialog@Gtk@@QEAA?AV?$PropertyProxy@Vustring@Glib@@@Glib@@XZ
    ?property_website_label@AboutDialog@Gtk@@QEBA?AV?$PropertyProxy_ReadOnly@Vustring@Glib@@@Glib@@XZ
    ?property_license@AboutDialog@Gtk@@QEAA?AV?$PropertyProxy@Vustring@Glib@@@Glib@@XZ
    ?property_license@AboutDialog@Gtk@@QEBA?AV?$PropertyProxy_ReadOnly@Vustring@Glib@@@Glib@@XZ
    ?property_license_type@AboutDialog@Gtk@@QEAA?AV?$PropertyProxy@W4License@Gtk@@@Glib@@XZ
    ?property_license_type@AboutDialog@Gtk@@QEBA?AV?$PropertyProxy_ReadOnly@W4License@Gtk@@@Glib@@XZ
    ?property_authors@AboutDialog@Gtk@@QEAA?AV?$PropertyProxy@V?$vector@Vustring@Glib@@V?$allocator@Vustring@Glib@@@std@@@std@@@Glib@@XZ
    ?property_authors@AboutDialog@Gtk@@QEBA?AV?$PropertyProxy_ReadOnly@V?$vector@Vustring@Glib@@V?$allocator@Vustring@Glib@@@std@@@std@@@Glib@@XZ
    ?property_documenters@AboutDialog@Gtk@@QEAA?AV?$PropertyProxy@V?$vector@Vustring@Glib@@V?$allocator@Vustring@Glib@@@std@@@std@@@Glib@@XZ
    ?property_documenters@AboutDialog@Gtk@@QEBA?AV?$PropertyProxy_ReadOnly@V?$vector@Vustring@Glib@@V?$allocator@Vustring@Glib@@@std@@@std@@@Glib@@XZ
    ?property_translator_credits@AboutDialog@Gtk@@QEAA?AV?$PropertyProxy@V?$vector@Vustring@Glib@@V?$allocator@Vustring@Glib@@@std@@@std@@@Glib@@XZ
    ?property_translator_credits@AboutDialog@Gtk@@QEBA?AV?$PropertyProxy_ReadOnly@V?$vector@Vustring@Glib@@V?$allocator@Vustring@Glib@@@std@@@std@@@Glib@@XZ
    ?property_artists@AboutDialog@Gtk@@QEAA?AV?$PropertyProxy@V?$vector@Vustring@Glib@@V?$allocator@Vustring@Glib@@@std@@@std@@@Glib@@XZ
    ?property_artists@AboutDialog@Gtk@@QEBA?AV?$PropertyProxy_ReadOnly@V?$vector@Vustring@Glib@@V?$allocator@Vustring@Glib@@@std@@@std@@@Glib@@XZ
    ?property_logo@AboutDialog@Gtk@@QEAA?AV?$PropertyProxy@V?$RefPtr@VPixbuf@Gdk@@@Glib@@@Glib@@XZ
    ?property_logo@AboutDialog@Gtk@@QEBA?AV?$PropertyProxy_ReadOnly@V?$RefPtr@VPixbuf@Gdk@@@Glib@@@Glib@@XZ
    ?property_logo_icon_name@AboutDialog@Gtk@@QEAA?AV?$PropertyProxy@Vustring@Glib@@@Glib@@XZ
    ?property_logo_icon_name@AboutDialog@Gtk@@QEBA?AV?$PropertyProxy_ReadOnly@Vustring@Glib@@@Glib@@XZ
    ?property_wrap_license@AboutDialog@Gtk@@QEAA?AV?$PropertyProxy@_N@Glib@@XZ
    ?property_wrap_license@AboutDialog@Gtk@@QEBA?AV?$PropertyProxy_ReadOnly@_N@Glib@@XZ
    ?signal_activate_link@AboutDialog@Gtk@@QEAA?AV?$SignalProxy1@_NAEBV?$basic_string@DU?$char_traits@D@std@@V?$allocator@D@2@@std@@@Glib@@XZ
    ??_DAboutDialog@Gtk@@QEAAXXZ
    ?wrap@Glib@@YAPEAVAboutDialog@Gtk@@PEAU_GtkAboutDialog@@_N@Z
    ?init@AboutDialog_Class@Gtk@@QEAAAEBVClass@Glib@@XZ
    ?class_init_function@AboutDialog_Class@Gtk@@SAXPEAX0@Z
    ?wrap_new@AboutDialog_Class@Gtk@@SAPEAVObjectBase@Glib@@PEAU_GObject@@@Z
    ?activate_link_callback@AboutDialog_Class@Gtk@@KAHPEAU_GtkAboutDialog@@PEBD@Z
    ?deallocate@?$allocator@Vustring@Glib@@@std@@QEAAXPEAVustring@Glib@@_K@Z
    ?allocate@?$allocator@Vustring@Glib@@@std@@QEAAPEAVustring@Glib@@_K@Z
    ?_Tidy@?$vector@Vustring@Glib@@V?$allocator@Vustring@Glib@@@std@@@std@@IEAAXXZ
    ?array_to_vector@?$ArrayHandler@Vustring@Glib@@U?$TypeTraits@Vustring@Glib@@@Container_Helpers@2@@Glib@@SA?AV?$vector@Vustring@Glib@@V?$allocator@Vustring@Glib@@@std@@@std@@PEBQEBD_KW4OwnershipType@2@@Z
    ?array_to_vector@?$ArrayHandler@Vustring@Glib@@U?$TypeTraits@Vustring@Glib@@@Container_Helpers@2@@Glib@@SA?AV?$vector@Vustring@Glib@@V?$allocator@Vustring@Glib@@@std@@@std@@PEBQEBDW4OwnershipType@2@@Z
    ?vector_to_array@?$ArrayHandler@Vustring@Glib@@U?$TypeTraits@Vustring@Glib@@@Container_Helpers@2@@Glib@@SA?AV?$ArrayKeeper@U?$TypeTraits@Vustring@Glib@@@Container_Helpers@Glib@@@Container_Helpers@2@AEBV?$vector@Vustring@Glib@@V?$allocator@Vustring@Glib@@@std@@@std@@@Z
    ??1?$ArrayKeeper@U?$TypeTraits@Vustring@Glib@@@Container_Helpers@Glib@@@Container_Helpers@Glib@@QEAA@XZ
    ??1?$RefPtr@$$CBVPixbuf@Gdk@@@Glib@@QEAA@XZ
    ??$create_array@U?$TypeTraits@Vustring@Glib@@@Container_Helpers@Glib@@@Container_Helpers@Glib@@YAPEAPEBDV?$_Vector_const_iterator@V?$_Vector_val@U?$_Simple_types@Vustring@Glib@@@std@@@std@@@std@@_K@Z
    ??D?$ArrayIterator@U?$TypeTraits@Vustring@Glib@@@Container_Helpers@Glib@@@Container_Helpers@Glib@@QEBA?AVustring@2@XZ
    ??$_Construct@V?$ArrayIterator@U?$TypeTraits@Vustring@Glib@@@Container_Helpers@Glib@@@Container_Helpers@Glib@@@?$vector@Vustring@Glib@@V?$allocator@Vustring@Glib@@@std@@@std@@QEAAXV?$ArrayIterator@U?$TypeTraits@Vustring@Glib@@@Container_Helpers@Glib@@@Container_Helpers@Glib@@0Uforward_iterator_tag@1@@Z
    ??$_Uninit_copy@V?$ArrayIterator@U?$TypeTraits@Vustring@Glib@@@Container_Helpers@Glib@@@Container_Helpers@Glib@@PEAVustring@3@V?$allocator@Vustring@Glib@@@std@@@std@@YAPEAVustring@Glib@@V?$ArrayIterator@U?$TypeTraits@Vustring@Glib@@@Container_Helpers@Glib@@@Container_Helpers@2@0PEAV12@AEAU?$_Wrap_alloc@V?$allocator@Vustring@Glib@@@std@@@0@U_Nonscalar_ptr_iterator_tag@0@@Z
    ?destroy_notify_@Object@Gtk@@$2PPPPPPPM@BA@EAAXXZ
    ?set_manage@Window@Gtk@@$4PPPPPPPM@A@EAAXXZ
    ??_7AboutDialog@Gtk@@6BWidget@1@@
    ??_7AboutDialog@Gtk@@6BObject@1@@
    ??_8AboutDialog@Gtk@@7BObject@Glib@@@
    ??_8AboutDialog@Gtk@@7BInterface@Glib@@@
    ??_8AboutDialog@Gtk@@7BObjectBase@Glib@@@
    ??_R0?AVObjectBase@Glib@@@8
    ??_R0?AVAboutDialog@Gtk@@@8
    ??_C@_0N@BMEDEJAF@program?9name?$AA@
    ??_C@_07CPCPJPKL@version?$AA@
    ??_C@_09JHBDCMB@copyright?$AA@
    ??_C@_08PGBJEHDC@comments?$AA@
    ??_C@_07BDNEAIPE@website?$AA@
    ??_C@_0O@GKFAPIEB@website?9label?$AA@
    ??_C@_07EJMBNAEG@license?$AA@
    ??_C@_0N@KNBNFEAI@license?9type?$AA@
    ??_C@_07DBBPHNDK@authors?$AA@
    ??_C@_0M@BPOFFKMH@documenters?$AA@
    ??_C@_0BD@JCLPLMMO@translator?9credits?$AA@
    ??_C@_07NHJKPOJB@artists?$AA@
    ??_C@_04KJKHNPDG@logo?$AA@
    ??_C@_0P@ENJBFJCI@logo?9icon?9name?$AA@
    ??_C@_0N@DIMMIFIO@wrap?9license?$AA@
    ??_C@_0BI@CFPLBAOH@invalid?5string?5position?$AA@
    ??_C@_0BA@JFNIOLAK@string?5too?5long?$AA@
    ??_C@_0BD@OLBABOEK@vector?$DMT?$DO?5too?5long?$AA@
    ??_R4AboutDialog@Gtk@@6BWidget@1@@
    ??_R3AboutDialog@Gtk@@8
    ??_R2AboutDialog@Gtk@@8
    ??_R1A@?0A@EA@AboutDialog@Gtk@@8
    ??_R1A@?0A@EA@Dialog@Gtk@@8
    ??_R0?AVDialog@Gtk@@@8
    ??_R3Dialog@Gtk@@8
    ??_R2Dialog@Gtk@@8
    ??_R1A@?0A@EA@Window@Gtk@@8
    ??_R0?AVWindow@Gtk@@@8
    ??_R3Window@Gtk@@8
    ??_R2Window@Gtk@@8
    ??_R1A@?0A@EA@Bin@Gtk@@8
    ??_R0?AVBin@Gtk@@@8
    ??_R3Bin@Gtk@@8
    ??_R2Bin@Gtk@@8
    ??_R1A@?0A@EA@Container@Gtk@@8
    ??_R0?AVContainer@Gtk@@@8
    ??_R3Container@Gtk@@8
    ??_R2Container@Gtk@@8
    ??_R1A@?0A@EA@Widget@Gtk@@8
    ??_R0?AVWidget@Gtk@@@8
    ??_R3Widget@Gtk@@8
    ??_R2Widget@Gtk@@8
    ??_R17?0A@EA@Object@Gtk@@8
    ??_R0?AVObject@Gtk@@@8
    ??_R3Object@Gtk@@8
    ??_R2Object@Gtk@@8
    ??_R1A@?0A@EA@Object@Gtk@@8
    ??_R1A@?0A@EA@Object@Glib@@8
    ??_R0?AVObject@Glib@@@8
    ??_R3Object@Glib@@8
    ??_R2Object@Glib@@8
    ??_R1A@A@7FA@ObjectBase@Glib@@8
    ??_R3ObjectBase@Glib@@8
    ??_R2ObjectBase@Glib@@8
    ??_R1A@?0A@EA@ObjectBase@Glib@@8
    ??_R1A@73FA@trackable@sigc@@8
    ??_R0?AUtrackable@sigc@@@8
    ??_R3trackable@sigc@@8
    ??_R2trackable@sigc@@8
    ??_R1A@?0A@EA@trackable@sigc@@8
    ??_R1A@A@3FA@trackable@sigc@@8
    ??_R17?0A@EA@Object@Glib@@8
    ??_R1A@77FA@ObjectBase@Glib@@8
    ??_R1BI@?0A@EA@Buildable@Gtk@@8
    ??_R0?AVBuildable@Gtk@@@8
    ??_R3Buildable@Gtk@@8
    ??_R2Buildable@Gtk@@8
    ??_R1A@?0A@EA@Buildable@Gtk@@8
    ??_R1A@?0A@EA@Interface@Glib@@8
    ??_R0?AVInterface@Glib@@@8
    ??_R3Interface@Glib@@8
    ??_R2Interface@Glib@@8
    ??_R1BI@?0A@EA@Interface@Glib@@8
    ??_R4AboutDialog@Gtk@@6BObject@1@@
    ??_C@_0P@KOJGPOCB@accel_activate?$AA@
    ??_C@_0O@HODLGIPH@accel_changed?$AA@
    ?accelgroup_class_@AccelGroup@Gtk@@0VAccelGroup_Class@2@A
    ?__empty_global_delete@@YAXPEAX@Z
    ?__empty_global_delete@@YAXPEAX_K@Z
    ?convert_return_gchar_ptr_to_ustring@Glib@@YA?AVustring@1@PEAD@Z
    ??1?$ScopedPtr@D@Glib@@QEAA@XZ
    ??0AccelGroup@Gtk@@IEAA@AEBVConstructParams@Glib@@@Z
    ??0AccelGroup@Gtk@@IEAA@PEAU_GtkAccelGroup@@@Z
    ??1AccelGroup@Gtk@@UEAA@XZ
    ?get_type@AccelGroup@Gtk@@SA_KXZ
    ?get_base_type@AccelGroup@Gtk@@SA_KXZ
    ?gobj_copy@AccelGroup@Gtk@@QEAAPEAU_GtkAccelGroup@@XZ
    ??0AccelGroup@Gtk@@IEAA@XZ
    ?create@AccelGroup@Gtk@@SA?AV?$RefPtr@VAccelGroup@Gtk@@@Glib@@XZ
    ?get_is_locked@AccelGroup@Gtk@@QEBA_NXZ
    ?get_modifier_mask@AccelGroup@Gtk@@QEBA?AW4ModifierType@Gdk@@XZ
    ?lock@AccelGroup@Gtk@@QEAAXXZ
    ?unlock@AccelGroup@Gtk@@QEAAXXZ
    ?disconnect_key@AccelGroup@Gtk@@QEAA_NIW4ModifierType@Gdk@@@Z
    ?valid@AccelGroup@Gtk@@SA_NIW4ModifierType@Gdk@@@Z
    ?parse@AccelGroup@Gtk@@SAXAEBVustring@Glib@@AEAIAEAW4ModifierType@Gdk@@@Z
    ?name@AccelGroup@Gtk@@SA?AVustring@Glib@@IW4ModifierType@Gdk@@@Z
    ?get_label@AccelGroup@Gtk@@SA?AVustring@Glib@@IW4ModifierType@Gdk@@@Z
    ?set_default_mod_mask@AccelGroup@Gtk@@SAXW4ModifierType@Gdk@@@Z
    ?get_default_mod_mask@AccelGroup@Gtk@@SA?AW4ModifierType@Gdk@@XZ
    ?activate@AccelGroup@Gtk@@QEAA_NIAEBV?$RefPtr@VObject@Glib@@@Glib@@IW4ModifierType@Gdk@@@Z
    ?signal_accel_activate@AccelGroup@Gtk@@QEAA?AV?$SignalProxy3@_NAEBV?$RefPtr@VObject@Glib@@@Glib@@IW4ModifierType@Gdk@@@Glib@@XZ
    ?signal_accel_changed@AccelGroup@Gtk@@QEAA?AV?$SignalProxy3@XIW4ModifierType@Gdk@@PEAU_GClosure@@@Glib@@XZ
    ?property_is_locked@AccelGroup@Gtk@@QEBA?AV?$PropertyProxy_ReadOnly@_N@Glib@@XZ
    ?property_modifier_mask@AccelGroup@Gtk@@QEBA?AV?$PropertyProxy_ReadOnly@W4ModifierType@Gdk@@@Glib@@XZ
    ?wrap@Glib@@YA?AV?$RefPtr@VAccelGroup@Gtk@@@1@PEAU_GtkAccelGroup@@_N@Z
    ?init@AccelGroup_Class@Gtk@@QEAAAEBVClass@Glib@@XZ
    ?class_init_function@AccelGroup_Class@Gtk@@SAXPEAX0@Z
    ?wrap_new@AccelGroup_Class@Gtk@@SAPEAVObjectBase@Glib@@PEAU_GObject@@@Z
    ??1?$RefPtr@VObject@Glib@@@Glib@@QEAA@XZ
    ??_7AccelGroup@Gtk@@6B@
    ??_8AccelGroup@Gtk@@7BObject@Glib@@@
    ??_8AccelGroup@Gtk@@7BObjectBase@Glib@@@
    ??_R0?AVObjectBase@Glib@@@8
    ??_R0?AVAccelGroup@Gtk@@@8
    ??_C@_09FCFGHBEN@is?9locked?$AA@
    ??_C@_0O@HKFMPEOJ@modifier?9mask?$AA@
    ??_R4AccelGroup@Gtk@@6B@
    ??_R3AccelGroup@Gtk@@8
    ??_R2AccelGroup@Gtk@@8
    ??_R1A@?0A@EA@AccelGroup@Gtk@@8
    ??_R1A@?0A@EA@Object@Glib@@8
    ??_R0?AVObject@Glib@@@8
    ??_R3Object@Glib@@8
    ??_R2Object@Glib@@8
    ??_R1A@A@7FA@ObjectBase@Glib@@8
    ??_R3ObjectBase@Glib@@8
    ??_R2ObjectBase@Glib@@8
    ??_R1A@?0A@EA@ObjectBase@Glib@@8
    ??_R1A@73FA@trackable@sigc@@8
    ??_R0?AUtrackable@sigc@@@8
    ??_R3trackable@sigc@@8
    ??_R2trackable@sigc@@8
    ??_R1A@?0A@EA@trackable@sigc@@8
    ??_R1A@A@3FA@trackable@sigc@@8
    ?__empty_global_delete@@YAXPEAX@Z
    ?__empty_global_delete@@YAXPEAX_K@Z
    ??0AccelKey@Gtk@@QEAA@XZ
    ??0AccelKey@Gtk@@QEAA@IW4ModifierType@Gdk@@AEBVustring@Glib@@@Z
    ??0AccelKey@Gtk@@QEAA@AEBVustring@Glib@@0@Z
    ??0AccelKey@Gtk@@QEAA@AEBV01@@Z
    ??4AccelKey@Gtk@@QEAAAEAV01@AEBV01@@Z
    ?is_null@AccelKey@Gtk@@QEBA_NXZ
    ?get_key@AccelKey@Gtk@@QEBAIXZ
    ?get_mod@AccelKey@Gtk@@QEBA?AW4ModifierType@Gdk@@XZ
    ?get_path@AccelKey@Gtk@@QEBA?AVustring@Glib@@XZ
    ?get_abbrev@AccelKey@Gtk@@QEBA?AVustring@Glib@@XZ
    ?accellabel_class_@AccelLabel@Gtk@@0VAccelLabel_Class@2@A
    ?__empty_global_delete@@YAXPEAX@Z
    ?__empty_global_delete@@YAXPEAX_K@Z
    ??1AccelLabel@Gtk@@UEAA@XZ
    ??0AccelLabel@Gtk@@IEAA@AEBVConstructParams@Glib@@@Z
    ??0AccelLabel@Gtk@@IEAA@PEAU_GtkAccelLabel@@@Z
    ?get_type@AccelLabel@Gtk@@SA_KXZ
    ?get_base_type@AccelLabel@Gtk@@SA_KXZ
    ??0AccelLabel@Gtk@@QEAA@XZ
    ??0AccelLabel@Gtk@@QEAA@AEBVustring@Glib@@_N@Z
    ?set_accel_widget@AccelLabel@Gtk@@QEAAXAEBVWidget@2@@Z
    ?unset_accel_widget@AccelLabel@Gtk@@QEAAXXZ
    ?get_accel_widget@AccelLabel@Gtk@@QEAAPEAVWidget@2@XZ
    ?get_accel_widget@AccelLabel@Gtk@@QEBAPEBVWidget@2@XZ
    ?get_accel_width@AccelLabel@Gtk@@QEBAIXZ
    ?refetch@AccelLabel@Gtk@@QEAA_NXZ
    ?set_accel@AccelLabel@Gtk@@QEAAXIW4ModifierType@Gdk@@@Z
    ?property_accel_widget@AccelLabel@Gtk@@QEAA?AV?$PropertyProxy@PEAVWidget@Gtk@@@Glib@@XZ
    ?property_accel_widget@AccelLabel@Gtk@@QEBA?AV?$PropertyProxy_ReadOnly@PEAVWidget@Gtk@@@Glib@@XZ
    ??_DAccelLabel@Gtk@@QEAAXXZ
    ?wrap@Glib@@YAPEAVAccelLabel@Gtk@@PEAU_GtkAccelLabel@@_N@Z
    ?init@AccelLabel_Class@Gtk@@QEAAAEBVClass@Glib@@XZ
    ?class_init_function@AccelLabel_Class@Gtk@@SAXPEAX0@Z
    ?wrap_new@AccelLabel_Class@Gtk@@SAPEAVObjectBase@Glib@@PEAU_GObject@@@Z
    ??$manage@VAccelLabel@Gtk@@@Gtk@@YAPEAVAccelLabel@0@PEAV10@@Z
    ?destroy_notify_@Object@Gtk@@$2PPPPPPPM@7EAAXXZ
    ?set_manage@Object@Gtk@@$4PPPPPPPM@7EAAXXZ
    ??_7AccelLabel@Gtk@@6BWidget@1@@
    ??_7AccelLabel@Gtk@@6BObject@1@@
    ??_8AccelLabel@Gtk@@7BObject@Glib@@@
    ??_8AccelLabel@Gtk@@7BInterface@Glib@@@
    ??_8AccelLabel@Gtk@@7BObjectBase@Glib@@@
    ??_R0?AVObjectBase@Glib@@@8
    ??_R0?AVAccelLabel@Gtk@@@8
    ??_C@_0N@JDMGCFFN@accel?9widget?$AA@
    ??_R4AccelLabel@Gtk@@6BWidget@1@@
    ??_R3AccelLabel@Gtk@@8
    ??_R2AccelLabel@Gtk@@8
    ??_R1A@?0A@EA@AccelLabel@Gtk@@8
    ??_R1A@?0A@EA@Label@Gtk@@8
    ??_R0?AVLabel@Gtk@@@8
    ??_R3Label@Gtk@@8
    ??_R2Label@Gtk@@8
    ??_R1A@?0A@EA@Misc@Gtk@@8
    ??_R0?AVMisc@Gtk@@@8
    ??_R3Misc@Gtk@@8
    ??_R2Misc@Gtk@@8
    ??_R1A@?0A@EA@Widget@Gtk@@8
    ??_R0?AVWidget@Gtk@@@8
    ??_R3Widget@Gtk@@8
    ??_R2Widget@Gtk@@8
    ??_R17?0A@EA@Object@Gtk@@8
    ??_R0?AVObject@Gtk@@@8
    ??_R3Object@Gtk@@8
    ??_R2Object@Gtk@@8
    ??_R1A@?0A@EA@Object@Gtk@@8
    ??_R1A@?0A@EA@Object@Glib@@8
    ??_R0?AVObject@Glib@@@8
    ??_R3Object@Glib@@8
    ??_R2Object@Glib@@8
    ??_R1A@A@7FA@ObjectBase@Glib@@8
    ??_R3ObjectBase@Glib@@8
    ??_R2ObjectBase@Glib@@8
    ??_R1A@?0A@EA@ObjectBase@Glib@@8
    ??_R1A@73FA@trackable@sigc@@8
    ??_R0?AUtrackable@sigc@@@8
    ??_R3trackable@sigc@@8
    ??_R2trackable@sigc@@8
    ??_R1A@?0A@EA@trackable@sigc@@8
    ??_R1A@A@3FA@trackable@sigc@@8
    ??_R17?0A@EA@Object@Glib@@8
    ??_R1A@77FA@ObjectBase@Glib@@8
    ??_R1BI@?0A@EA@Buildable@Gtk@@8
    ??_R0?AVBuildable@Gtk@@@8
    ??_R3Buildable@Gtk@@8
    ??_R2Buildable@Gtk@@8
    ??_R1A@?0A@EA@Buildable@Gtk@@8
    ??_R1A@?0A@EA@Interface@Glib@@8
    ??_R0?AVInterface@Glib@@@8
    ??_R3Interface@Glib@@8
    ??_R2Interface@Glib@@8
    ??_R1BI@?0A@EA@Interface@Glib@@8
    ??_R4AccelLabel@Gtk@@6BObject@1@@
    ?__empty_global_delete@@YAXPEAX@Z
    ?__empty_global_delete@@YAXPEAX_K@Z
    ??1AccelKey@Gtk@@QEAA@XZ
    ?add_entry@AccelMap@Gtk@@YAXAEBV?$basic_string@DU?$char_traits@D@std@@V?$allocator@D@2@@std@@IW4ModifierType@Gdk@@@Z
    ?change_entry@AccelMap@Gtk@@YA_NAEBV?$basic_string@DU?$char_traits@D@std@@V?$allocator@D@2@@std@@IW4ModifierType@Gdk@@_N@Z
    ?load@AccelMap@Gtk@@YAXAEBV?$basic_string@DU?$char_traits@D@std@@V?$allocator@D@2@@std@@@Z
    ?save@AccelMap@Gtk@@YAXAEBV?$basic_string@DU?$char_traits@D@std@@V?$allocator@D@2@@std@@@Z
    ?lock_path@AccelMap@Gtk@@YAXAEBV?$basic_string@DU?$char_traits@D@std@@V?$allocator@D@2@@std@@@Z
    ?unlock_path@AccelMap@Gtk@@YAXAEBV?$basic_string@DU?$char_traits@D@std@@V?$allocator@D@2@@std@@@Z
    ?lookup_entry@AccelMap@Gtk@@YA_NAEBVustring@Glib@@@Z
    ?lookup_entry@AccelMap@Gtk@@YA_NAEBVustring@Glib@@AEAVAccelKey@2@@Z
    ??_C@_00CNPNBAHC@?$AA@
    ??_C@_08IFCMKJCD@activate?$AA@
    ?action_class_@Action@Gtk@@0VAction_Class@2@A
    ?__empty_global_delete@@YAXPEAX@Z
    ?__empty_global_delete@@YAXPEAX_K@Z
    ?convert_const_gchar_ptr_to_ustring@Glib@@YA?AVustring@1@PEBD@Z
    ??0Action@Gtk@@IEAA@AEBVConstructParams@Glib@@@Z
    ??0Action@Gtk@@IEAA@PEAU_GtkAction@@@Z
    ??1Action@Gtk@@UEAA@XZ
    ?get_type@Action@Gtk@@SA_KXZ
    ?get_base_type@Action@Gtk@@SA_KXZ
    ?gobj_copy@Action@Gtk@@QEAAPEAU_GtkAction@@XZ
    ??0Action@Gtk@@IEAA@XZ
    ??0Action@Gtk@@IEAA@AEBVustring@Glib@@AEBVStockID@1@00@Z
    ??0Action@Gtk@@IEAA@AEBVustring@Glib@@000@Z
    ?create@Action@Gtk@@SA?AV?$RefPtr@VAction@Gtk@@@Glib@@XZ
    ?create@Action@Gtk@@SA?AV?$RefPtr@VAction@Gtk@@@Glib@@AEBVustring@4@00@Z
    ?create@Action@Gtk@@SA?AV?$RefPtr@VAction@Gtk@@@Glib@@AEBVustring@4@AEBVStockID@2@00@Z
    ?create_with_icon_name@Action@Gtk@@SA?AV?$RefPtr@VAction@Gtk@@@Glib@@AEBVustring@4@000@Z
    ?get_name@Action@Gtk@@QEBA?AVustring@Glib@@XZ
    ?is_sensitive@Action@Gtk@@QEBA_NXZ
    ?get_sensitive@Action@Gtk@@QEBA_NXZ
    ?set_sensitive@Action@Gtk@@QEAAX_N@Z
    ?is_visible@Action@Gtk@@QEBA_NXZ
    ?get_visible@Action@Gtk@@QEBA_NXZ
    ?set_visible@Action@Gtk@@QEAAX_N@Z
    ?activate@Action@Gtk@@QEAAXXZ
    ?create_icon@Action@Gtk@@QEAAPEAVImage@2@VIconSize@2@@Z
    ?create_menu_item@Action@Gtk@@QEAAPEAVMenuItem@2@XZ
    ?create_tool_item@Action@Gtk@@QEAAPEAVToolItem@2@XZ
    ?create_menu@Action@Gtk@@QEAAPEAVMenu@2@XZ
    ?get_proxies@Action@Gtk@@QEAA?AV?$vector@PEAVWidget@Gtk@@V?$allocator@PEAVWidget@Gtk@@@std@@@std@@XZ
    ?get_proxies@Action@Gtk@@QEBA?AV?$vector@PEBVWidget@Gtk@@V?$allocator@PEBVWidget@Gtk@@@std@@@std@@XZ
    ?connect_accelerator@Action@Gtk@@QEAAXXZ
    ?disconnect_accelerator@Action@Gtk@@QEAAXXZ
    ?get_accel_path@Action@Gtk@@QEBA?AVustring@Glib@@XZ
    ?signal_activate@Action@Gtk@@QEAA?AV?$SignalProxy0@X@Glib@@XZ
    ?set_accel_path@Action@Gtk@@QEAAXAEBVustring@Glib@@@Z
    ?set_accel_group@Action@Gtk@@QEAAXAEBV?$RefPtr@VAccelGroup@Gtk@@@Glib@@@Z
    ?set_label@Action@Gtk@@QEAAXAEBVustring@Glib@@@Z
    ?get_label@Action@Gtk@@QEBA?AVustring@Glib@@XZ
    ?set_short_label@Action@Gtk@@QEAAXAEBVustring@Glib@@@Z
    ?get_short_label@Action@Gtk@@QEBA?AVustring@Glib@@XZ
    ?set_tooltip@Action@Gtk@@QEAAXAEBVustring@Glib@@@Z
    ?get_tooltip@Action@Gtk@@QEBA?AVustring@Glib@@XZ
    ?set_stock_id@Action@Gtk@@QEAAXAEBVStockID@2@@Z
    ?get_stock_id@Action@Gtk@@QEBA?AVStockID@2@XZ
    ?set_gicon@Action@Gtk@@QEAAXAEBV?$RefPtr@VIcon@Gio@@@Glib@@@Z
    ?get_gicon@Action@Gtk@@QEAA?AV?$RefPtr@VIcon@Gio@@@Glib@@XZ
    ?get_gicon@Action@Gtk@@QEBA?AV?$RefPtr@$$CBVIcon@Gio@@@Glib@@XZ
    ?set_icon_name@Action@Gtk@@QEAAXAEBVustring@Glib@@@Z
    ?get_icon_name@Action@Gtk@@QEBA?AVustring@Glib@@XZ
    ?set_visible_horizontal@Action@Gtk@@QEAAX_N@Z
    ?get_visible_horizontal@Action@Gtk@@QEBA_NXZ
    ?set_visible_vertical@Action@Gtk@@QEAAX_N@Z
    ?get_visible_vertical@Action@Gtk@@QEBA_NXZ
    ?set_is_important@Action@Gtk@@QEAAX_N@Z
    ?get_is_important@Action@Gtk@@QEBA_NXZ
    ?set_always_show_image@Action@Gtk@@QEAAX_N@Z
    ?get_always_show_image@Action@Gtk@@QEBA_NXZ
    ?block_activate@Action@Gtk@@QEAAXXZ
    ?unblock_activate@Action@Gtk@@QEAAXXZ
    ?property_name@Action@Gtk@@QEBA?AV?$PropertyProxy_ReadOnly@Vustring@Glib@@@Glib@@XZ
    ?property_label@Action@Gtk@@QEAA?AV?$PropertyProxy@Vustring@Glib@@@Glib@@XZ
    ?property_label@Action@Gtk@@QEBA?AV?$PropertyProxy_ReadOnly@Vustring@Glib@@@Glib@@XZ
    ?property_short_label@Action@Gtk@@QEAA?AV?$PropertyProxy@Vustring@Glib@@@Glib@@XZ
    ?property_short_label@Action@Gtk@@QEBA?AV?$PropertyProxy_ReadOnly@Vustring@Glib@@@Glib@@XZ
    ?property_tooltip@Action@Gtk@@QEAA?AV?$PropertyProxy@Vustring@Glib@@@Glib@@XZ
    ?property_tooltip@Action@Gtk@@QEBA?AV?$PropertyProxy_ReadOnly@Vustring@Glib@@@Glib@@XZ
    ?property_stock_id@Action@Gtk@@QEAA?AV?$PropertyProxy@VStockID@Gtk@@@Glib@@XZ
    ?property_stock_id@Action@Gtk@@QEBA?AV?$PropertyProxy_ReadOnly@VStockID@Gtk@@@Glib@@XZ
    ?property_gicon@Action@Gtk@@QEAA?AV?$PropertyProxy@V?$RefPtr@VIcon@Gio@@@Glib@@@Glib@@XZ
    ?property_gicon@Action@Gtk@@QEBA?AV?$PropertyProxy_ReadOnly@V?$RefPtr@VIcon@Gio@@@Glib@@@Glib@@XZ
    ?property_icon_name@Action@Gtk@@QEAA?AV?$PropertyProxy@Vustring@Glib@@@Glib@@XZ
    ?property_icon_name@Action@Gtk@@QEBA?AV?$PropertyProxy_ReadOnly@Vustring@Glib@@@Glib@@XZ
    ?property_visible_horizontal@Action@Gtk@@QEAA?AV?$PropertyProxy@_N@Glib@@XZ
    ?property_visible_horizontal@Action@Gtk@@QEBA?AV?$PropertyProxy_ReadOnly@_N@Glib@@XZ
    ?property_visible_vertical@Action@Gtk@@QEAA?AV?$PropertyProxy@_N@Glib@@XZ
    ?property_visible_vertical@Action@Gtk@@QEBA?AV?$PropertyProxy_ReadOnly@_N@Glib@@XZ
    ?property_visible_overflown@Action@Gtk@@QEAA?AV?$PropertyProxy@_N@Glib@@XZ
    ?property_visible_overflown@Action@Gtk@@QEBA?AV?$PropertyProxy_ReadOnly@_N@Glib@@XZ
    ?property_is_important@Action@Gtk@@QEAA?AV?$PropertyProxy@_N@Glib@@XZ
    ?property_is_important@Action@Gtk@@QEBA?AV?$PropertyProxy_ReadOnly@_N@Glib@@XZ
    ?property_hide_if_empty@Action@Gtk@@QEAA?AV?$PropertyProxy@_N@Glib@@XZ
    ?property_hide_if_empty@Action@Gtk@@QEBA?AV?$PropertyProxy_ReadOnly@_N@Glib@@XZ
    ?property_sensitive@Action@Gtk@@QEAA?AV?$PropertyProxy@_N@Glib@@XZ
    ?property_sensitive@Action@Gtk@@QEBA?AV?$PropertyProxy_ReadOnly@_N@Glib@@XZ
    ?property_visible@Action@Gtk@@QEAA?AV?$PropertyProxy@_N@Glib@@XZ
    ?property_visible@Action@Gtk@@QEBA?AV?$PropertyProxy_ReadOnly@_N@Glib@@XZ
    ?property_action_group@Action@Gtk@@QEAA?AV?$PropertyProxy@V?$RefPtr@VActionGroup@Gtk@@@Glib@@@Glib@@XZ
    ?property_action_group@Action@Gtk@@QEBA?AV?$PropertyProxy_ReadOnly@V?$RefPtr@VActionGroup@Gtk@@@Glib@@@Glib@@XZ
    ?property_always_show_image@Action@Gtk@@QEAA?AV?$PropertyProxy@_N@Glib@@XZ
    ?property_always_show_image@Action@Gtk@@QEBA?AV?$PropertyProxy_ReadOnly@_N@Glib@@XZ
    ?create_menu_item_vfunc@Action@Gtk@@MEAAPEAVWidget@2@XZ
    ?create_tool_item_vfunc@Action@Gtk@@MEAAPEAVWidget@2@XZ
    ?connect_proxy_vfunc@Action@Gtk@@MEAAXPEAVWidget@2@@Z
    ?disconnect_proxy_vfunc@Action@Gtk@@MEAAXPEAVWidget@2@@Z
    ?on_activate@Action@Gtk@@MEAAXXZ
    ?wrap@Glib@@YA?AV?$RefPtr@VAction@Gtk@@@1@PEAU_GtkAction@@_N@Z
    ?init@Action_Class@Gtk@@QEAAAEBVClass@Glib@@XZ
    ?class_init_function@Action_Class@Gtk@@SAXPEAX0@Z
    ?wrap_new@Action_Class@Gtk@@SAPEAVObjectBase@Glib@@PEAU_GObject@@@Z
    ?activate_callback@Action_Class@Gtk@@KAXPEAU_GtkAction@@@Z
    ?create_menu_item_vfunc_callback@Action_Class@Gtk@@KAPEAU_GtkWidget@@PEAU_GtkAction@@@Z
    ?create_tool_item_vfunc_callback@Action_Class@Gtk@@KAPEAU_GtkWidget@@PEAU_GtkAction@@@Z
    ?connect_proxy_vfunc_callback@Action_Class@Gtk@@KAXPEAU_GtkAction@@PEAU_GtkWidget@@@Z
    ?disconnect_proxy_vfunc_callback@Action_Class@Gtk@@KAXPEAU_GtkAction@@PEAU_GtkWidget@@@Z
    ?allocate@?$allocator@PEAVWidget@Gtk@@@std@@QEAAPEAPEAVWidget@Gtk@@_K@Z
    ?slist_to_vector@?$SListHandler@PEAVWidget@Gtk@@U?$TypeTraits@PEAVWidget@Gtk@@@Container_Helpers@Glib@@@Glib@@SA?AV?$vector@PEAVWidget@Gtk@@V?$allocator@PEAVWidget@Gtk@@@std@@@std@@PEAU_GSList@@W4OwnershipType@2@@Z
    ?allocate@?$allocator@PEBVWidget@Gtk@@@std@@QEAAPEAPEBVWidget@Gtk@@_K@Z
    ?slist_to_vector@?$SListHandler@PEBVWidget@Gtk@@U?$TypeTraits@PEBVWidget@Gtk@@@Container_Helpers@Glib@@@Glib@@SA?AV?$vector@PEBVWidget@Gtk@@V?$allocator@PEBVWidget@Gtk@@@std@@@std@@PEAU_GSList@@W4OwnershipType@2@@Z
    ??1?$RefPtr@VIcon@Gio@@@Glib@@QEAA@XZ
    ??1?$RefPtr@$$CBVIcon@Gio@@@Glib@@QEAA@XZ
    ??$_Deallocate@PEBVWidget@Gtk@@@std@@YAXPEAPEBVWidget@Gtk@@_K@Z
    ??$_Deallocate@PEAVWidget@Gtk@@@std@@YAXPEAPEAVWidget@Gtk@@_K@Z
    ??1?$GSListKeeper@U?$TypeTraits@PEAVWidget@Gtk@@@Container_Helpers@Glib@@@Container_Helpers@Glib@@QEAA@XZ
    ??1?$GSListKeeper@U?$TypeTraits@PEBVWidget@Gtk@@@Container_Helpers@Glib@@@Container_Helpers@Glib@@QEAA@XZ
    ??$_Construct@V?$SListIterator@U?$TypeTraits@PEAVWidget@Gtk@@@Container_Helpers@Glib@@@Container_Helpers@Glib@@@?$vector@PEAVWidget@Gtk@@V?$allocator@PEAVWidget@Gtk@@@std@@@std@@QEAAXV?$SListIterator@U?$TypeTraits@PEAVWidget@Gtk@@@Container_Helpers@Glib@@@Container_Helpers@Glib@@0Uforward_iterator_tag@1@@Z
    ??$_Construct@V?$SListIterator@U?$TypeTraits@PEBVWidget@Gtk@@@Container_Helpers@Glib@@@Container_Helpers@Glib@@@?$vector@PEBVWidget@Gtk@@V?$allocator@PEBVWidget@Gtk@@@std@@@std@@QEAAXV?$SListIterator@U?$TypeTraits@PEBVWidget@Gtk@@@Container_Helpers@Glib@@@Container_Helpers@Glib@@0Uforward_iterator_tag@1@@Z
    ??$_Uninit_copy@V?$SListIterator@U?$TypeTraits@PEAVWidget@Gtk@@@Container_Helpers@Glib@@@Container_Helpers@Glib@@PEAPEAVWidget@Gtk@@V?$allocator@PEAVWidget@Gtk@@@std@@@std@@YAPEAPEAVWidget@Gtk@@V?$SListIterator@U?$TypeTraits@PEAVWidget@Gtk@@@Container_Helpers@Glib@@@Container_Helpers@Glib@@0PEAPEAV12@AEAU?$_Wrap_alloc@V?$allocator@PEAVWidget@Gtk@@@std@@@0@U_Nonscalar_ptr_iterator_tag@0@@Z
    ??$_Uninit_copy@V?$SListIterator@U?$TypeTraits@PEBVWidget@Gtk@@@Container_Helpers@Glib@@@Container_Helpers@Glib@@PEAPEBVWidget@Gtk@@V?$allocator@PEBVWidget@Gtk@@@std@@@std@@YAPEAPEBVWidget@Gtk@@V?$SListIterator@U?$TypeTraits@PEBVWidget@Gtk@@@Container_Helpers@Glib@@@Container_Helpers@Glib@@0PEAPEBV12@AEAU?$_Wrap_alloc@V?$allocator@PEBVWidget@Gtk@@@std@@@0@U_Nonscalar_ptr_iterator_tag@0@@Z
    ??_7Action@Gtk@@6B01@@
    ??_7Action@Gtk@@6BObject@Glib@@@
    ??_8Action@Gtk@@7BObject@Glib@@@
    ??_8Action@Gtk@@7BInterface@Glib@@@
    ??_8Action@Gtk@@7BObjectBase@Glib@@@
    ??_C@_07OGDNBKKB@tooltip?$AA@
    ??_C@_05IDCCNNGI@label?$AA@
    ??_C@_08DAEHMNHH@stock_id?$AA@
    ??_C@_04MEMAJGDJ@name?$AA@
    ??_C@_09IGOOKEAE@icon_name?$AA@
    ??_R0?AVObjectBase@Glib@@@8
    ??_R0?AVAction@Gtk@@@8
    ??_C@_0M@IIDPONEF@short?9label?$AA@
    ??_C@_08PBHBKFGA@stock?9id?$AA@
    ??_C@_05FOIIOGFL@gicon?$AA@
    ??_C@_09MAAEAIMO@icon?9name?$AA@
    ??_C@_0BD@PNFJDCHJ@visible?9horizontal?$AA@
    ??_C@_0BB@DBMNJKGC@visible?9vertical?$AA@
    ??_C@_0BC@IAABEMPP@visible?9overflown?$AA@
    ??_C@_0N@PGHJDMLB@is?9important?$AA@
    ??_C@_0O@BPFNGLNJ@hide?9if?9empty?$AA@
    ??_C@_09CCGPDONC@sensitive?$AA@
    ??_C@_07DPDAEJMK@visible?$AA@
    ??_C@_0N@HPFJBGGA@action?9group?$AA@
    ??_C@_0BC@NMEHODPL@always?9show?9image?$AA@
    ??_C@_0BD@OLBABOEK@vector?$DMT?$DO?5too?5long?$AA@
    ??_R0?AVWidget@Gtk@@@8
    ??_R4Action@Gtk@@6B01@@
    ??_R3Action@Gtk@@8
    ??_R2Action@Gtk@@8
    ??_R1A@?0A@EA@Action@Gtk@@8
    ??_R17?0A@EA@Object@Glib@@8
    ??_R0?AVObject@Glib@@@8
    ??_R3Object@Glib@@8
    ??_R2Object@Glib@@8
    ??_R1A@?0A@EA@Object@Glib@@8
    ??_R1A@A@7FA@ObjectBase@Glib@@8
    ??_R3ObjectBase@Glib@@8
    ??_R2ObjectBase@Glib@@8
    ??_R1A@?0A@EA@ObjectBase@Glib@@8
    ??_R1A@73FA@trackable@sigc@@8
    ??_R0?AUtrackable@sigc@@@8
    ??_R3trackable@sigc@@8
    ??_R2trackable@sigc@@8
    ??_R1A@?0A@EA@trackable@sigc@@8
    ??_R1A@A@3FA@trackable@sigc@@8
    ??_R1A@77FA@ObjectBase@Glib@@8
    ??_R1BA@?0A@EA@Buildable@Gtk@@8
    ??_R0?AVBuildable@Gtk@@@8
    ??_R3Buildable@Gtk@@8
    ??_R2Buildable@Gtk@@8
    ??_R1A@?0A@EA@Buildable@Gtk@@8
    ??_R1A@?0A@EA@Interface@Glib@@8
    ??_R0?AVInterface@Glib@@@8
    ??_R3Interface@Glib@@8
    ??_R2Interface@Glib@@8
    ??_R1BA@?0A@EA@Interface@Glib@@8
    ??_R4Action@Gtk@@6BObject@Glib@@@
    ?actionable_class_@Actionable@Gtk@@0VActionable_Class@2@A
    ?__empty_global_delete@@YAXPEAX@Z
    ?__empty_global_delete@@YAXPEAX_K@Z
    ?convert_const_gchar_ptr_to_ustring@Glib@@YA?AVustring@1@PEBD@Z
    ??0Actionable@Gtk@@IEAA@XZ
    ??0Actionable@Gtk@@IEAA@AEBVInterface_Class@Glib@@@Z
    ??0Actionable@Gtk@@QEAA@PEAU_GtkActionable@@@Z
    ??1Actionable@Gtk@@UEAA@XZ
    ?add_interface@Actionable@Gtk@@SAX_K@Z
    ?get_type@Actionable@Gtk@@SA_KXZ
    ?get_base_type@Actionable@Gtk@@SA_KXZ
    ?get_action_name@Actionable@Gtk@@QEBA?AVustring@Glib@@XZ
    ?set_action_name@Actionable@Gtk@@QEAAXAEBVustring@Glib@@@Z
    ?get_action_target_value@Actionable@Gtk@@QEAA?AVVariantBase@Glib@@XZ
    ?get_action_target_value@Actionable@Gtk@@QEBA?BVVariantBase@Glib@@XZ
    ?set_action_target_value@Actionable@Gtk@@QEAAXAEBVVariantBase@Glib@@@Z
    ?set_detailed_action_name@Actionable@Gtk@@QEAAXAEBVustring@Glib@@@Z
    ?property_action_name@Actionable@Gtk@@QEAA?AV?$PropertyProxy@Vustring@Glib@@@Glib@@XZ
    ?property_action_name@Actionable@Gtk@@QEBA?AV?$PropertyProxy_ReadOnly@Vustring@Glib@@@Glib@@XZ
    ?property_action_target@Actionable@Gtk@@QEAA?AV?$PropertyProxy@VVariantBase@Glib@@@Glib@@XZ
    ?property_action_target@Actionable@Gtk@@QEBA?AV?$PropertyProxy_ReadOnly@VVariantBase@Glib@@@Glib@@XZ
    ?get_action_name_vfunc@Actionable@Gtk@@UEBA?AVustring@Glib@@XZ
    ?set_action_name_vfunc@Actionable@Gtk@@UEAAXAEBVustring@Glib@@@Z
    ?get_action_target_value_vfunc@Actionable@Gtk@@UEBA?AVVariantBase@Glib@@XZ
    ?set_action_target_value_vfunc@Actionable@Gtk@@UEAAXAEBVVariantBase@Glib@@@Z
    ?wrap@Glib@@YA?AV?$RefPtr@VActionable@Gtk@@@1@PEAU_GtkActionable@@_N@Z
    ?init@Actionable_Class@Gtk@@QEAAAEBVInterface_Class@Glib@@XZ
    ?iface_init_function@Actionable_Class@Gtk@@SAXPEAX0@Z
    ?wrap_new@Actionable_Class@Gtk@@SAPEAVObjectBase@Glib@@PEAU_GObject@@@Z
    ?get_action_name_vfunc_callback@Actionable_Class@Gtk@@KAPEBDPEAU_GtkActionable@@@Z
    ?set_action_name_vfunc_callback@Actionable_Class@Gtk@@KAXPEAU_GtkActionable@@PEBD@Z
    ?get_action_target_value_vfunc_callback@Actionable_Class@Gtk@@KAPEAU_GVariant@@PEAU_GtkActionable@@@Z
    ?set_action_target_value_vfunc_callback@Actionable_Class@Gtk@@KAXPEAU_GtkActionable@@PEAU_GVariant@@@Z
    ??$wrap_auto_interface@VActionable@Gtk@@@Glib@@YAPEAVActionable@Gtk@@PEAU_GObject@@_N@Z
    ??_7Actionable@Gtk@@6B01@@
    ??_7Actionable@Gtk@@6BInterface@Glib@@@
    ??_8Actionable@Gtk@@7BInterface@Glib@@@
    ??_8Actionable@Gtk@@7BObjectBase@Glib@@@
    ??_C@_0L@IGFGCBFO@klass?5?$CB?$DN?50?$AA@
    ??_C@_0CL@PABLBGEP@Gtk?3?3Actionable_Class?3?3iface_ini@
    ??_C@_0BL@PMHLJLDA@?4?4?2gtk?2gtkmm?2actionable?4cc?$AA@
    ??_R0?AVObjectBase@Glib@@@8
    ??_R0?AVActionable@Gtk@@@8
    ??_C@_0M@GFOEPGEP@action?9name?$AA@
    ??_C@_0O@KNGHNPGG@action?9target?$AA@
    ??_C@_0FM@MEPOJGMK@Glib?3?3wrap_auto_interface?$CI?$CJ?3?5The@
    ??_R4Actionable@Gtk@@6B01@@
    ??_R3Actionable@Gtk@@8
    ??_R2Actionable@Gtk@@8
    ??_R1A@?0A@EA@Actionable@Gtk@@8
    ??_R17?0A@EA@Interface@Glib@@8
    ??_R0?AVInterface@Glib@@@8
    ??_R3Interface@Glib@@8
    ??_R2Interface@Glib@@8
    ??_R1A@?0A@EA@Interface@Glib@@8
    ??_R1A@A@7FA@ObjectBase@Glib@@8
    ??_R3ObjectBase@Glib@@8
    ??_R2ObjectBase@Glib@@8
    ??_R1A@?0A@EA@ObjectBase@Glib@@8
    ??_R1A@73FA@trackable@sigc@@8
    ??_R0?AUtrackable@sigc@@@8
    ??_R3trackable@sigc@@8
    ??_R2trackable@sigc@@8
    ??_R1A@?0A@EA@trackable@sigc@@8
    ??_R1A@A@3FA@trackable@sigc@@8
    ??_R1A@77FA@ObjectBase@Glib@@8
    ??_R4Actionable@Gtk@@6BInterface@Glib@@@
    ?actionbar_class_@ActionBar@Gtk@@0VActionBar_Class@2@A
    ?__empty_global_delete@@YAXPEAX@Z
    ?__empty_global_delete@@YAXPEAX_K@Z
    ??1ActionBar@Gtk@@UEAA@XZ
    ??0ActionBar@Gtk@@IEAA@AEBVConstructParams@Glib@@@Z
    ??0ActionBar@Gtk@@IEAA@PEAU_GtkActionBar@@@Z
    ?get_type@ActionBar@Gtk@@SA_KXZ
    ?get_base_type@ActionBar@Gtk@@SA_KXZ
    ??0ActionBar@Gtk@@QEAA@XZ
    ?pack_start@ActionBar@Gtk@@QEAAXAEAVWidget@2@@Z
    ?pack_end@ActionBar@Gtk@@QEAAXAEAVWidget@2@@Z
    ?get_center_widget@ActionBar@Gtk@@QEAAPEAVWidget@2@XZ
    ?get_center_widget@ActionBar@Gtk@@QEBAPEBVWidget@2@XZ
    ?set_center_widget@ActionBar@Gtk@@QEAAXAEAVWidget@2@@Z
    ?unset_center_widget@ActionBar@Gtk@@QEAAXXZ
    ??_DActionBar@Gtk@@QEAAXXZ
    ?wrap@Glib@@YAPEAVActionBar@Gtk@@PEAU_GtkActionBar@@_N@Z
    ?init@ActionBar_Class@Gtk@@QEAAAEBVClass@Glib@@XZ
    ?class_init_function@ActionBar_Class@Gtk@@SAXPEAX0@Z
    ?wrap_new@ActionBar_Class@Gtk@@SAPEAVObjectBase@Glib@@PEAU_GObject@@@Z
    ??$manage@VActionBar@Gtk@@@Gtk@@YAPEAVActionBar@0@PEAV10@@Z
    ?destroy_notify_@Object@Gtk@@$2PPPPPPPM@7EAAXXZ
    ?set_manage@Object@Gtk@@$4PPPPPPPM@7EAAXXZ
    ??_7ActionBar@Gtk@@6BWidget@1@@
    ??_7ActionBar@Gtk@@6BObject@1@@
    ??_8ActionBar@Gtk@@7BObject@Glib@@@
    ??_8ActionBar@Gtk@@7BInterface@Glib@@@
    ??_8ActionBar@Gtk@@7BObjectBase@Glib@@@
    ??_R0?AVObjectBase@Glib@@@8
    ??_R0?AVActionBar@Gtk@@@8
    ??_R4ActionBar@Gtk@@6BWidget@1@@
    ??_R3ActionBar@Gtk@@8
    ??_R2ActionBar@Gtk@@8
    ??_R1A@?0A@EA@ActionBar@Gtk@@8
    ??_R1A@?0A@EA@Bin@Gtk@@8
    ??_R0?AVBin@Gtk@@@8
    ??_R3Bin@Gtk@@8
    ??_R2Bin@Gtk@@8
    ??_R1A@?0A@EA@Container@Gtk@@8
    ??_R0?AVContainer@Gtk@@@8
    ??_R3Container@Gtk@@8
    ??_R2Container@Gtk@@8
    ??_R1A@?0A@EA@Widget@Gtk@@8
    ??_R0?AVWidget@Gtk@@@8
    ??_R3Widget@Gtk@@8
    ??_R2Widget@Gtk@@8
    ??_R17?0A@EA@Object@Gtk@@8
    ??_R0?AVObject@Gtk@@@8
    ??_R3Object@Gtk@@8
    ??_R2Object@Gtk@@8
    ??_R1A@?0A@EA@Object@Gtk@@8
    ??_R1A@?0A@EA@Object@Glib@@8
    ??_R0?AVObject@Glib@@@8
    ??_R3Object@Glib@@8
    ??_R2Object@Glib@@8
    ??_R1A@A@7FA@ObjectBase@Glib@@8
    ??_R3ObjectBase@Glib@@8
    ??_R2ObjectBase@Glib@@8
    ??_R1A@?0A@EA@ObjectBase@Glib@@8
    ??_R1A@73FA@trackable@sigc@@8
    ??_R0?AUtrackable@sigc@@@8
    ??_R3trackable@sigc@@8
    ??_R2trackable@sigc@@8
    ??_R1A@?0A@EA@trackable@sigc@@8
    ??_R1A@A@3FA@trackable@sigc@@8
    ??_R17?0A@EA@Object@Glib@@8
    ??_R1A@77FA@ObjectBase@Glib@@8
    ??_R1BI@?0A@EA@Buildable@Gtk@@8
    ??_R0?AVBuildable@Gtk@@@8
    ??_R3Buildable@Gtk@@8
    ??_R2Buildable@Gtk@@8
    ??_R1A@?0A@EA@Buildable@Gtk@@8
    ??_R1A@?0A@EA@Interface@Glib@@8
    ??_R0?AVInterface@Glib@@@8
    ??_R3Interface@Glib@@8
    ??_R2Interface@Glib@@8
    ??_R1BI@?0A@EA@Interface@Glib@@8
    ??_R4ActionBar@Gtk@@6BObject@1@@
    ?actiongroup_class_@ActionGroup@Gtk@@0VActionGroup_Class@2@A
    ??_C@_0O@NEHHPHIE@connect_proxy?$AA@
    ??_C@_0BB@DPNFDMLD@disconnect_proxy?$AA@
    ??_C@_0N@HHEIHPFP@pre_activate?$AA@
    ??_C@_0O@CEECNHNE@post_activate?$AA@
    ?__empty_global_delete@@YAXPEAX@Z
    ?__empty_global_delete@@YAXPEAX_K@Z
    ?allocate@?$allocator@D@std@@QEAAPEAD_K@Z
    ?deallocate@?$_Wrap_alloc@V?$allocator@D@std@@@std@@QEAAXPEAD_K@Z
    ??1?$basic_string@DU?$char_traits@D@std@@V?$allocator@D@2@@std@@QEAA@XZ
    ?assign@?$basic_string@DU?$char_traits@D@std@@V?$allocator@D@2@@std@@QEAAAEAV12@AEBV12@_K1@Z
    ?erase@?$basic_string@DU?$char_traits@D@std@@V?$allocator@D@2@@std@@QEAAAEAV12@_K0@Z
    ?_Copy@?$basic_string@DU?$char_traits@D@std@@V?$allocator@D@2@@std@@QEAAX_K0@Z
    ??Bustring@Glib@@QEBA?AV?$basic_string@DU?$char_traits@D@std@@V?$allocator@D@2@@std@@XZ
    ??HGlib@@YA?AVustring@0@AEBV10@PEBD@Z
    ??HGlib@@YA?AVustring@0@PEBDAEBV10@@Z
    ??HGlib@@YA?AVustring@0@AEBV10@D@Z
    ?convert_const_gchar_ptr_to_ustring@Glib@@YA?AVustring@1@PEBD@Z
    ??0ActionGroup@Gtk@@IEAA@AEBVConstructParams@Glib@@@Z
    ??0ActionGroup@Gtk@@IEAA@PEAU_GtkActionGroup@@@Z
    ??1ActionGroup@Gtk@@UEAA@XZ
    ?get_type@ActionGroup@Gtk@@SA_KXZ
    ?get_base_type@ActionGroup@Gtk@@SA_KXZ
    ?gobj_copy@ActionGroup@Gtk@@QEAAPEAU_GtkActionGroup@@XZ
    ??0ActionGroup@Gtk@@IEAA@AEBVustring@Glib@@@Z
    ?create@ActionGroup@Gtk@@SA?AV?$RefPtr@VActionGroup@Gtk@@@Glib@@AEBVustring@4@@Z
    ?get_name@ActionGroup@Gtk@@QEBA?AVustring@Glib@@XZ
    ?get_sensitive@ActionGroup@Gtk@@QEBA_NXZ
    ?set_sensitive@ActionGroup@Gtk@@QEAAX_N@Z
    ?get_visible@ActionGroup@Gtk@@QEBA_NXZ
    ?set_visible@ActionGroup@Gtk@@QEAAX_N@Z
    ?get_accel_group@ActionGroup@Gtk@@QEAA?AV?$RefPtr@VAccelGroup@Gtk@@@Glib@@XZ
    ?get_accel_group@ActionGroup@Gtk@@QEBA?AV?$RefPtr@$$CBVAccelGroup@Gtk@@@Glib@@XZ
    ?set_accel_group@ActionGroup@Gtk@@QEAAXAEBV?$RefPtr@VAccelGroup@Gtk@@@Glib@@@Z
    ?get_action@ActionGroup@Gtk@@QEAA?AV?$RefPtr@VAction@Gtk@@@Glib@@AEBVustring@4@@Z
    ?get_action@ActionGroup@Gtk@@QEBA?AV?$RefPtr@$$CBVAction@Gtk@@@Glib@@AEBVustring@4@@Z
    ?get_actions@ActionGroup@Gtk@@QEAA?AV?$vector@V?$RefPtr@VAction@Gtk@@@Glib@@V?$allocator@V?$RefPtr@VAction@Gtk@@@Glib@@@std@@@std@@XZ
    ?get_actions@ActionGroup@Gtk@@QEBA?AV?$vector@V?$RefPtr@$$CBVAction@Gtk@@@Glib@@V?$allocator@V?$RefPtr@$$CBVAction@Gtk@@@Glib@@@std@@@std@@XZ
    ?add@ActionGroup@Gtk@@QEAAXAEBV?$RefPtr@VAction@Gtk@@@Glib@@@Z
    ?add@ActionGroup@Gtk@@QEAAXAEBV?$RefPtr@VAction@Gtk@@@Glib@@AEBVAccelKey@2@@Z
    ?add@ActionGroup@Gtk@@QEAAXAEBV?$RefPtr@VAction@Gtk@@@Glib@@AEBV?$slot@XUnil@sigc@@U12@U12@U12@U12@U12@U12@@sigc@@@Z
    ?add@ActionGroup@Gtk@@QEAAXAEBV?$RefPtr@VAction@Gtk@@@Glib@@AEBVAccelKey@2@AEBV?$slot@XUnil@sigc@@U12@U12@U12@U12@U12@U12@@sigc@@@Z
    ?remove@ActionGroup@Gtk@@QEAAXAEBV?$RefPtr@VAction@Gtk@@@Glib@@@Z
    ?translate_string@ActionGroup@Gtk@@QEBA?AVustring@Glib@@AEBV34@@Z
    ?signal_connect_proxy@ActionGroup@Gtk@@QEAA?AV?$SignalProxy2@XAEBV?$RefPtr@VAction@Gtk@@@Glib@@PEAVWidget@Gtk@@@Glib@@XZ
    ?signal_disconnect_proxy@ActionGroup@Gtk@@QEAA?AV?$SignalProxy2@XAEBV?$RefPtr@VAction@Gtk@@@Glib@@PEAVWidget@Gtk@@@Glib@@XZ
    ?signal_pre_activate@ActionGroup@Gtk@@QEAA?AV?$SignalProxy1@XAEBV?$RefPtr@VAction@Gtk@@@Glib@@@Glib@@XZ
    ?signal_post_activate@ActionGroup@Gtk@@QEAA?AV?$SignalProxy1@XAEBV?$RefPtr@VAction@Gtk@@@Glib@@@Glib@@XZ
    ?property_name@ActionGroup@Gtk@@QEBA?AV?$PropertyProxy_ReadOnly@Vustring@Glib@@@Glib@@XZ
    ?property_sensitive@ActionGroup@Gtk@@QEAA?AV?$PropertyProxy@_N@Glib@@XZ
    ?property_sensitive@ActionGroup@Gtk@@QEBA?AV?$PropertyProxy_ReadOnly@_N@Glib@@XZ
    ?property_visible@ActionGroup@Gtk@@QEAA?AV?$PropertyProxy@_N@Glib@@XZ
    ?property_visible@ActionGroup@Gtk@@QEBA?AV?$PropertyProxy_ReadOnly@_N@Glib@@XZ
    ?property_accel_group@ActionGroup@Gtk@@QEAA?AV?$PropertyProxy@V?$RefPtr@VAccelGroup@Gtk@@@Glib@@@Glib@@XZ
    ?property_accel_group@ActionGroup@Gtk@@QEBA?AV?$PropertyProxy_ReadOnly@V?$RefPtr@VAccelGroup@Gtk@@@Glib@@@Glib@@XZ
    ?wrap@Glib@@YA?AV?$RefPtr@VActionGroup@Gtk@@@1@PEAU_GtkActionGroup@@_N@Z
    ?init@ActionGroup_Class@Gtk@@QEAAAEBVClass@Glib@@XZ
    ?class_init_function@ActionGroup_Class@Gtk@@SAXPEAX0@Z
    ?wrap_new@ActionGroup_Class@Gtk@@SAPEAVObjectBase@Glib@@PEAU_GObject@@@Z
    ??1?$RefPtr@VAction@Gtk@@@Glib@@QEAA@XZ
    ??1?$RefPtr@$$CBVAction@Gtk@@@Glib@@QEAA@XZ
    ?connect@?$SignalProxy0@X@Glib@@QEAA?AUconnection@sigc@@AEBV?$slot@XUnil@sigc@@U12@U12@U12@U12@U12@U12@@4@_N@Z
    ??1?$SignalProxy0@X@Glib@@QEAA@XZ
    ??1?$RefPtr@VAccelGroup@Gtk@@@Glib@@QEAA@XZ
    ??1?$RefPtr@$$CBVAccelGroup@Gtk@@@Glib@@QEAA@XZ
    ?allocate@?$allocator@V?$RefPtr@VAction@Gtk@@@Glib@@@std@@QEAAPEAV?$RefPtr@VAction@Gtk@@@Glib@@_K@Z
    ?_Tidy@?$vector@V?$RefPtr@VAction@Gtk@@@Glib@@V?$allocator@V?$RefPtr@VAction@Gtk@@@Glib@@@std@@@std@@IEAAXXZ
    ?to_cpp_type@?$TypeTraits@V?$RefPtr@VAction@Gtk@@@Glib@@@Container_Helpers@Glib@@SA?AV?$RefPtr@VAction@Gtk@@@3@PEAU_GtkAction@@@Z
    ?list_to_vector@?$ListHandler@V?$RefPtr@VAction@Gtk@@@Glib@@U?$TypeTraits@V?$RefPtr@VAction@Gtk@@@Glib@@@Container_Helpers@2@@Glib@@SA?AV?$vector@V?$RefPtr@VAction@Gtk@@@Glib@@V?$allocator@V?$RefPtr@VAction@Gtk@@@Glib@@@std@@@std@@PEAU_GList@@W4OwnershipType@2@@Z
    ?allocate@?$allocator@V?$RefPtr@$$CBVAction@Gtk@@@Glib@@@std@@QEAAPEAV?$RefPtr@$$CBVAction@Gtk@@@Glib@@_K@Z
    ?_Tidy@?$vector@V?$RefPtr@$$CBVAction@Gtk@@@Glib@@V?$allocator@V?$RefPtr@$$CBVAction@Gtk@@@Glib@@@std@@@std@@IEAAXXZ
    ?to_cpp_type@?$TypeTraits@V?$RefPtr@$$CBVAction@Gtk@@@Glib@@@Container_Helpers@Glib@@SA?AV?$RefPtr@$$CBVAction@Gtk@@@3@PEBU_GtkAction@@@Z
    ?list_to_vector@?$ListHandler@V?$RefPtr@$$CBVAction@Gtk@@@Glib@@U?$TypeTraits@V?$RefPtr@$$CBVAction@Gtk@@@Glib@@@Container_Helpers@2@@Glib@@SA?AV?$vector@V?$RefPtr@$$CBVAction@Gtk@@@Glib@@V?$allocator@V?$RefPtr@$$CBVAction@Gtk@@@Glib@@@std@@@std@@PEAU_GList@@W4OwnershipType@2@@Z
    ??$_Deallocate@V?$RefPtr@$$CBVAction@Gtk@@@Glib@@@std@@YAXPEAV?$RefPtr@$$CBVAction@Gtk@@@Glib@@_K@Z
    ??$_Deallocate@V?$RefPtr@VAction@Gtk@@@Glib@@@std@@YAXPEAV?$RefPtr@VAction@Gtk@@@Glib@@_K@Z
    ??1?$GListKeeper@U?$TypeTraits@V?$RefPtr@VAction@Gtk@@@Glib@@@Container_Helpers@Glib@@@Container_Helpers@Glib@@QEAA@XZ
    ??D?$ListIterator@U?$TypeTraits@V?$RefPtr@VAction@Gtk@@@Glib@@@Container_Helpers@Glib@@@Container_Helpers@Glib@@QEBA?AV?$RefPtr@VAction@Gtk@@@2@XZ
    ??1?$GListKeeper@U?$TypeTraits@V?$RefPtr@$$CBVAction@Gtk@@@Glib@@@Container_Helpers@Glib@@@Container_Helpers@Glib@@QEAA@XZ
    ??D?$ListIterator@U?$TypeTraits@V?$RefPtr@$$CBVAction@Gtk@@@Glib@@@Container_Helpers@Glib@@@Container_Helpers@Glib@@QEBA?AV?$RefPtr@$$CBVAction@Gtk@@@2@XZ
    ??$destroy@V?$RefPtr@$$CBVAction@Gtk@@@Glib@@@?$_Wrap_alloc@V?$allocator@V?$RefPtr@$$CBVAction@Gtk@@@Glib@@@std@@@std@@QEAAXPEAV?$RefPtr@$$CBVAction@Gtk@@@Glib@@@Z
    ??$destroy@V?$RefPtr@VAction@Gtk@@@Glib@@@?$_Wrap_alloc@V?$allocator@V?$RefPtr@VAction@Gtk@@@Glib@@@std@@@std@@QEAAXPEAV?$RefPtr@VAction@Gtk@@@Glib@@@Z
    ??$_Construct@V?$ListIterator@U?$TypeTraits@V?$RefPtr@VAction@Gtk@@@Glib@@@Container_Helpers@Glib@@@Container_Helpers@Glib@@@?$vector@V?$RefPtr@VAction@Gtk@@@Glib@@V?$allocator@V?$RefPtr@VAction@Gtk@@@Glib@@@std@@@std@@QEAAXV?$ListIterator@U?$TypeTraits@V?$RefPtr@VAction@Gtk@@@Glib@@@Container_Helpers@Glib@@@Container_Helpers@Glib@@0Uforward_iterator_tag@1@@Z
    ??$_Construct@V?$ListIterator@U?$TypeTraits@V?$RefPtr@$$CBVAction@Gtk@@@Glib@@@Container_Helpers@Glib@@@Container_Helpers@Glib@@@?$vector@V?$RefPtr@$$CBVAction@Gtk@@@Glib@@V?$allocator@V?$RefPtr@$$CBVAction@Gtk@@@Glib@@@std@@@std@@QEAAXV?$ListIterator@U?$TypeTraits@V?$RefPtr@$$CBVAction@Gtk@@@Glib@@@Container_Helpers@Glib@@@Container_Helpers@Glib@@0Uforward_iterator_tag@1@@Z
    ??$_Uninit_copy@V?$ListIterator@U?$TypeTraits@V?$RefPtr@VAction@Gtk@@@Glib@@@Container_Helpers@Glib@@@Container_Helpers@Glib@@PEAV?$RefPtr@VAction@Gtk@@@3@V?$allocator@V?$RefPtr@VAction@Gtk@@@Glib@@@std@@@std@@YAPEAV?$RefPtr@VAction@Gtk@@@Glib@@V?$ListIterator@U?$TypeTraits@V?$RefPtr@VAction@Gtk@@@Glib@@@Container_Helpers@Glib@@@Container_Helpers@2@0PEAV12@AEAU?$_Wrap_alloc@V?$allocator@V?$RefPtr@VAction@Gtk@@@Glib@@@std@@@0@U_Nonscalar_ptr_iterator_tag@0@@Z
    ??$_Uninit_copy@V?$ListIterator@U?$TypeTraits@V?$RefPtr@$$CBVAction@Gtk@@@Glib@@@Container_Helpers@Glib@@@Container_Helpers@Glib@@PEAV?$RefPtr@$$CBVAction@Gtk@@@3@V?$allocator@V?$RefPtr@$$CBVAction@Gtk@@@Glib@@@std@@@std@@YAPEAV?$RefPtr@$$CBVAction@Gtk@@@Glib@@V?$ListIterator@U?$TypeTraits@V?$RefPtr@$$CBVAction@Gtk@@@Glib@@@Container_Helpers@Glib@@@Container_Helpers@2@0PEAV12@AEAU?$_Wrap_alloc@V?$allocator@V?$RefPtr@$$CBVAction@Gtk@@@Glib@@@std@@@0@U_Nonscalar_ptr_iterator_tag@0@@Z
    ??_7ActionGroup@Gtk@@6B@
    ??_8ActionGroup@Gtk@@7BObject@Glib@@@
    ??_8ActionGroup@Gtk@@7BInterface@Glib@@@
    ??_8ActionGroup@Gtk@@7BObjectBase@Glib@@@
    ??_C@_04MEMAJGDJ@name?$AA@
    ??_C@_0L@OGJFLEN@?$DMActions?$DO?1?$AA@
    ??_R0?AVObjectBase@Glib@@@8
    ??_R0?AVActionGroup@Gtk@@@8
    ??_C@_09CCGPDONC@sensitive?$AA@
    ??_C@_07DPDAEJMK@visible?$AA@
    ??_C@_0M@HDECMHKL@accel?9group?$AA@
    ??_C@_0BI@CFPLBAOH@invalid?5string?5position?$AA@
    ??_C@_0BA@JFNIOLAK@string?5too?5long?$AA@
    ??_C@_0BD@OLBABOEK@vector?$DMT?$DO?5too?5long?$AA@
    ??_R0?AVAction@Gtk@@@8
    ??_R4ActionGroup@Gtk@@6B@
    ??_R3ActionGroup@Gtk@@8
    ??_R2ActionGroup@Gtk@@8
    ??_R1A@?0A@EA@ActionGroup@Gtk@@8
    ??_R1A@?0A@EA@Object@Glib@@8
    ??_R0?AVObject@Glib@@@8
    ??_R3Object@Glib@@8
    ??_R2Object@Glib@@8
    ??_R1A@A@7FA@ObjectBase@Glib@@8
    ??_R3ObjectBase@Glib@@8
    ??_R2ObjectBase@Glib@@8
    ??_R1A@?0A@EA@ObjectBase@Glib@@8
    ??_R1A@73FA@trackable@sigc@@8
    ??_R0?AUtrackable@sigc@@@8
    ??_R3trackable@sigc@@8
    ??_R2trackable@sigc@@8
    ??_R1A@?0A@EA@trackable@sigc@@8
    ??_R1A@A@3FA@trackable@sigc@@8
    ??_R17?0A@EA@Buildable@Gtk@@8
    ??_R0?AVBuildable@Gtk@@@8
    ??_R3Buildable@Gtk@@8
    ??_R2Buildable@Gtk@@8
    ??_R1A@?0A@EA@Buildable@Gtk@@8
    ??_R1A@?0A@EA@Interface@Glib@@8
    ??_R0?AVInterface@Glib@@@8
    ??_R3Interface@Glib@@8
    ??_R2Interface@Glib@@8
    ??_R17?0A@EA@Interface@Glib@@8
    ?activatable_class_@Activatable@Gtk@@0VActivatable_Class@2@A
    ?__empty_global_delete@@YAXPEAX@Z
    ?__empty_global_delete@@YAXPEAX_K@Z
    ?convert_const_gchar_ptr_to_ustring@Glib@@YA?AVustring@1@PEBD@Z
    ??0Activatable@Gtk@@IEAA@XZ
    ??0Activatable@Gtk@@IEAA@AEBVInterface_Class@Glib@@@Z
    ??0Activatable@Gtk@@QEAA@PEAU_GtkActivatable@@@Z
    ??1Activatable@Gtk@@UEAA@XZ
    ?add_interface@Activatable@Gtk@@SAX_K@Z
    ?get_type@Activatable@Gtk@@SA_KXZ
    ?get_base_type@Activatable@Gtk@@SA_KXZ
    ?do_set_related_action@Activatable@Gtk@@QEAAXAEBV?$RefPtr@VAction@Gtk@@@Glib@@@Z
    ?get_related_action@Activatable@Gtk@@QEAA?AV?$RefPtr@VAction@Gtk@@@Glib@@XZ
    ?get_related_action@Activatable@Gtk@@QEBA?AV?$RefPtr@$$CBVAction@Gtk@@@Glib@@XZ
    ?get_use_action_appearance@Activatable@Gtk@@QEBA_NXZ
    ?sync_action_properties@Activatable@Gtk@@QEAAXAEBV?$RefPtr@VAction@Gtk@@@Glib@@@Z
    ?set_related_action@Activatable@Gtk@@QEAAXAEBV?$RefPtr@VAction@Gtk@@@Glib@@@Z
    ?set_use_action_appearance@Activatable@Gtk@@QEAAX_N@Z
    ?property_related_action@Activatable@Gtk@@QEAA?AV?$PropertyProxy@V?$RefPtr@VAction@Gtk@@@Glib@@@Glib@@XZ
    ?property_related_action@Activatable@Gtk@@QEBA?AV?$PropertyProxy_ReadOnly@V?$RefPtr@VAction@Gtk@@@Glib@@@Glib@@XZ
    ?property_use_action_appearance@Activatable@Gtk@@QEAA?AV?$PropertyProxy@_N@Glib@@XZ
    ?property_use_action_appearance@Activatable@Gtk@@QEBA?AV?$PropertyProxy_ReadOnly@_N@Glib@@XZ
    ?update_vfunc@Activatable@Gtk@@UEAAXAEBV?$RefPtr@VAction@Gtk@@@Glib@@AEBVustring@4@@Z
    ?sync_action_properties_vfunc@Activatable@Gtk@@UEAAXAEBV?$RefPtr@VAction@Gtk@@@Glib@@@Z
    ?wrap@Glib@@YA?AV?$RefPtr@VActivatable@Gtk@@@1@PEAU_GtkActivatable@@_N@Z
    ?init@Activatable_Class@Gtk@@QEAAAEBVInterface_Class@Glib@@XZ
    ?iface_init_function@Activatable_Class@Gtk@@SAXPEAX0@Z
    ?wrap_new@Activatable_Class@Gtk@@SAPEAVObjectBase@Glib@@PEAU_GObject@@@Z
    ?update_vfunc_callback@Activatable_Class@Gtk@@KAXPEAU_GtkActivatable@@PEAU_GtkAction@@PEBD@Z
    ?sync_action_properties_vfunc_callback@Activatable_Class@Gtk@@KAXPEAU_GtkActivatable@@PEAU_GtkAction@@@Z
    ??$wrap_auto_interface@VActivatable@Gtk@@@Glib@@YAPEAVActivatable@Gtk@@PEAU_GObject@@_N@Z
    ??1?$RefPtr@VAction@Gtk@@@Glib@@QEAA@XZ
    ??1?$RefPtr@$$CBVAction@Gtk@@@Glib@@QEAA@XZ
    ??_7Activatable@Gtk@@6B01@@
    ??_7Activatable@Gtk@@6BInterface@Glib@@@
    ??_8Activatable@Gtk@@7BInterface@Glib@@@
    ??_8Activatable@Gtk@@7BObjectBase@Glib@@@
    ??_C@_0L@IGFGCBFO@klass?5?$CB?$DN?50?$AA@
    ??_C@_0CM@MCLJGMDO@Gtk?3?3Activatable_Class?3?3iface_in@
    ??_C@_0BM@BFPABBGA@?4?4?2gtk?2gtkmm?2activatable?4cc?$AA@
    ??_R0?AVObjectBase@Glib@@@8
    ??_R0?AVActivatable@Gtk@@@8
    ??_C@_0P@OCNHHCNO@related?9action?$AA@
    ??_C@_0BG@EHJEOKDM@use?9action?9appearance?$AA@
    ??_C@_0FM@MEPOJGMK@Glib?3?3wrap_auto_interface?$CI?$CJ?3?5The@
    ??_R4Activatable@Gtk@@6B01@@
    ??_R3Activatable@Gtk@@8
    ??_R2Activatable@Gtk@@8
    ??_R1A@?0A@EA@Activatable@Gtk@@8
    ??_R17?0A@EA@Interface@Glib@@8
    ??_R0?AVInterface@Glib@@@8
    ??_R3Interface@Glib@@8
    ??_R2Interface@Glib@@8
    ??_R1A@?0A@EA@Interface@Glib@@8
    ??_R1A@A@7FA@ObjectBase@Glib@@8
    ??_R3ObjectBase@Glib@@8
    ??_R2ObjectBase@Glib@@8
    ??_R1A@?0A@EA@ObjectBase@Glib@@8
    ??_R1A@73FA@trackable@sigc@@8
    ??_R0?AUtrackable@sigc@@@8
    ??_R3trackable@sigc@@8
    ??_R2trackable@sigc@@8
    ??_R1A@?0A@EA@trackable@sigc@@8
    ??_R1A@A@3FA@trackable@sigc@@8
    ??_R1A@77FA@ObjectBase@Glib@@8
    ??_R4Activatable@Gtk@@6BInterface@Glib@@@
    ??_C@_07HADGPIEN@changed?$AA@
    ??_C@_0O@DNGPDLGA@value_changed?$AA@
    ?adjustment_class_@Adjustment@Gtk@@0VAdjustment_Class@2@A
    ?__empty_global_delete@@YAXPEAX@Z
    ?__empty_global_delete@@YAXPEAX_K@Z
    ??0Adjustment@Gtk@@IEAA@AEBVConstructParams@Glib@@@Z
    ??0Adjustment@Gtk@@IEAA@PEAU_GtkAdjustment@@@Z
    ??1Adjustment@Gtk@@UEAA@XZ
    ?get_type@Adjustment@Gtk@@SA_KXZ
    ?get_base_type@Adjustment@Gtk@@SA_KXZ
    ?gobj_copy@Adjustment@Gtk@@QEAAPEAU_GtkAdjustment@@XZ
    ??0Adjustment@Gtk@@IEAA@NNNNNN@Z
    ?create@Adjustment@Gtk@@SA?AV?$RefPtr@VAdjustment@Gtk@@@Glib@@NNNNNN@Z
    ?changed@Adjustment@Gtk@@QEAAXXZ
    ?value_changed@Adjustment@Gtk@@QEAAXXZ
    ?clamp_page@Adjustment@Gtk@@QEAAXNN@Z
    ?set_value@Adjustment@Gtk@@QEAAXN@Z
    ?get_value@Adjustment@Gtk@@QEBANXZ
    ?set_lower@Adjustment@Gtk@@QEAAXN@Z
    ?get_lower@Adjustment@Gtk@@QEBANXZ
    ?set_upper@Adjustment@Gtk@@QEAAXN@Z
    ?get_upper@Adjustment@Gtk@@QEBANXZ
    ?set_step_increment@Adjustment@Gtk@@QEAAXN@Z
    ?get_step_increment@Adjustment@Gtk@@QEBANXZ
    ?set_page_increment@Adjustment@Gtk@@QEAAXN@Z
    ?get_page_increment@Adjustment@Gtk@@QEBANXZ
    ?set_page_size@Adjustment@Gtk@@QEAAXN@Z
    ?get_page_size@Adjustment@Gtk@@QEBANXZ
    ?configure@Adjustment@Gtk@@QEAAXNNNNNN@Z
    ?get_minimum_increment@Adjustment@Gtk@@QEBANXZ
    ?signal_changed@Adjustment@Gtk@@QEAA?AV?$SignalProxy0@X@Glib@@XZ
    ?signal_value_changed@Adjustment@Gtk@@QEAA?AV?$SignalProxy0@X@Glib@@XZ
    ?property_value@Adjustment@Gtk@@QEAA?AV?$PropertyProxy@N@Glib@@XZ
    ?property_value@Adjustment@Gtk@@QEBA?AV?$PropertyProxy_ReadOnly@N@Glib@@XZ
    ?property_lower@Adjustment@Gtk@@QEAA?AV?$PropertyProxy@N@Glib@@XZ
    ?property_lower@Adjustment@Gtk@@QEBA?AV?$PropertyProxy_ReadOnly@N@Glib@@XZ
    ?property_upper@Adjustment@Gtk@@QEAA?AV?$PropertyProxy@N@Glib@@XZ
    ?property_upper@Adjustment@Gtk@@QEBA?AV?$PropertyProxy_ReadOnly@N@Glib@@XZ
    ?property_step_increment@Adjustment@Gtk@@QEAA?AV?$PropertyProxy@N@Glib@@XZ
    ?property_step_increment@Adjustment@Gtk@@QEBA?AV?$PropertyProxy_ReadOnly@N@Glib@@XZ
    ?property_page_increment@Adjustment@Gtk@@QEAA?AV?$PropertyProxy@N@Glib@@XZ
    ?property_page_increment@Adjustment@Gtk@@QEBA?AV?$PropertyProxy_ReadOnly@N@Glib@@XZ
    ?property_page_size@Adjustment@Gtk@@QEAA?AV?$PropertyProxy@N@Glib@@XZ
    ?property_page_size@Adjustment@Gtk@@QEBA?AV?$PropertyProxy_ReadOnly@N@Glib@@XZ
    ?on_changed@Adjustment@Gtk@@MEAAXXZ
    ?on_value_changed@Adjustment@Gtk@@MEAAXXZ
    ?wrap@Glib@@YA?AV?$RefPtr@VAdjustment@Gtk@@@1@PEAU_GtkAdjustment@@_N@Z
    ?init@Adjustment_Class@Gtk@@QEAAAEBVClass@Glib@@XZ
    ?class_init_function@Adjustment_Class@Gtk@@SAXPEAX0@Z
    ?wrap_new@Adjustment_Class@Gtk@@SAPEAVObjectBase@Glib@@PEAU_GObject@@@Z
    ?changed_callback@Adjustment_Class@Gtk@@KAXPEAU_GtkAdjustment@@@Z
    ?value_changed_callback@Adjustment_Class@Gtk@@KAXPEAU_GtkAdjustment@@@Z
    ??_7Adjustment@Gtk@@6B01@@
    ??_7Adjustment@Gtk@@6BObject@Glib@@@
    ??_8Adjustment@Gtk@@7BObject@Glib@@@
    ??_8Adjustment@Gtk@@7BObjectBase@Glib@@@
    ??_C@_05MFEJDJP@value?$AA@
    ??_C@_09OGOMKHMG@page_size?$AA@
    ??_C@_0P@LHCMMFDN@page_increment?$AA@
    ??_C@_0P@LAKHNCOC@step_increment?$AA@
    ??_C@_05NECKJAMC@upper?$AA@
    ??_C@_05IPJEPLHL@lower?$AA@
    ??_R0?AVObjectBase@Glib@@@8
    ??_R0?AVAdjustment@Gtk@@@8
    ??_C@_0P@BGOJDJNA@step?9increment?$AA@
    ??_C@_0P@BBGCCOAP@page?9increment?$AA@
    ??_C@_09KAAGALAM@page?9size?$AA@
    ??_R4Adjustment@Gtk@@6B01@@
    ??_R3Adjustment@Gtk@@8
    ??_R2Adjustment@Gtk@@8
    ??_R1A@?0A@EA@Adjustment@Gtk@@8
    ??_R17?0A@EA@Object@Glib@@8
    ??_R0?AVObject@Glib@@@8
    ??_R3Object@Glib@@8
    ??_R2Object@Glib@@8
    ??_R1A@?0A@EA@Object@Glib@@8
    ??_R1A@A@7FA@ObjectBase@Glib@@8
    ??_R3ObjectBase@Glib@@8
    ??_R2ObjectBase@Glib@@8
    ??_R1A@?0A@EA@ObjectBase@Glib@@8
    ??_R1A@73FA@trackable@sigc@@8
    ??_R0?AUtrackable@sigc@@@8
    ??_R3trackable@sigc@@8
    ??_R2trackable@sigc@@8
    ??_R1A@?0A@EA@trackable@sigc@@8
    ??_R1A@A@3FA@trackable@sigc@@8
    ??_R1A@77FA@ObjectBase@Glib@@8
    ??_R4Adjustment@Gtk@@6BObject@Glib@@@
    ?alignment_class_@Alignment@Gtk@@0VAlignment_Class@2@A
    ?__empty_global_delete@@YAXPEAX@Z
    ?__empty_global_delete@@YAXPEAX_K@Z
    ??1Alignment@Gtk@@UEAA@XZ
    ??0Alignment@Gtk@@IEAA@AEBVConstructParams@Glib@@@Z
    ??0Alignment@Gtk@@IEAA@PEAU_GtkAlignment@@@Z
    ?get_type@Alignment@Gtk@@SA_KXZ
    ?get_base_type@Alignment@Gtk@@SA_KXZ
    ??0Alignment@Gtk@@QEAA@MMMM@Z
    ??0Alignment@Gtk@@QEAA@W4Align@1@0MM@Z
    ?set@Alignment@Gtk@@QEAAXMMMM@Z
    ?set@Alignment@Gtk@@QEAAXW4Align@2@0MM@Z
    ?set_padding@Alignment@Gtk@@QEAAXIIII@Z
    ?get_padding@Alignment@Gtk@@QEAAXAEAI000@Z
    ?property_xalign@Alignment@Gtk@@QEAA?AV?$PropertyProxy@M@Glib@@XZ
    ?property_xalign@Alignment@Gtk@@QEBA?AV?$PropertyProxy_ReadOnly@M@Glib@@XZ
    ?property_yalign@Alignment@Gtk@@QEAA?AV?$PropertyProxy@M@Glib@@XZ
    ?property_yalign@Alignment@Gtk@@QEBA?AV?$PropertyProxy_ReadOnly@M@Glib@@XZ
    ?property_xscale@Alignment@Gtk@@QEAA?AV?$PropertyProxy@M@Glib@@XZ
    ?property_xscale@Alignment@Gtk@@QEBA?AV?$PropertyProxy_ReadOnly@M@Glib@@XZ
    ?property_yscale@Alignment@Gtk@@QEAA?AV?$PropertyProxy@M@Glib@@XZ
    ?property_yscale@Alignment@Gtk@@QEBA?AV?$PropertyProxy_ReadOnly@M@Glib@@XZ
    ?property_top_padding@Alignment@Gtk@@QEAA?AV?$PropertyProxy@I@Glib@@XZ
    ?property_top_padding@Alignment@Gtk@@QEBA?AV?$PropertyProxy_ReadOnly@I@Glib@@XZ
    ?property_bottom_padding@Alignment@Gtk@@QEAA?AV?$PropertyProxy@I@Glib@@XZ
    ?property_bottom_padding@Alignment@Gtk@@QEBA?AV?$PropertyProxy_ReadOnly@I@Glib@@XZ
    ?property_left_padding@Alignment@Gtk@@QEAA?AV?$PropertyProxy@I@Glib@@XZ
    ?property_left_padding@Alignment@Gtk@@QEBA?AV?$PropertyProxy_ReadOnly@I@Glib@@XZ
    ?property_right_padding@Alignment@Gtk@@QEAA?AV?$PropertyProxy@I@Glib@@XZ
    ?property_right_padding@Alignment@Gtk@@QEBA?AV?$PropertyProxy_ReadOnly@I@Glib@@XZ
    ??_DAlignment@Gtk@@QEAAXXZ
    ?wrap@Glib@@YAPEAVAlignment@Gtk@@PEAU_GtkAlignment@@_N@Z
    ?init@Alignment_Class@Gtk@@QEAAAEBVClass@Glib@@XZ
    ?class_init_function@Alignment_Class@Gtk@@SAXPEAX0@Z
    ?wrap_new@Alignment_Class@Gtk@@SAPEAVObjectBase@Glib@@PEAU_GObject@@@Z
    ??$manage@VAlignment@Gtk@@@Gtk@@YAPEAVAlignment@0@PEAV10@@Z
    ?destroy_notify_@Object@Gtk@@$2PPPPPPPM@7EAAXXZ
    ?set_manage@Object@Gtk@@$4PPPPPPPM@7EAAXXZ
    ??_7Alignment@Gtk@@6BWidget@1@@
    ??_7Alignment@Gtk@@6BObject@1@@
    ??_8Alignment@Gtk@@7BObject@Glib@@@
    ??_8Alignment@Gtk@@7BInterface@Glib@@@
    ??_8Alignment@Gtk@@7BObjectBase@Glib@@@
    ??_R0?AVObjectBase@Glib@@@8
    ??_R0?AVAlignment@Gtk@@@8
    ??_C@_06JCJKPKEL@yscale?$AA@
    ??_C@_06DEONPBPP@xscale?$AA@
    ??_C@_06HEMBNAMP@yalign?$AA@
    ??_C@_06NCLGNLHL@xalign?$AA@
    ??_C@_0M@LFCAOIEK@top?9padding?$AA@
    ??_C@_0P@IBMKPOCF@bottom?9padding?$AA@
    ??_C@_0N@LANDDEGO@left?9padding?$AA@
    ??_C@_0O@MGHPHKEJ@right?9padding?$AA@
    ??_R4Alignment@Gtk@@6BWidget@1@@
    ??_R3Alignment@Gtk@@8
    ??_R2Alignment@Gtk@@8
    ??_R1A@?0A@EA@Alignment@Gtk@@8
    ??_R1A@?0A@EA@Bin@Gtk@@8
    ??_R0?AVBin@Gtk@@@8
    ??_R3Bin@Gtk@@8
    ??_R2Bin@Gtk@@8
    ??_R1A@?0A@EA@Container@Gtk@@8
    ??_R0?AVContainer@Gtk@@@8
    ??_R3Container@Gtk@@8
    ??_R2Container@Gtk@@8
    ??_R1A@?0A@EA@Widget@Gtk@@8
    ??_R0?AVWidget@Gtk@@@8
    ??_R3Widget@Gtk@@8
    ??_R2Widget@Gtk@@8
    ??_R17?0A@EA@Object@Gtk@@8
    ??_R0?AVObject@Gtk@@@8
    ??_R3Object@Gtk@@8
    ??_R2Object@Gtk@@8
    ??_R1A@?0A@EA@Object@Gtk@@8
    ??_R1A@?0A@EA@Object@Glib@@8
    ??_R0?AVObject@Glib@@@8
    ??_R3Object@Glib@@8
    ??_R2Object@Glib@@8
    ??_R1A@A@7FA@ObjectBase@Glib@@8
    ??_R3ObjectBase@Glib@@8
    ??_R2ObjectBase@Glib@@8
    ??_R1A@?0A@EA@ObjectBase@Glib@@8
    ??_R1A@73FA@trackable@sigc@@8
    ??_R0?AUtrackable@sigc@@@8
    ??_R3trackable@sigc@@8
    ??_R2trackable@sigc@@8
    ??_R1A@?0A@EA@trackable@sigc@@8
    ??_R1A@A@3FA@trackable@sigc@@8
    ??_R17?0A@EA@Object@Glib@@8
    ??_R1A@77FA@ObjectBase@Glib@@8
    ??_R1BI@?0A@EA@Buildable@Gtk@@8
    ??_R0?AVBuildable@Gtk@@@8
    ??_R3Buildable@Gtk@@8
    ??_R2Buildable@Gtk@@8
    ??_R1A@?0A@EA@Buildable@Gtk@@8
    ??_R1A@?0A@EA@Interface@Glib@@8
    ??_R0?AVInterface@Glib@@@8
    ??_R3Interface@Glib@@8
    ??_R2Interface@Glib@@8
    ??_R1BI@?0A@EA@Interface@Glib@@8
    ??_R4Alignment@Gtk@@6BObject@1@@
    ?appchooser_class_@AppChooser@Gtk@@0VAppChooser_Class@2@A
    ?__empty_global_delete@@YAXPEAX@Z
    ?__empty_global_delete@@YAXPEAX_K@Z
    ?convert_return_gchar_ptr_to_ustring@Glib@@YA?AVustring@1@PEAD@Z
    ??1?$ScopedPtr@D@Glib@@QEAA@XZ
    ??0AppChooser@Gtk@@IEAA@XZ
    ??0AppChooser@Gtk@@IEAA@AEBVInterface_Class@Glib@@@Z
    ??0AppChooser@Gtk@@QEAA@PEAU_GtkAppChooser@@@Z
    ??1AppChooser@Gtk@@UEAA@XZ
    ?add_interface@AppChooser@Gtk@@SAX_K@Z
    ?get_type@AppChooser@Gtk@@SA_KXZ
    ?get_base_type@AppChooser@Gtk@@SA_KXZ
    ?get_app_info@AppChooser@Gtk@@QEAA?AV?$RefPtr@VAppInfo@Gio@@@Glib@@XZ
    ?get_app_info@AppChooser@Gtk@@QEBA?AV?$RefPtr@$$CBVAppInfo@Gio@@@Glib@@XZ
    ?get_content_type@AppChooser@Gtk@@QEBA?AVustring@Glib@@XZ
    ?refresh@AppChooser@Gtk@@QEAAXXZ
    ?property_content_type@AppChooser@Gtk@@QEBA?AV?$PropertyProxy_ReadOnly@Vustring@Glib@@@Glib@@XZ
    ?wrap@Glib@@YA?AV?$RefPtr@VAppChooser@Gtk@@@1@PEAU_GtkAppChooser@@_N@Z
    ?init@AppChooser_Class@Gtk@@QEAAAEBVInterface_Class@Glib@@XZ
    ?iface_init_function@AppChooser_Class@Gtk@@SAXPEAX0@Z
    ?wrap_new@AppChooser_Class@Gtk@@SAPEAVObjectBase@Glib@@PEAU_GObject@@@Z
    ??$wrap_auto_interface@VAppChooser@Gtk@@@Glib@@YAPEAVAppChooser@Gtk@@PEAU_GObject@@_N@Z
    ??1?$RefPtr@VAppInfo@Gio@@@Glib@@QEAA@XZ
    ??1?$RefPtr@$$CBVAppInfo@Gio@@@Glib@@QEAA@XZ
    ??_7AppChooser@Gtk@@6B@
    ??_8AppChooser@Gtk@@7BInterface@Glib@@@
    ??_8AppChooser@Gtk@@7BObjectBase@Glib@@@
    ??_C@_0L@IGFGCBFO@klass?5?$CB?$DN?50?$AA@
    ??_C@_0CL@BCONDFCN@Gtk?3?3AppChooser_Class?3?3iface_ini@
    ??_C@_0BL@MAFEKCPH@?4?4?2gtk?2gtkmm?2appchooser?4cc?$AA@
    ??_C@_0N@MCOKKOFB@content?9type?$AA@
    ??_R0?AVObjectBase@Glib@@@8
    ??_R0?AVAppChooser@Gtk@@@8
    ??_C@_0FM@MEPOJGMK@Glib?3?3wrap_auto_interface?$CI?$CJ?3?5The@
    ??_R4AppChooser@Gtk@@6B@
    ??_R3AppChooser@Gtk@@8
    ??_R2AppChooser@Gtk@@8
    ??_R1A@?0A@EA@AppChooser@Gtk@@8
    ??_R1A@?0A@EA@Interface@Glib@@8
    ??_R0?AVInterface@Glib@@@8
    ??_R3Interface@Glib@@8
    ??_R2Interface@Glib@@8
    ??_R1A@A@7FA@ObjectBase@Glib@@8
    ??_R3ObjectBase@Glib@@8
    ??_R2ObjectBase@Glib@@8
    ??_R1A@?0A@EA@ObjectBase@Glib@@8
    ??_R1A@73FA@trackable@sigc@@8
    ??_R0?AUtrackable@sigc@@@8
    ??_R3trackable@sigc@@8
    ??_R2trackable@sigc@@8
    ??_R1A@?0A@EA@trackable@sigc@@8
    ??_R1A@A@3FA@trackable@sigc@@8
    ??_C@_0BG@IGGGHIMF@custom?9item?9activated?$AA@
    ?appchooserbutton_class_@AppChooserButton@Gtk@@0VAppChooserButton_Class@2@A
    ?__empty_global_delete@@YAXPEAX@Z
    ?__empty_global_delete@@YAXPEAX_K@Z
    ?convert_const_gchar_ptr_to_ustring@Glib@@YA?AVustring@1@PEBD@Z
    ??1AppChooserButton@Gtk@@UEAA@XZ
    ??0AppChooserButton@Gtk@@IEAA@AEBVConstructParams@Glib@@@Z
    ??0AppChooserButton@Gtk@@IEAA@PEAU_GtkAppChooserButton@@@Z
    ?get_type@AppChooserButton@Gtk@@SA_KXZ
    ?get_base_type@AppChooserButton@Gtk@@SA_KXZ
    ?on_custom_item_activated@AppChooserButton@Gtk@@MEAAXAEBVustring@Glib@@@Z
    ??0AppChooserButton@Gtk@@QEAA@AEBVustring@Glib@@@Z
    ?append_separator@AppChooserButton@Gtk@@QEAAXXZ
    ?append_custom_item@AppChooserButton@Gtk@@QEAAXAEBVustring@Glib@@0AEBV?$RefPtr@VIcon@Gio@@@4@@Z
    ?set_active_custom_item@AppChooserButton@Gtk@@QEAAXAEBVustring@Glib@@@Z
    ?set_show_dialog_item@AppChooserButton@Gtk@@QEAAX_N@Z
    ?get_show_dialog_item@AppChooserButton@Gtk@@QEBA_NXZ
    ?set_heading@AppChooserButton@Gtk@@QEAAXAEBVustring@Glib@@@Z
    ?get_heading@AppChooserButton@Gtk@@QEBA?AVustring@Glib@@XZ
    ?set_show_default_item@AppChooserButton@Gtk@@QEAAX_N@Z
    ?get_show_default_item@AppChooserButton@Gtk@@QEBA_NXZ
    ?signal_custom_item_activated@AppChooserButton@Gtk@@QEAA?AV?$SignalProxy1@XAEBVustring@Glib@@@Glib@@XZ
    ?property_show_dialog_item@AppChooserButton@Gtk@@QEAA?AV?$PropertyProxy@_N@Glib@@XZ
    ?property_show_dialog_item@AppChooserButton@Gtk@@QEBA?AV?$PropertyProxy_ReadOnly@_N@Glib@@XZ
    ?property_heading@AppChooserButton@Gtk@@QEAA?AV?$PropertyProxy@Vustring@Glib@@@Glib@@XZ
    ?property_heading@AppChooserButton@Gtk@@QEBA?AV?$PropertyProxy_ReadOnly@Vustring@Glib@@@Glib@@XZ
    ?property_show_default_item@AppChooserButton@Gtk@@QEAA?AV?$PropertyProxy@_N@Glib@@XZ
    ?property_show_default_item@AppChooserButton@Gtk@@QEBA?AV?$PropertyProxy_ReadOnly@_N@Glib@@XZ
    ?wrap@Glib@@YAPEAVAppChooserButton@Gtk@@PEAU_GtkAppChooserButton@@_N@Z
    ?init@AppChooserButton_Class@Gtk@@QEAAAEBVClass@Glib@@XZ
    ?class_init_function@AppChooserButton_Class@Gtk@@SAXPEAX0@Z
    ?wrap_new@AppChooserButton_Class@Gtk@@SAPEAVObjectBase@Glib@@PEAU_GObject@@@Z
    ?custom_item_activated_callback@AppChooserButton_Class@Gtk@@KAXPEAU_GtkAppChooserButton@@PEBD@Z
    ??$manage@VAppChooserButton@Gtk@@@Gtk@@YAPEAVAppChooserButton@0@PEAV10@@Z
    ?destroy_notify_@Object@Gtk@@$2PPPPPPPM@DA@EAAXXZ
    ?set_manage@Object@Gtk@@$4PPPPPPPM@DA@EAAXXZ
    ??_7AppChooserButton@Gtk@@6BWidget@1@@
    ??_7AppChooserButton@Gtk@@6BCellLayout@1@@
    ??_7AppChooserButton@Gtk@@6BCellEditable@1@@
    ??_7AppChooserButton@Gtk@@6BObject@1@@
    ??_8AppChooserButton@Gtk@@7BObject@Glib@@@
    ??_8AppChooserButton@Gtk@@7BInterface@Glib@@Bin@1@@
    ??_8AppChooserButton@Gtk@@7BInterface@Glib@@CellLayout@1@@
    ??_8AppChooserButton@Gtk@@7BInterface@Glib@@CellEditable@1@@
    ??_8AppChooserButton@Gtk@@7BInterface@Glib@@@
    ??_8AppChooserButton@Gtk@@7BObjectBase@Glib@@@
    ??_R0?AVObjectBase@Glib@@@8
    ??_R0?AVAppChooserButton@Gtk@@@8
    ??_C@_0N@IEAAACJL@content_type?$AA@
    ??_C@_0BB@LAENDHHL@show?9dialog?9item?$AA@
    ??_C@_07MBJMFGGL@heading?$AA@
    ??_C@_0BC@PGDNCBAN@show?9default?9item?$AA@
    ??_R4AppChooserButton@Gtk@@6BWidget@1@@
    ??_R3AppChooserButton@Gtk@@8
    ??_R2AppChooserButton@Gtk@@8
    ??_R1A@?0A@EA@AppChooserButton@Gtk@@8
    ??_R1A@?0A@EA@ComboBox@Gtk@@8
    ??_R0?AVComboBox@Gtk@@@8
    ??_R3ComboBox@Gtk@@8
    ??_R2ComboBox@Gtk@@8
    ??_R1A@?0A@EA@Bin@Gtk@@8
    ??_R0?AVBin@Gtk@@@8
    ??_R3Bin@Gtk@@8
    ??_R2Bin@Gtk@@8
    ??_R1A@?0A@EA@Container@Gtk@@8
    ??_R0?AVContainer@Gtk@@@8
    ??_R3Container@Gtk@@8
    ??_R2Container@Gtk@@8
    ??_R1A@?0A@EA@Widget@Gtk@@8
    ??_R0?AVWidget@Gtk@@@8
    ??_R3Widget@Gtk@@8
    ??_R2Widget@Gtk@@8
    ??_R17?0A@EA@Object@Gtk@@8
    ??_R0?AVObject@Gtk@@@8
    ??_R3Object@Gtk@@8
    ??_R2Object@Gtk@@8
    ??_R1A@?0A@EA@Object@Gtk@@8
    ??_R1A@?0A@EA@Object@Glib@@8
    ??_R0?AVObject@Glib@@@8
    ??_R3Object@Glib@@8
    ??_R2Object@Glib@@8
    ??_R1A@A@7FA@ObjectBase@Glib@@8
    ??_R3ObjectBase@Glib@@8
    ??_R2ObjectBase@Glib@@8
    ??_R1A@?0A@EA@ObjectBase@Glib@@8
    ??_R1A@73FA@trackable@sigc@@8
    ??_R0?AUtrackable@sigc@@@8
    ??_R3trackable@sigc@@8
    ??_R2trackable@sigc@@8
    ??_R1A@?0A@EA@trackable@sigc@@8
    ??_R1A@A@3FA@trackable@sigc@@8
    ??_R17?0A@EA@Object@Glib@@8
    ??_R1A@77FA@ObjectBase@Glib@@8
    ??_R1BI@?0A@EA@Buildable@Gtk@@8
    ??_R0?AVBuildable@Gtk@@@8
    ??_R3Buildable@Gtk@@8
    ??_R2Buildable@Gtk@@8
    ??_R1A@?0A@EA@Buildable@Gtk@@8
    ??_R1A@?0A@EA@Interface@Glib@@8
    ??_R0?AVInterface@Glib@@@8
    ??_R3Interface@Glib@@8
    ??_R2Interface@Glib@@8
    ??_R1BI@?0A@EA@Interface@Glib@@8
    ??_R1BI@?0A@EC@Interface@Glib@@8
    ??_R1CA@?0A@EA@CellLayout@Gtk@@8
    ??_R0?AVCellLayout@Gtk@@@8
    ??_R3CellLayout@Gtk@@8
    ??_R2CellLayout@Gtk@@8
    ??_R1A@?0A@EA@CellLayout@Gtk@@8
    ??_R17?0A@EA@Interface@Glib@@8
    ??_R1CI@?0A@EC@Interface@Glib@@8
    ??_R1DA@?0A@EA@CellEditable@Gtk@@8
    ??_R0?AVCellEditable@Gtk@@@8
    ??_R3CellEditable@Gtk@@8
    ??_R2CellEditable@Gtk@@8
    ??_R1A@?0A@EA@CellEditable@Gtk@@8
    ??_R1DI@?0A@EC@Interface@Glib@@8
    ??_R1EA@?0A@EA@AppChooser@Gtk@@8
    ??_R0?AVAppChooser@Gtk@@@8
    ??_R3AppChooser@Gtk@@8
    ??_R2AppChooser@Gtk@@8
    ??_R1A@?0A@EA@AppChooser@Gtk@@8
    ??_R1EA@?0A@EC@Interface@Glib@@8
    ??_R4AppChooserButton@Gtk@@6BCellLayout@1@@
    ??_R4AppChooserButton@Gtk@@6BCellEditable@1@@
    ??_R4AppChooserButton@Gtk@@6BObject@1@@
    ?appchooserdialog_class_@AppChooserDialog@Gtk@@0VAppChooserDialog_Class@2@A
    ?__empty_global_delete@@YAXPEAX@Z
    ?__empty_global_delete@@YAXPEAX_K@Z
    ?convert_const_gchar_ptr_to_ustring@Glib@@YA?AVustring@1@PEBD@Z
    ??1AppChooserDialog@Gtk@@UEAA@XZ
    ??0AppChooserDialog@Gtk@@IEAA@AEBVConstructParams@Glib@@@Z
    ??0AppChooserDialog@Gtk@@IEAA@PEAU_GtkAppChooserDialog@@@Z
    ?get_type@AppChooserDialog@Gtk@@SA_KXZ
    ?get_base_type@AppChooserDialog@Gtk@@SA_KXZ
    ??0AppChooserDialog@Gtk@@QEAA@AEBVustring@Glib@@@Z
    ??0AppChooserDialog@Gtk@@QEAA@AEBVustring@Glib@@AEAVWindow@1@@Z
    ??0AppChooserDialog@Gtk@@QEAA@AEBV?$RefPtr@VFile@Gio@@@Glib@@@Z
    ??0AppChooserDialog@Gtk@@QEAA@AEBV?$RefPtr@VFile@Gio@@@Glib@@AEAVWindow@1@@Z
    ?get_widget@AppChooserDialog@Gtk@@QEAAPEAVWidget@2@XZ
    ?get_widget@AppChooserDialog@Gtk@@QEBAPEBVWidget@2@XZ
    ?set_heading@AppChooserDialog@Gtk@@QEAAXAEBVustring@Glib@@@Z
    ?get_heading@AppChooserDialog@Gtk@@QEBA?AVustring@Glib@@XZ
    ?property_gfile@AppChooserDialog@Gtk@@QEBA?AV?$PropertyProxy_ReadOnly@V?$RefPtr@VFile@Gio@@@Glib@@@Glib@@XZ
    ?property_heading@AppChooserDialog@Gtk@@QEAA?AV?$PropertyProxy@Vustring@Glib@@@Glib@@XZ
    ?property_heading@AppChooserDialog@Gtk@@QEBA?AV?$PropertyProxy_ReadOnly@Vustring@Glib@@@Glib@@XZ
    ??_DAppChooserDialog@Gtk@@QEAAXXZ
    ?wrap@Glib@@YAPEAVAppChooserDialog@Gtk@@PEAU_GtkAppChooserDialog@@_N@Z
    ?init@AppChooserDialog_Class@Gtk@@QEAAAEBVClass@Glib@@XZ
    ?class_init_function@AppChooserDialog_Class@Gtk@@SAXPEAX0@Z
    ?wrap_new@AppChooserDialog_Class@Gtk@@SAPEAVObjectBase@Glib@@PEAU_GObject@@@Z
    ??$manage@VAppChooserDialog@Gtk@@@Gtk@@YAPEAVAppChooserDialog@0@PEAV10@@Z
    ?destroy_notify_@Object@Gtk@@$2PPPPPPPM@BI@EAAXXZ
    ?set_manage@Window@Gtk@@$4PPPPPPPM@7EAAXXZ
    ??_7AppChooserDialog@Gtk@@6BWidget@1@@
    ??_7AppChooserDialog@Gtk@@6BObject@1@@
    ??_8AppChooserDialog@Gtk@@7BObject@Glib@@@
    ??_8AppChooserDialog@Gtk@@7BInterface@Glib@@Dialog@1@@
    ??_8AppChooserDialog@Gtk@@7BInterface@Glib@@AppChooser@1@@
    ??_8AppChooserDialog@Gtk@@7BObjectBase@Glib@@@
    ??_C@_0N@IEAAACJL@content_type?$AA@
    ??_C@_05FCNHPGHM@gfile?$AA@
    ??_R0?AVObjectBase@Glib@@@8
    ??_R0?AVAppChooserDialog@Gtk@@@8
    ??_C@_07MBJMFGGL@heading?$AA@
    ??_R4AppChooserDialog@Gtk@@6BWidget@1@@
    ??_R3AppChooserDialog@Gtk@@8
    ??_R2AppChooserDialog@Gtk@@8
    ??_R1A@?0A@EA@AppChooserDialog@Gtk@@8
    ??_R1A@?0A@EA@Dialog@Gtk@@8
    ??_R0?AVDialog@Gtk@@@8
    ??_R3Dialog@Gtk@@8
    ??_R2Dialog@Gtk@@8
    ??_R1A@?0A@EA@Window@Gtk@@8
    ??_R0?AVWindow@Gtk@@@8
    ??_R3Window@Gtk@@8
    ??_R2Window@Gtk@@8
    ??_R1A@?0A@EA@Bin@Gtk@@8
    ??_R0?AVBin@Gtk@@@8
    ??_R3Bin@Gtk@@8
    ??_R2Bin@Gtk@@8
    ??_R1A@?0A@EA@Container@Gtk@@8
    ??_R0?AVContainer@Gtk@@@8
    ??_R3Container@Gtk@@8
    ??_R2Container@Gtk@@8
    ??_R1A@?0A@EA@Widget@Gtk@@8
    ??_R0?AVWidget@Gtk@@@8
    ??_R3Widget@Gtk@@8
    ??_R2Widget@Gtk@@8
    ??_R17?0A@EA@Object@Gtk@@8
    ??_R0?AVObject@Gtk@@@8
    ??_R3Object@Gtk@@8
    ??_R2Object@Gtk@@8
    ??_R1A@?0A@EA@Object@Gtk@@8
    ??_R1A@?0A@EA@Object@Glib@@8
    ??_R0?AVObject@Glib@@@8
    ??_R3Object@Glib@@8
    ??_R2Object@Glib@@8
    ??_R1A@A@7FA@ObjectBase@Glib@@8
    ??_R3ObjectBase@Glib@@8
    ??_R2ObjectBase@Glib@@8
    ??_R1A@?0A@EA@ObjectBase@Glib@@8
    ??_R1A@73FA@trackable@sigc@@8
    ??_R0?AUtrackable@sigc@@@8
    ??_R3trackable@sigc@@8
    ??_R2trackable@sigc@@8
    ??_R1A@?0A@EA@trackable@sigc@@8
    ??_R1A@A@3FA@trackable@sigc@@8
    ??_R17?0A@EA@Object@Glib@@8
    ??_R1A@77FA@ObjectBase@Glib@@8
    ??_R1BI@?0A@EA@Buildable@Gtk@@8
    ??_R0?AVBuildable@Gtk@@@8
    ??_R3Buildable@Gtk@@8
    ??_R2Buildable@Gtk@@8
    ??_R1A@?0A@EA@Buildable@Gtk@@8
    ??_R1A@?0A@EA@Interface@Glib@@8
    ??_R0?AVInterface@Glib@@@8
    ??_R3Interface@Glib@@8
    ??_R2Interface@Glib@@8
    ??_R1BI@?0A@EA@Interface@Glib@@8
    ??_R1BI@?0A@EC@Interface@Glib@@8
    ??_R1CI@?0A@EA@AppChooser@Gtk@@8
    ??_R0?AVAppChooser@Gtk@@@8
    ??_R3AppChooser@Gtk@@8
    ??_R2AppChooser@Gtk@@8
    ??_R1A@?0A@EA@AppChooser@Gtk@@8
    ??_R1CI@?0A@EC@Interface@Glib@@8
    ??_R4AppChooserDialog@Gtk@@6BObject@1@@
    ??_C@_0BF@FPADLAHM@application?9selected?$AA@
    ??_C@_0BG@HCLOCJKG@application?9activated?$AA@
    ??_C@_0P@LJLAGGM@populate?9popup?$AA@
    ?appchooserwidget_class_@AppChooserWidget@Gtk@@0VAppChooserWidget_Class@2@A
    ?__empty_global_delete@@YAXPEAX@Z
    ?__empty_global_delete@@YAXPEAX_K@Z
    ?convert_const_gchar_ptr_to_ustring@Glib@@YA?AVustring@1@PEBD@Z
    ??1AppChooserWidget@Gtk@@UEAA@XZ
    ??0AppChooserWidget@Gtk@@IEAA@AEBVConstructParams@Glib@@@Z
    ??0AppChooserWidget@Gtk@@IEAA@PEAU_GtkAppChooserWidget@@@Z
    ?get_type@AppChooserWidget@Gtk@@SA_KXZ
    ?get_base_type@AppChooserWidget@Gtk@@SA_KXZ
    ?on_application_selected@AppChooserWidget@Gtk@@MEAAXAEBV?$RefPtr@VAppInfo@Gio@@@Glib@@@Z
    ?on_application_activated@AppChooserWidget@Gtk@@MEAAXAEBV?$RefPtr@VAppInfo@Gio@@@Glib@@@Z
    ?on_populate_popup@AppChooserWidget@Gtk@@MEAAXPEAVMenu@2@AEBV?$RefPtr@VAppInfo@Gio@@@Glib@@@Z
    ??0AppChooserWidget@Gtk@@QEAA@AEBVustring@Glib@@@Z
    ?set_show_default@AppChooserWidget@Gtk@@QEAAX_N@Z
    ?get_show_default@AppChooserWidget@Gtk@@QEAA_NXZ
    ?set_show_recommended@AppChooserWidget@Gtk@@QEAAX_N@Z
    ?get_show_recommended@AppChooserWidget@Gtk@@QEBA_NXZ
    ?set_show_fallback@AppChooserWidget@Gtk@@QEAAX_N@Z
    ?get_show_fallback@AppChooserWidget@Gtk@@QEBA_NXZ
    ?set_show_other@AppChooserWidget@Gtk@@QEAAX_N@Z
    ?get_show_other@AppChooserWidget@Gtk@@QEBA_NXZ
    ?set_show_all@AppChooserWidget@Gtk@@QEAAX_N@Z
    ?get_show_all@AppChooserWidget@Gtk@@QEBA_NXZ
    ?set_default_text@AppChooserWidget@Gtk@@QEAAXAEBVustring@Glib@@@Z
    ?get_default_text@AppChooserWidget@Gtk@@QEAA?AVustring@Glib@@XZ
    ?signal_application_selected@AppChooserWidget@Gtk@@QEAA?AV?$SignalProxy1@XAEBV?$RefPtr@VAppInfo@Gio@@@Glib@@@Glib@@XZ
    ?signal_application_activated@AppChooserWidget@Gtk@@QEAA?AV?$SignalProxy1@XAEBV?$RefPtr@VAppInfo@Gio@@@Glib@@@Glib@@XZ
    ?signal_populate_popup@AppChooserWidget@Gtk@@QEAA?AV?$SignalProxy2@XPEAVMenu@Gtk@@AEBV?$RefPtr@VAppInfo@Gio@@@Glib@@@Glib@@XZ
    ?property_show_default@AppChooserWidget@Gtk@@QEAA?AV?$PropertyProxy@_N@Glib@@XZ
    ?property_show_default@AppChooserWidget@Gtk@@QEBA?AV?$PropertyProxy_ReadOnly@_N@Glib@@XZ
    ?property_show_recommended@AppChooserWidget@Gtk@@QEAA?AV?$PropertyProxy@_N@Glib@@XZ
    ?property_show_recommended@AppChooserWidget@Gtk@@QEBA?AV?$PropertyProxy_ReadOnly@_N@Glib@@XZ
    ?property_show_fallback@AppChooserWidget@Gtk@@QEAA?AV?$PropertyProxy@_N@Glib@@XZ
    ?property_show_fallback@AppChooserWidget@Gtk@@QEBA?AV?$PropertyProxy_ReadOnly@_N@Glib@@XZ
    ?property_show_other@AppChooserWidget@Gtk@@QEAA?AV?$PropertyProxy@_N@Glib@@XZ
    ?property_show_other@AppChooserWidget@Gtk@@QEBA?AV?$PropertyProxy_ReadOnly@_N@Glib@@XZ
    ?property_show_all@AppChooserWidget@Gtk@@QEAA?AV?$PropertyProxy@_N@Glib@@XZ
    ?property_show_all@AppChooserWidget@Gtk@@QEBA?AV?$PropertyProxy_ReadOnly@_N@Glib@@XZ
    ?property_default_text@AppChooserWidget@Gtk@@QEAA?AV?$PropertyProxy@Vustring@Glib@@@Glib@@XZ
    ?property_default_text@AppChooserWidget@Gtk@@QEBA?AV?$PropertyProxy_ReadOnly@Vustring@Glib@@@Glib@@XZ
    ??_DAppChooserWidget@Gtk@@QEAAXXZ
    ?wrap@Glib@@YAPEAVAppChooserWidget@Gtk@@PEAU_GtkAppChooserWidget@@_N@Z
    ?init@AppChooserWidget_Class@Gtk@@QEAAAEBVClass@Glib@@XZ
    ?class_init_function@AppChooserWidget_Class@Gtk@@SAXPEAX0@Z
    ?wrap_new@AppChooserWidget_Class@Gtk@@SAPEAVObjectBase@Glib@@PEAU_GObject@@@Z
    ?application_selected_callback@AppChooserWidget_Class@Gtk@@KAXPEAU_GtkAppChooserWidget@@PEAU_GAppInfo@@@Z
    ?application_activated_callback@AppChooserWidget_Class@Gtk@@KAXPEAU_GtkAppChooserWidget@@PEAU_GAppInfo@@@Z
    ?populate_popup_callback@AppChooserWidget_Class@Gtk@@KAXPEAU_GtkAppChooserWidget@@PEAU_GtkMenu@@PEAU_GAppInfo@@@Z
    ??1?$RefPtr@VAppInfo@Gio@@@Glib@@QEAA@XZ
    ??$manage@VAppChooserWidget@Gtk@@@Gtk@@YAPEAVAppChooserWidget@0@PEAV10@@Z
    ?destroy_notify_@Object@Gtk@@$2PPPPPPPM@BI@EAAXXZ
    ?set_manage@Object@Gtk@@$4PPPPPPPM@BI@EAAXXZ
    ??_7AppChooserWidget@Gtk@@6BWidget@1@@
    ??_7AppChooserWidget@Gtk@@6BObject@1@@
    ??_8AppChooserWidget@Gtk@@7BObject@Glib@@@
    ??_8AppChooserWidget@Gtk@@7BInterface@Glib@@Container@1@@
    ??_8AppChooserWidget@Gtk@@7BInterface@Glib@@Orientable@1@@
    ??_8AppChooserWidget@Gtk@@7BInterface@Glib@@@
    ??_8AppChooserWidget@Gtk@@7BObjectBase@Glib@@@
    ??_R0?AVObjectBase@Glib@@@8
    ??_R0?AVAppChooserWidget@Gtk@@@8
    ??_C@_0N@IEAAACJL@content_type?$AA@
    ??_C@_0N@NMEDILIL@show?9default?$AA@
    ??_C@_0BB@FCKPOBKM@show?9recommended?$AA@
    ??_C@_0O@HHCOOHBJ@show?9fallback?$AA@
    ??_C@_0L@OCNKIGBG@show?9other?$AA@
    ??_C@_08IKEBMDAG@show?9all?$AA@
    ??_C@_0N@IHAKDEAC@default?9text?$AA@
    ??_R4AppChooserWidget@Gtk@@6BWidget@1@@
    ??_R3AppChooserWidget@Gtk@@8
    ??_R2AppChooserWidget@Gtk@@8
    ??_R1A@?0A@EA@AppChooserWidget@Gtk@@8
    ??_R1A@?0A@EA@Box@Gtk@@8
    ??_R0?AVBox@Gtk@@@8
    ??_R3Box@Gtk@@8
    ??_R2Box@Gtk@@8
    ??_R1A@?0A@EA@Container@Gtk@@8
    ??_R0?AVContainer@Gtk@@@8
    ??_R3Container@Gtk@@8
    ??_R2Container@Gtk@@8
    ??_R1A@?0A@EA@Widget@Gtk@@8
    ??_R0?AVWidget@Gtk@@@8
    ??_R3Widget@Gtk@@8
    ??_R2Widget@Gtk@@8
    ??_R17?0A@EA@Object@Gtk@@8
    ??_R0?AVObject@Gtk@@@8
    ??_R3Object@Gtk@@8
    ??_R2Object@Gtk@@8
    ??_R1A@?0A@EA@Object@Gtk@@8
    ??_R1A@?0A@EA@Object@Glib@@8
    ??_R0?AVObject@Glib@@@8
    ??_R3Object@Glib@@8
    ??_R2Object@Glib@@8
    ??_R1A@A@7FA@ObjectBase@Glib@@8
    ??_R3ObjectBase@Glib@@8
    ??_R2ObjectBase@Glib@@8
    ??_R1A@?0A@EA@ObjectBase@Glib@@8
    ??_R1A@73FA@trackable@sigc@@8
    ??_R0?AUtrackable@sigc@@@8
    ??_R3trackable@sigc@@8
    ??_R2trackable@sigc@@8
    ??_R1A@?0A@EA@trackable@sigc@@8
    ??_R1A@A@3FA@trackable@sigc@@8
    ??_R17?0A@EA@Object@Glib@@8
    ??_R1A@77FA@ObjectBase@Glib@@8
    ??_R1BI@?0A@EA@Buildable@Gtk@@8
    ??_R0?AVBuildable@Gtk@@@8
    ??_R3Buildable@Gtk@@8
    ??_R2Buildable@Gtk@@8
    ??_R1A@?0A@EA@Buildable@Gtk@@8
    ??_R1A@?0A@EA@Interface@Glib@@8
    ??_R0?AVInterface@Glib@@@8
    ??_R3Interface@Glib@@8
    ??_R2Interface@Glib@@8
    ??_R1BI@?0A@EA@Interface@Glib@@8
    ??_R1BI@?0A@EC@Interface@Glib@@8
    ??_R1CA@?0A@EA@Orientable@Gtk@@8
    ??_R0?AVOrientable@Gtk@@@8
    ??_R3Orientable@Gtk@@8
    ??_R2Orientable@Gtk@@8
    ??_R1A@?0A@EA@Orientable@Gtk@@8
    ??_R1CA@?0A@EC@Interface@Glib@@8
    ??_R1CI@?0A@EA@AppChooser@Gtk@@8
    ??_R0?AVAppChooser@Gtk@@@8
    ??_R3AppChooser@Gtk@@8
    ??_R2AppChooser@Gtk@@8
    ??_R1A@?0A@EA@AppChooser@Gtk@@8
    ??_R1CI@?0A@EC@Interface@Glib@@8
    ??_R4AppChooserWidget@Gtk@@6BObject@1@@
    ?application_class_@Application@Gtk@@0VApplication_Class@2@A
    ??_C@_0N@IHKPMIOC@window?9added?$AA@
    ??_C@_0P@HFJGBACK@window?9removed?$AA@
    ?__empty_global_delete@@YAXPEAX@Z
    ?__empty_global_delete@@YAXPEAX_K@Z
    ??3@YAXPEAX0@Z
    ?to_cpp_type@?$TypeTraits@Vustring@Glib@@@Container_Helpers@Glib@@SA?AVustring@3@PEBD@Z
    ??1?$slot@XUnil@sigc@@U12@U12@U12@U12@U12@U12@@sigc@@QEAA@XZ
    ?value_type@?$Value@W4ApplicationInhibitFlags@Gtk@@@Glib@@SA_KXZ
    ??0Application@Gtk@@IEAA@AEBVConstructParams@Glib@@@Z
    ??0Application@Gtk@@IEAA@PEAU_GtkApplication@@@Z
    ??1Application@Gtk@@UEAA@XZ
    ?get_type@Application@Gtk@@SA_KXZ
    ?get_base_type@Application@Gtk@@SA_KXZ
    ?gobj_copy@Application@Gtk@@QEAAPEAU_GtkApplication@@XZ
    ??0Application@Gtk@@IEAA@AEBVustring@Glib@@W4ApplicationFlags@Gio@@@Z
    ??0Application@Gtk@@IEAA@AEAHAEAPEAPEADAEBVustring@Glib@@W4ApplicationFlags@Gio@@@Z
    ?create@Application@Gtk@@SA?AV?$RefPtr@VApplication@Gtk@@@Glib@@AEBVustring@4@W4ApplicationFlags@Gio@@@Z
    ?create@Application@Gtk@@SA?AV?$RefPtr@VApplication@Gtk@@@Glib@@AEAHAEAPEAPEADAEBVustring@4@W4ApplicationFlags@Gio@@@Z
    ?get_windows@Application@Gtk@@QEAA?AV?$vector@PEAVWindow@Gtk@@V?$allocator@PEAVWindow@Gtk@@@std@@@std@@XZ
    ?get_windows@Application@Gtk@@QEBA?AV?$vector@PEBVWindow@Gtk@@V?$allocator@PEBVWindow@Gtk@@@std@@@std@@XZ
    ?add_window@Application@Gtk@@QEAAXAEAVWindow@2@@Z
    ?remove_window@Application@Gtk@@QEAAXAEAVWindow@2@@Z
    ?run@Application@Gtk@@QEAAHHPEAPEAD@Z
    ?run@Application@Gtk@@QEAAHAEAVWindow@2@HPEAPEAD@Z
    ?run@Application@Gtk@@QEAAHAEAVWindow@2@@Z
    ?run@Application@Gtk@@QEAAHXZ
    ?get_app_menu@Application@Gtk@@QEAA?AV?$RefPtr@VMenuModel@Gio@@@Glib@@XZ
    ?get_app_menu@Application@Gtk@@QEBA?AV?$RefPtr@$$CBVMenuModel@Gio@@@Glib@@XZ
    ?set_app_menu@Application@Gtk@@QEAAXAEBV?$RefPtr@VMenuModel@Gio@@@Glib@@@Z
    ?get_menubar@Application@Gtk@@QEAA?AV?$RefPtr@VMenuModel@Gio@@@Glib@@XZ
    ?get_menubar@Application@Gtk@@QEBA?AV?$RefPtr@$$CBVMenuModel@Gio@@@Glib@@XZ
    ?set_menubar@Application@Gtk@@QEAAXAEBV?$RefPtr@VMenuModel@Gio@@@Glib@@@Z
    ?add_accelerator@Application@Gtk@@QEAAXAEBVustring@Glib@@0PEAU_GVariant@@@Z
    ?add_accelerator@Application@Gtk@@QEAAXAEBVustring@Glib@@0@Z
    ?remove_accelerator@Application@Gtk@@QEAAXAEBVustring@Glib@@PEAU_GVariant@@@Z
    ?remove_accelerator@Application@Gtk@@QEAAXAEBVustring@Glib@@@Z
    ?inhibit@Application@Gtk@@QEAAIAEAVWindow@2@W4ApplicationInhibitFlags@2@AEBVustring@Glib@@@Z
    ?uninhibit@Application@Gtk@@QEAAXI@Z
    ?is_inhibited@Application@Gtk@@QEBA_NW4ApplicationInhibitFlags@2@@Z
    ?get_window_by_id@Application@Gtk@@QEAAPEAVWindow@2@I@Z
    ?get_window_by_id@Application@Gtk@@QEBAPEBVWindow@2@I@Z
    ?get_active_window@Application@Gtk@@QEAAPEAVWindow@2@XZ
    ?get_active_window@Application@Gtk@@QEBAPEBVWindow@2@XZ
    ?list_action_descriptions@Application@Gtk@@QEBA?AV?$vector@Vustring@Glib@@V?$allocator@Vustring@Glib@@@std@@@std@@XZ
    ?get_accels_for_action@Application@Gtk@@QEBA?AV?$vector@Vustring@Glib@@V?$allocator@Vustring@Glib@@@std@@@std@@AEBVustring@Glib@@@Z
    ?get_actions_for_accel@Application@Gtk@@QEBA?AV?$vector@Vustring@Glib@@V?$allocator@Vustring@Glib@@@std@@@std@@AEBVustring@Glib@@@Z
    ?set_accels_for_action@Application@Gtk@@QEAAXAEBVustring@Glib@@AEBV?$vector@Vustring@Glib@@V?$allocator@Vustring@Glib@@@std@@@std@@@Z
    ?set_accel_for_action@Application@Gtk@@QEAAXAEBVustring@Glib@@0@Z
    ?unset_accels_for_action@Application@Gtk@@QEAAXAEBVustring@Glib@@@Z
    ?prefers_app_menu@Application@Gtk@@QEBA_NXZ
    ?get_menu_by_id@Application@Gtk@@QEAA?AV?$RefPtr@VMenu@Gio@@@Glib@@AEBVustring@4@@Z
    ?get_menu_by_id@Application@Gtk@@QEBA?AV?$RefPtr@$$CBVMenu@Gio@@@Glib@@AEBVustring@4@@Z
    ?property_app_menu@Application@Gtk@@QEAA?AV?$PropertyProxy@V?$RefPtr@VMenuModel@Gio@@@Glib@@@Glib@@XZ
    ?property_app_menu@Application@Gtk@@QEBA?AV?$PropertyProxy_ReadOnly@V?$RefPtr@VMenuModel@Gio@@@Glib@@@Glib@@XZ
    ?property_menubar@Application@Gtk@@QEAA?AV?$PropertyProxy@V?$RefPtr@VMenuModel@Gio@@@Glib@@@Glib@@XZ
    ?property_menubar@Application@Gtk@@QEBA?AV?$PropertyProxy_ReadOnly@V?$RefPtr@VMenuModel@Gio@@@Glib@@@Glib@@XZ
    ?property_register_session@Application@Gtk@@QEAA?AV?$PropertyProxy@_N@Glib@@XZ
    ?property_register_session@Application@Gtk@@QEBA?AV?$PropertyProxy_ReadOnly@_N@Glib@@XZ
    ?property_active_window@Application@Gtk@@QEBA?AV?$PropertyProxy_ReadOnly@PEAVWindow@Gtk@@@Glib@@XZ
    ?signal_window_added@Application@Gtk@@QEAA?AV?$SignalProxy1@XPEAVWindow@Gtk@@@Glib@@XZ
    ?signal_window_removed@Application@Gtk@@QEAA?AV?$SignalProxy1@XPEAVWindow@Gtk@@@Glib@@XZ
    ?custom_class_init@Application@Gtk@@AEAAAEBVClass@Glib@@XZ
    ?on_activate_add_and_show_main_window@Application@Gtk@@AEAAXPEAVWindow@2@@Z
    ?on_window_hide@Application@Gtk@@AEAAXPEAVWindow@2@@Z
    ?on_window_added@Application@Gtk@@MEAAXPEAVWindow@2@@Z
    ?on_window_removed@Application@Gtk@@MEAAXPEAVWindow@2@@Z
    ?wrap@Glib@@YA?AV?$RefPtr@VApplication@Gtk@@@1@PEAU_GtkApplication@@_N@Z
    ?init@Application_Class@Gtk@@QEAAAEBVClass@Glib@@XZ
    ?class_init_function@Application_Class@Gtk@@SAXPEAX0@Z
    ?wrap_new@Application_Class@Gtk@@SAPEAVObjectBase@Glib@@PEAU_GObject@@@Z
    ?window_added_callback@Application_Class@Gtk@@KAXPEAU_GtkApplication@@PEAU_GtkWindow@@@Z
    ?window_removed_callback@Application_Class@Gtk@@KAXPEAU_GtkApplication@@PEAU_GtkWindow@@@Z
    ?connect@?$SignalProxy0@X@Glib@@QEAA?AUconnection@sigc@@AEBV?$slot@XUnil@sigc@@U12@U12@U12@U12@U12@U12@@4@_N@Z
    ??1?$SignalProxy0@X@Glib@@QEAA@XZ
    ??R?$bound_mem_functor1@XVApplication@Gtk@@PEAVWindow@2@@sigc@@QEBAXAEBQEAVWindow@Gtk@@@Z
    ?deallocate@?$allocator@Vustring@Glib@@@std@@QEAAXPEAVustring@Glib@@_K@Z
    ?allocate@?$allocator@Vustring@Glib@@@std@@QEAAPEAVustring@Glib@@_K@Z
    ??1?$vector@Vustring@Glib@@V?$allocator@Vustring@Glib@@@std@@@std@@QEAA@XZ
    ?_Reallocate@?$vector@Vustring@Glib@@V?$allocator@Vustring@Glib@@@std@@@std@@IEAAX_K@Z
    ?_Tidy@?$vector@Vustring@Glib@@V?$allocator@Vustring@Glib@@@std@@@std@@IEAAXXZ
    ?allocate@?$allocator@PEAVWindow@Gtk@@@std@@QEAAPEAPEAVWindow@Gtk@@_K@Z
    ?list_to_vector@?$ListHandler@PEAVWindow@Gtk@@U?$TypeTraits@PEAVWindow@Gtk@@@Container_Helpers@Glib@@@Glib@@SA?AV?$vector@PEAVWindow@Gtk@@V?$allocator@PEAVWindow@Gtk@@@std@@@std@@PEAU_GList@@W4OwnershipType@2@@Z
    ?allocate@?$allocator@PEBVWindow@Gtk@@@std@@QEAAPEAPEBVWindow@Gtk@@_K@Z
    ?list_to_vector@?$ListHandler@PEBVWindow@Gtk@@U?$TypeTraits@PEBVWindow@Gtk@@@Container_Helpers@Glib@@@Glib@@SA?AV?$vector@PEBVWindow@Gtk@@V?$allocator@PEBVWindow@Gtk@@@std@@@std@@PEAU_GList@@W4OwnershipType@2@@Z
    ??1?$RefPtr@VMenuModel@Gio@@@Glib@@QEAA@XZ
    ??1?$RefPtr@$$CBVMenuModel@Gio@@@Glib@@QEAA@XZ
    ?array_to_vector@?$ArrayHandler@Vustring@Glib@@U?$TypeTraits@Vustring@Glib@@@Container_Helpers@2@@Glib@@SA?AV?$vector@Vustring@Glib@@V?$allocator@Vustring@Glib@@@std@@@std@@PEBQEBD_KW4OwnershipType@2@@Z
    ?array_to_vector@?$ArrayHandler@Vustring@Glib@@U?$TypeTraits@Vustring@Glib@@@Container_Helpers@2@@Glib@@SA?AV?$vector@Vustring@Glib@@V?$allocator@Vustring@Glib@@@std@@@std@@PEBQEBDW4OwnershipType@2@@Z
    ?vector_to_array@?$ArrayHandler@Vustring@Glib@@U?$TypeTraits@Vustring@Glib@@@Container_Helpers@2@@Glib@@SA?AV?$ArrayKeeper@U?$TypeTraits@Vustring@Glib@@@Container_Helpers@Glib@@@Container_Helpers@2@AEBV?$vector@Vustring@Glib@@V?$allocator@Vustring@Glib@@@std@@@std@@@Z
    ??1?$ArrayKeeper@U?$TypeTraits@Vustring@Glib@@@Container_Helpers@Glib@@@Container_Helpers@Glib@@QEAA@XZ
    ??1?$RefPtr@VMenu@Gio@@@Glib@@QEAA@XZ
    ??1?$RefPtr@$$CBVMenu@Gio@@@Glib@@QEAA@XZ
    ??$_Deallocate@PEBVWindow@Gtk@@@std@@YAXPEAPEBVWindow@Gtk@@_K@Z
    ??$_Deallocate@PEAVWindow@Gtk@@@std@@YAXPEAPEAVWindow@Gtk@@_K@Z
    ??1?$GListKeeper@U?$TypeTraits@PEAVWindow@Gtk@@@Container_Helpers@Glib@@@Container_Helpers@Glib@@QEAA@XZ
    ??1?$GListKeeper@U?$TypeTraits@PEBVWindow@Gtk@@@Container_Helpers@Glib@@@Container_Helpers@Glib@@QEAA@XZ
    ??$create_array@U?$TypeTraits@Vustring@Glib@@@Container_Helpers@Glib@@@Container_Helpers@Glib@@YAPEAPEBDV?$_Vector_const_iterator@V?$_Vector_val@U?$_Simple_types@Vustring@Glib@@@std@@@std@@@std@@_K@Z
    ??D?$ArrayIterator@U?$TypeTraits@Vustring@Glib@@@Container_Helpers@Glib@@@Container_Helpers@Glib@@QEBA?AVustring@2@XZ
    ??0?$typed_slot_rep@U?$bind_functor@$0?0V?$bound_mem_functor1@XVApplication@Gtk@@PEAVWindow@2@@sigc@@PEAVWindow@Gtk@@Unil@2@U52@U52@U52@U52@U52@@sigc@@@internal@sigc@@QEAA@AEBU012@@Z
    ?destroy@?$typed_slot_rep@U?$bind_functor@$0?0V?$bound_mem_functor1@XVApplication@Gtk@@PEAVWindow@2@@sigc@@PEAVWindow@Gtk@@Unil@2@U52@U52@U52@U52@U52@@sigc@@@internal@sigc@@SAPEAXPEAX@Z
    ?dup@?$typed_slot_rep@U?$bind_functor@$0?0V?$bound_mem_functor1@XVApplication@Gtk@@PEAVWindow@2@@sigc@@PEAVWindow@Gtk@@Unil@2@U52@U52@U52@U52@U52@@sigc@@@internal@sigc@@SAPEAXPEAX@Z
    ?call_it@?$slot_call0@U?$bind_functor@$0?0V?$bound_mem_functor1@XVApplication@Gtk@@PEAVWindow@2@@sigc@@PEAVWindow@Gtk@@Unil@2@U52@U52@U52@U52@U52@@sigc@@X@internal@sigc@@SAXPEAUslot_rep@23@@Z
    ??$visit_each_type@PEAUtrackable@sigc@@Uslot_do_bind@internal@2@U?$bind_functor@$0?0V?$bound_mem_functor1@XVApplication@Gtk@@PEAVWindow@2@@sigc@@PEAVWindow@Gtk@@Unil@2@U52@U52@U52@U52@U52@@2@@sigc@@YAXAEBUslot_do_bind@internal@0@AEBU?$bind_functor@$0?0V?$bound_mem_functor1@XVApplication@Gtk@@PEAVWindow@2@@sigc@@PEAVWindow@Gtk@@Unil@2@U52@U52@U52@U52@U52@@0@@Z
    ??$visit_each_type@PEAUtrackable@sigc@@Uslot_do_unbind@internal@2@U?$bind_functor@$0?0V?$bound_mem_functor1@XVApplication@Gtk@@PEAVWindow@2@@sigc@@PEAVWindow@Gtk@@Unil@2@U52@U52@U52@U52@U52@@2@@sigc@@YAXAEBUslot_do_unbind@internal@0@AEBU?$bind_functor@$0?0V?$bound_mem_functor1@XVApplication@Gtk@@PEAVWindow@2@@sigc@@PEAVWindow@Gtk@@Unil@2@U52@U52@U52@U52@U52@@0@@Z
    ??$_Construct@V?$ListIterator@U?$TypeTraits@PEAVWindow@Gtk@@@Container_Helpers@Glib@@@Container_Helpers@Glib@@@?$vector@PEAVWindow@Gtk@@V?$allocator@PEAVWindow@Gtk@@@std@@@std@@QEAAXV?$ListIterator@U?$TypeTraits@PEAVWindow@Gtk@@@Container_Helpers@Glib@@@Container_Helpers@Glib@@0Uforward_iterator_tag@1@@Z
    ??$_Construct@V?$ListIterator@U?$TypeTraits@PEBVWindow@Gtk@@@Container_Helpers@Glib@@@Container_Helpers@Glib@@@?$vector@PEBVWindow@Gtk@@V?$allocator@PEBVWindow@Gtk@@@std@@@std@@QEAAXV?$ListIterator@U?$TypeTraits@PEBVWindow@Gtk@@@Container_Helpers@Glib@@@Container_Helpers@Glib@@0Uforward_iterator_tag@1@@Z
    ??$_Uninit_move@PEAVustring@Glib@@PEAV12@V?$allocator@Vustring@Glib@@@std@@V12@@std@@YAPEAVustring@Glib@@PEAV12@00AEAU?$_Wrap_alloc@V?$allocator@Vustring@Glib@@@std@@@0@0U_Nonscalar_ptr_iterator_tag@0@@Z
    ??$visit_each@U?$limit_derived_target@PEAUtrackable@sigc@@Uslot_do_bind@internal@2@@internal@sigc@@U?$bind_functor@$0?0V?$bound_mem_functor1@XVApplication@Gtk@@PEAVWindow@2@@sigc@@PEAVWindow@Gtk@@Unil@2@U52@U52@U52@U52@U52@@3@@sigc@@YAXAEBU?$limit_derived_target@PEAUtrackable@sigc@@Uslot_do_bind@internal@2@@internal@0@AEBU?$bind_functor@$0?0V?$bound_mem_functor1@XVApplication@Gtk@@PEAVWindow@2@@sigc@@PEAVWindow@Gtk@@Unil@2@U52@U52@U52@U52@U52@@0@@Z
    ??$visit_each@U?$limit_derived_target@PEAUtrackable@sigc@@Uslot_do_unbind@internal@2@@internal@sigc@@U?$bind_functor@$0?0V?$bound_mem_functor1@XVApplication@Gtk@@PEAVWindow@2@@sigc@@PEAVWindow@Gtk@@Unil@2@U52@U52@U52@U52@U52@@3@@sigc@@YAXAEBU?$limit_derived_target@PEAUtrackable@sigc@@Uslot_do_unbind@internal@2@@internal@0@AEBU?$bind_functor@$0?0V?$bound_mem_functor1@XVApplication@Gtk@@PEAVWindow@2@@sigc@@PEAVWindow@Gtk@@Unil@2@U52@U52@U52@U52@U52@@0@@Z
    ??$_Construct@V?$ArrayIterator@U?$TypeTraits@Vustring@Glib@@@Container_Helpers@Glib@@@Container_Helpers@Glib@@@?$vector@Vustring@Glib@@V?$allocator@Vustring@Glib@@@std@@@std@@QEAAXV?$ArrayIterator@U?$TypeTraits@Vustring@Glib@@@Container_Helpers@Glib@@@Container_Helpers@Glib@@0Uforward_iterator_tag@1@@Z
    ??$visit_each@U?$limit_derived_target@PEAUtrackable@sigc@@Uslot_do_bind@internal@2@@internal@sigc@@U?$adaptor_functor@V?$bound_mem_functor1@XVApplication@Gtk@@PEAVWindow@2@@sigc@@@3@@sigc@@YAXAEBU?$limit_derived_target@PEAUtrackable@sigc@@Uslot_do_bind@internal@2@@internal@0@AEBU?$adaptor_functor@V?$bound_mem_functor1@XVApplication@Gtk@@PEAVWindow@2@@sigc@@@0@@Z
    ??$visit_each@U?$limit_derived_target@PEAUtrackable@sigc@@Uslot_do_bind@internal@2@@internal@sigc@@V?$bound_argument@PEAVWindow@Gtk@@@3@@sigc@@YAXAEBU?$limit_derived_target@PEAUtrackable@sigc@@Uslot_do_bind@internal@2@@internal@0@AEBV?$bound_argument@PEAVWindow@Gtk@@@0@@Z
    ??$visit_each@U?$limit_derived_target@PEAUtrackable@sigc@@Uslot_do_unbind@internal@2@@internal@sigc@@U?$adaptor_functor@V?$bound_mem_functor1@XVApplication@Gtk@@PEAVWindow@2@@sigc@@@3@@sigc@@YAXAEBU?$limit_derived_target@PEAUtrackable@sigc@@Uslot_do_unbind@internal@2@@internal@0@AEBU?$adaptor_functor@V?$bound_mem_functor1@XVApplication@Gtk@@PEAVWindow@2@@sigc@@@0@@Z
    ??$visit_each@U?$limit_derived_target@PEAUtrackable@sigc@@Uslot_do_unbind@internal@2@@internal@sigc@@V?$bound_argument@PEAVWindow@Gtk@@@3@@sigc@@YAXAEBU?$limit_derived_target@PEAUtrackable@sigc@@Uslot_do_unbind@internal@2@@internal@0@AEBV?$bound_argument@PEAVWindow@Gtk@@@0@@Z
    ??$_Uninit_copy@V?$ListIterator@U?$TypeTraits@PEAVWindow@Gtk@@@Container_Helpers@Glib@@@Container_Helpers@Glib@@PEAPEAVWindow@Gtk@@V?$allocator@PEAVWindow@Gtk@@@std@@@std@@YAPEAPEAVWindow@Gtk@@V?$ListIterator@U?$TypeTraits@PEAVWindow@Gtk@@@Container_Helpers@Glib@@@Container_Helpers@Glib@@0PEAPEAV12@AEAU?$_Wrap_alloc@V?$allocator@PEAVWindow@Gtk@@@std@@@0@U_Nonscalar_ptr_iterator_tag@0@@Z
    ??$_Uninit_copy@V?$ListIterator@U?$TypeTraits@PEBVWindow@Gtk@@@Container_Helpers@Glib@@@Container_Helpers@Glib@@PEAPEBVWindow@Gtk@@V?$allocator@PEBVWindow@Gtk@@@std@@@std@@YAPEAPEBVWindow@Gtk@@V?$ListIterator@U?$TypeTraits@PEBVWindow@Gtk@@@Container_Helpers@Glib@@@Container_Helpers@Glib@@0PEAPEBV12@AEAU?$_Wrap_alloc@V?$allocator@PEBVWindow@Gtk@@@std@@@0@U_Nonscalar_ptr_iterator_tag@0@@Z
    ??$visit_each@U?$limit_derived_target@PEAUtrackable@sigc@@Uslot_do_bind@internal@2@@internal@sigc@@V?$bound_mem_functor1@XVApplication@Gtk@@PEAVWindow@2@@3@@sigc@@YAXAEBU?$limit_derived_target@PEAUtrackable@sigc@@Uslot_do_bind@internal@2@@internal@0@AEBV?$bound_mem_functor1@XVApplication@Gtk@@PEAVWindow@2@@0@@Z
    ??$visit_each@U?$limit_derived_target@PEAUtrackable@sigc@@Uslot_do_bind@internal@2@@internal@sigc@@PEAVWindow@Gtk@@@sigc@@YAXAEBU?$limit_derived_target@PEAUtrackable@sigc@@Uslot_do_bind@internal@2@@internal@0@AEBQEAVWindow@Gtk@@@Z
    ??$visit_each@U?$limit_derived_target@PEAUtrackable@sigc@@Uslot_do_unbind@internal@2@@internal@sigc@@V?$bound_mem_functor1@XVApplication@Gtk@@PEAVWindow@2@@3@@sigc@@YAXAEBU?$limit_derived_target@PEAUtrackable@sigc@@Uslot_do_unbind@internal@2@@internal@0@AEBV?$bound_mem_functor1@XVApplication@Gtk@@PEAVWindow@2@@0@@Z
    ??$visit_each@U?$limit_derived_target@PEAUtrackable@sigc@@Uslot_do_unbind@internal@2@@internal@sigc@@PEAVWindow@Gtk@@@sigc@@YAXAEBU?$limit_derived_target@PEAUtrackable@sigc@@Uslot_do_unbind@internal@2@@internal@0@AEBQEAVWindow@Gtk@@@Z
    ??$_Uninit_copy@V?$ArrayIterator@U?$TypeTraits@Vustring@Glib@@@Container_Helpers@Glib@@@Container_Helpers@Glib@@PEAVustring@3@V?$allocator@Vustring@Glib@@@std@@@std@@YAPEAVustring@Glib@@V?$ArrayIterator@U?$TypeTraits@Vustring@Glib@@@Container_Helpers@Glib@@@Container_Helpers@2@0PEAV12@AEAU?$_Wrap_alloc@V?$allocator@Vustring@Glib@@@std@@@0@U_Nonscalar_ptr_iterator_tag@0@@Z
    ??$visit_each@U?$limit_derived_target@PEAUtrackable@sigc@@Uslot_do_bind@internal@2@@internal@sigc@@V?$limit_reference@VApplication@Gtk@@$00@3@@sigc@@YAXAEBU?$limit_derived_target@PEAUtrackable@sigc@@Uslot_do_bind@internal@2@@internal@0@AEBV?$limit_reference@VApplication@Gtk@@$00@0@@Z
    ??$visit_each@U?$limit_derived_target@PEAUtrackable@sigc@@Uslot_do_unbind@internal@2@@internal@sigc@@V?$limit_reference@VApplication@Gtk@@$00@3@@sigc@@YAXAEBU?$limit_derived_target@PEAUtrackable@sigc@@Uslot_do_unbind@internal@2@@internal@0@AEBV?$limit_reference@VApplication@Gtk@@$00@0@@Z
    ??$visit_each@U?$limit_derived_target@PEAUtrackable@sigc@@Uslot_do_bind@internal@2@@internal@sigc@@Utrackable@3@@sigc@@YAXAEBU?$limit_derived_target@PEAUtrackable@sigc@@Uslot_do_bind@internal@2@@internal@0@AEBUtrackable@0@@Z
    ??$visit_each@U?$limit_derived_target@PEAUtrackable@sigc@@Uslot_do_unbind@internal@2@@internal@sigc@@Utrackable@3@@sigc@@YAXAEBU?$limit_derived_target@PEAUtrackable@sigc@@Uslot_do_unbind@internal@2@@internal@0@AEBUtrackable@0@@Z
    ??_7Application@Gtk@@6BActionGroup@Gio@@@
    ??_7Application@Gtk@@6BActionMap@Gio@@@
    ??_7Application@Gtk@@6B@
    ??_8Application@Gtk@@7BObject@Glib@@@
    ??_8Application@Gtk@@7BInterface@Glib@@ActionGroup@Gio@@@
    ??_8Application@Gtk@@7BInterface@Glib@@ActionMap@Gio@@@
    ??_8Application@Gtk@@7BObjectBase@Glib@@@
    ??_C@_05GECEPKB@flags?$AA@
    ??_C@_0P@MIBGKNHF@application_id?$AA@
    ??_R0?AVObjectBase@Glib@@@8
    ??_R0?AVApplication@Gtk@@@8
    ??_C@_08NELPPGLB@app?9menu?$AA@
    ??_C@_07MOECHCMA@menubar?$AA@
    ??_C@_0BB@IIIJPIOB@register?9session?$AA@
    ??_C@_0O@LICNHABB@active?9window?$AA@
    ??_C@_0BD@OLBABOEK@vector?$DMT?$DO?5too?5long?$AA@
    ??_R0?AVWindow@Gtk@@@8
    ??_R4Application@Gtk@@6BActionGroup@Gio@@@
    ??_R3Application@Gtk@@8
    ??_R2Application@Gtk@@8
    ??_R1A@?0A@EA@Application@Gtk@@8
    ??_R1A@?0A@EA@Application@Gio@@8
    ??_R0?AVApplication@Gio@@@8
    ??_R3Application@Gio@@8
    ??_R2Application@Gio@@8
    ??_R1CA@?0A@EA@Object@Glib@@8
    ??_R0?AVObject@Glib@@@8
    ??_R3Object@Glib@@8
    ??_R2Object@Glib@@8
    ??_R1A@?0A@EA@Object@Glib@@8
    ??_R1A@A@7FA@ObjectBase@Glib@@8
    ??_R3ObjectBase@Glib@@8
    ??_R2ObjectBase@Glib@@8
    ??_R1A@?0A@EA@ObjectBase@Glib@@8
    ??_R1A@73FA@trackable@sigc@@8
    ??_R0?AUtrackable@sigc@@@8
    ??_R3trackable@sigc@@8
    ??_R2trackable@sigc@@8
    ??_R1A@?0A@EA@trackable@sigc@@8
    ??_R1A@A@3FA@trackable@sigc@@8
    ??_R1A@CA@7FA@ObjectBase@Glib@@8
    ??_R1A@CA@3FA@trackable@sigc@@8
    ??_R1A@?0A@EA@ActionGroup@Gio@@8
    ??_R0?AVActionGroup@Gio@@@8
    ??_R3ActionGroup@Gio@@8
    ??_R2ActionGroup@Gio@@8
    ??_R17?0A@EA@Interface@Glib@@8
    ??_R0?AVInterface@Glib@@@8
    ??_R3Interface@Glib@@8
    ??_R2Interface@Glib@@8
    ??_R1A@?0A@EA@Interface@Glib@@8
    ??_R1A@77FA@ObjectBase@Glib@@8
    ??_R17?0A@EC@Interface@Glib@@8
    ??_R1BA@?0A@EA@ActionMap@Gio@@8
    ??_R0?AVActionMap@Gio@@@8
    ??_R3ActionMap@Gio@@8
    ??_R2ActionMap@Gio@@8
    ??_R1A@?0A@EA@ActionMap@Gio@@8
    ??_R1BI@?0A@EC@Interface@Glib@@8
    ??_R4Application@Gtk@@6BActionMap@Gio@@@
    ??_R4Application@Gtk@@6B@
    ?applicationwindow_class_@ApplicationWindow@Gtk@@0VApplicationWindow_Class@2@A
    ?__empty_global_delete@@YAXPEAX@Z
    ?__empty_global_delete@@YAXPEAX_K@Z
    ??0ApplicationWindow@Gtk@@IEAA@AEBVConstructParams@Glib@@@Z
    ??0ApplicationWindow@Gtk@@IEAA@PEAU_GtkApplicationWindow@@@Z
    ??1ApplicationWindow@Gtk@@UEAA@XZ
    ?get_type@ApplicationWindow@Gtk@@SA_KXZ
    ?get_base_type@ApplicationWindow@Gtk@@SA_KXZ
    ?gobj_copy@ApplicationWindow@Gtk@@QEAAPEAU_GtkApplicationWindow@@XZ
    ??0ApplicationWindow@Gtk@@QEAA@XZ
    ??0ApplicationWindow@Gtk@@QEAA@AEBV?$RefPtr@VApplication@Gtk@@@Glib@@@Z
    ?set_show_menubar@ApplicationWindow@Gtk@@QEAAX_N@Z
    ?get_show_menubar@ApplicationWindow@Gtk@@QEBA_NXZ
    ?get_id@ApplicationWindow@Gtk@@QEBAIXZ
    ?property_show_menubar@ApplicationWindow@Gtk@@QEAA?AV?$PropertyProxy@_N@Glib@@XZ
    ?property_show_menubar@ApplicationWindow@Gtk@@QEBA?AV?$PropertyProxy_ReadOnly@_N@Glib@@XZ
    ?wrap@Glib@@YA?AV?$RefPtr@VApplicationWindow@Gtk@@@1@PEAU_GtkApplicationWindow@@_N@Z
    ?init@ApplicationWindow_Class@Gtk@@QEAAAEBVClass@Glib@@XZ
    ?class_init_function@ApplicationWindow_Class@Gtk@@SAXPEAX0@Z
    ?wrap_new@ApplicationWindow_Class@Gtk@@SAPEAVObjectBase@Glib@@PEAU_GObject@@@Z
    ?destroy_notify_@Object@Gtk@@$2PPPPPPPM@DA@EAAXXZ
    ?set_manage@Window@Gtk@@$4PPPPPPPM@CA@EAAXXZ
    ??_7ApplicationWindow@Gtk@@6BWidget@1@@
    ??_7ApplicationWindow@Gtk@@6BActionGroup@Gio@@@
    ??_7ApplicationWindow@Gtk@@6BActionMap@Gio@@@
    ??_7ApplicationWindow@Gtk@@6BObject@1@@
    ??_8ApplicationWindow@Gtk@@7BObject@Glib@@@
    ??_8ApplicationWindow@Gtk@@7BInterface@Glib@@Window@1@@
    ??_8ApplicationWindow@Gtk@@7BInterface@Glib@@ActionGroup@Gio@@@
    ??_8ApplicationWindow@Gtk@@7BInterface@Glib@@ActionMap@Gio@@@
    ??_8ApplicationWindow@Gtk@@7BObjectBase@Glib@@@
    ??_R0?AVObjectBase@Glib@@@8
    ??_R0?AVApplicationWindow@Gtk@@@8
    ??_C@_0M@MBDKLJIJ@application?$AA@
    ??_C@_0N@CJHDHIHM@show?9menubar?$AA@
    ??_R4ApplicationWindow@Gtk@@6BWidget@1@@
    ??_R3ApplicationWindow@Gtk@@8
    ??_R2ApplicationWindow@Gtk@@8
    ??_R1A@?0A@EA@ApplicationWindow@Gtk@@8
    ??_R1A@?0A@EA@Window@Gtk@@8
    ??_R0?AVWindow@Gtk@@@8
    ??_R3Window@Gtk@@8
    ??_R2Window@Gtk@@8
    ??_R1A@?0A@EA@Bin@Gtk@@8
    ??_R0?AVBin@Gtk@@@8
    ??_R3Bin@Gtk@@8
    ??_R2Bin@Gtk@@8
    ??_R1A@?0A@EA@Container@Gtk@@8
    ??_R0?AVContainer@Gtk@@@8
    ??_R3Container@Gtk@@8
    ??_R2Container@Gtk@@8
    ??_R1A@?0A@EA@Widget@Gtk@@8
    ??_R0?AVWidget@Gtk@@@8
    ??_R3Widget@Gtk@@8
    ??_R2Widget@Gtk@@8
    ??_R17?0A@EA@Object@Gtk@@8
    ??_R0?AVObject@Gtk@@@8
    ??_R3Object@Gtk@@8
    ??_R2Object@Gtk@@8
    ??_R1A@?0A@EA@Object@Gtk@@8
    ??_R1A@?0A@EA@Object@Glib@@8
    ??_R0?AVObject@Glib@@@8
    ??_R3Object@Glib@@8
    ??_R2Object@Glib@@8
    ??_R1A@A@7FA@ObjectBase@Glib@@8
    ??_R3ObjectBase@Glib@@8
    ??_R2ObjectBase@Glib@@8
    ??_R1A@?0A@EA@ObjectBase@Glib@@8
    ??_R1A@73FA@trackable@sigc@@8
    ??_R0?AUtrackable@sigc@@@8
    ??_R3trackable@sigc@@8
    ??_R2trackable@sigc@@8
    ??_R1A@?0A@EA@trackable@sigc@@8
    ??_R1A@A@3FA@trackable@sigc@@8
    ??_R17?0A@EA@Object@Glib@@8
    ??_R1A@77FA@ObjectBase@Glib@@8
    ??_R1BI@?0A@EA@Buildable@Gtk@@8
    ??_R0?AVBuildable@Gtk@@@8
    ??_R3Buildable@Gtk@@8
    ??_R2Buildable@Gtk@@8
    ??_R1A@?0A@EA@Buildable@Gtk@@8
    ??_R1A@?0A@EA@Interface@Glib@@8
    ??_R0?AVInterface@Glib@@@8
    ??_R3Interface@Glib@@8
    ??_R2Interface@Glib@@8
    ??_R1BI@?0A@EA@Interface@Glib@@8
    ??_R1BI@?0A@EC@Interface@Glib@@8
    ??_R1CI@?0A@EA@ActionGroup@Gio@@8
    ??_R0?AVActionGroup@Gio@@@8
    ??_R3ActionGroup@Gio@@8
    ??_R2ActionGroup@Gio@@8
    ??_R1A@?0A@EA@ActionGroup@Gio@@8
    ??_R17?0A@EA@Interface@Glib@@8
    ??_R1DA@?0A@EC@Interface@Glib@@8
    ??_R1DI@?0A@EA@ActionMap@Gio@@8
    ??_R0?AVActionMap@Gio@@@8
    ??_R3ActionMap@Gio@@8
    ??_R2ActionMap@Gio@@8
    ??_R1A@?0A@EA@ActionMap@Gio@@8
    ??_R1EA@?0A@EC@Interface@Glib@@8
    ??_R4ApplicationWindow@Gtk@@6BActionGroup@Gio@@@
    ??_R4ApplicationWindow@Gtk@@6BActionMap@Gio@@@
    ??_R4ApplicationWindow@Gtk@@6BObject@1@@
    ?arrow_class_@Arrow@Gtk@@0VArrow_Class@2@A
    ?__empty_global_delete@@YAXPEAX@Z
    ?__empty_global_delete@@YAXPEAX_K@Z
    ??1Arrow@Gtk@@UEAA@XZ
    ??0Arrow@Gtk@@IEAA@AEBVConstructParams@Glib@@@Z
    ??0Arrow@Gtk@@IEAA@PEAU_GtkArrow@@@Z
    ?get_type@Arrow@Gtk@@SA_KXZ
    ?get_base_type@Arrow@Gtk@@SA_KXZ
    ??0Arrow@Gtk@@QEAA@W4ArrowType@1@W4ShadowType@1@@Z
    ?set@Arrow@Gtk@@QEAAXW4ArrowType@2@W4ShadowType@2@@Z
    ?property_arrow_type@Arrow@Gtk@@QEAA?AV?$PropertyProxy@W4ArrowType@Gtk@@@Glib@@XZ
    ?property_arrow_type@Arrow@Gtk@@QEBA?AV?$PropertyProxy_ReadOnly@W4ArrowType@Gtk@@@Glib@@XZ
    ?property_shadow_type@Arrow@Gtk@@QEAA?AV?$PropertyProxy@W4ShadowType@Gtk@@@Glib@@XZ
    ?property_shadow_type@Arrow@Gtk@@QEBA?AV?$PropertyProxy_ReadOnly@W4ShadowType@Gtk@@@Glib@@XZ
    ??_DArrow@Gtk@@QEAAXXZ
    ?wrap@Glib@@YAPEAVArrow@Gtk@@PEAU_GtkArrow@@_N@Z
    ?init@Arrow_Class@Gtk@@QEAAAEBVClass@Glib@@XZ
    ?class_init_function@Arrow_Class@Gtk@@SAXPEAX0@Z
    ?wrap_new@Arrow_Class@Gtk@@SAPEAVObjectBase@Glib@@PEAU_GObject@@@Z
    ??$manage@VArrow@Gtk@@@Gtk@@YAPEAVArrow@0@PEAV10@@Z
    ?destroy_notify_@Object@Gtk@@$2PPPPPPPM@7EAAXXZ
    ?set_manage@Object@Gtk@@$4PPPPPPPM@7EAAXXZ
    ??_7Arrow@Gtk@@6BWidget@1@@
    ??_7Arrow@Gtk@@6BObject@1@@
    ??_8Arrow@Gtk@@7BObject@Glib@@@
    ??_8Arrow@Gtk@@7BInterface@Glib@@@
    ??_8Arrow@Gtk@@7BObjectBase@Glib@@@
    ??_R0?AVObjectBase@Glib@@@8
    ??_R0?AVArrow@Gtk@@@8
    ??_C@_0M@IJIBBKDE@shadow_type?$AA@
    ??_C@_0L@KCAJABCG@arrow_type?$AA@
    ??_C@_0L@OEODKNOM@arrow?9type?$AA@
    ??_C@_0M@MPGLLGPO@shadow?9type?$AA@
    ??_R4Arrow@Gtk@@6BWidget@1@@
    ??_R3Arrow@Gtk@@8
    ??_R2Arrow@Gtk@@8
    ??_R1A@?0A@EA@Arrow@Gtk@@8
    ??_R1A@?0A@EA@Misc@Gtk@@8
    ??_R0?AVMisc@Gtk@@@8
    ??_R3Misc@Gtk@@8
    ??_R2Misc@Gtk@@8
    ??_R1A@?0A@EA@Widget@Gtk@@8
    ??_R0?AVWidget@Gtk@@@8
    ??_R3Widget@Gtk@@8
    ??_R2Widget@Gtk@@8
    ??_R17?0A@EA@Object@Gtk@@8
    ??_R0?AVObject@Gtk@@@8
    ??_R3Object@Gtk@@8
    ??_R2Object@Gtk@@8
    ??_R1A@?0A@EA@Object@Gtk@@8
    ??_R1A@?0A@EA@Object@Glib@@8
    ??_R0?AVObject@Glib@@@8
    ??_R3Object@Glib@@8
    ??_R2Object@Glib@@8
    ??_R1A@A@7FA@ObjectBase@Glib@@8
    ??_R3ObjectBase@Glib@@8
    ??_R2ObjectBase@Glib@@8
    ??_R1A@?0A@EA@ObjectBase@Glib@@8
    ??_R1A@73FA@trackable@sigc@@8
    ??_R0?AUtrackable@sigc@@@8
    ??_R3trackable@sigc@@8
    ??_R2trackable@sigc@@8
    ??_R1A@?0A@EA@trackable@sigc@@8
    ??_R1A@A@3FA@trackable@sigc@@8
    ??_R17?0A@EA@Object@Glib@@8
    ??_R1A@77FA@ObjectBase@Glib@@8
    ??_R1BI@?0A@EA@Buildable@Gtk@@8
    ??_R0?AVBuildable@Gtk@@@8
    ??_R3Buildable@Gtk@@8
    ??_R2Buildable@Gtk@@8
    ??_R1A@?0A@EA@Buildable@Gtk@@8
    ??_R1A@?0A@EA@Interface@Glib@@8
    ??_R0?AVInterface@Glib@@@8
    ??_R3Interface@Glib@@8
    ??_R2Interface@Glib@@8
    ??_R1BI@?0A@EA@Interface@Glib@@8
    ??_R4Arrow@Gtk@@6BObject@1@@
    ?aspectframe_class_@AspectFrame@Gtk@@0VAspectFrame_Class@2@A
    ?__empty_global_delete@@YAXPEAX@Z
    ?__empty_global_delete@@YAXPEAX_K@Z
    ??1AspectFrame@Gtk@@UEAA@XZ
    ??0AspectFrame@Gtk@@IEAA@AEBVConstructParams@Glib@@@Z
    ??0AspectFrame@Gtk@@IEAA@PEAU_GtkAspectFrame@@@Z
    ?get_type@AspectFrame@Gtk@@SA_KXZ
    ?get_base_type@AspectFrame@Gtk@@SA_KXZ
    ??0AspectFrame@Gtk@@QEAA@AEBVustring@Glib@@W4Align@1@1M_N@Z
    ??0AspectFrame@Gtk@@QEAA@AEBVustring@Glib@@MMM_N@Z
    ?set@AspectFrame@Gtk@@QEAAXMMM_N@Z
    ?set@AspectFrame@Gtk@@QEAAXW4Align@2@0M_N@Z
    ?property_xalign@AspectFrame@Gtk@@QEAA?AV?$PropertyProxy@M@Glib@@XZ
    ?property_xalign@AspectFrame@Gtk@@QEBA?AV?$PropertyProxy_ReadOnly@M@Glib@@XZ
    ?property_yalign@AspectFrame@Gtk@@QEAA?AV?$PropertyProxy@M@Glib@@XZ
    ?property_yalign@AspectFrame@Gtk@@QEBA?AV?$PropertyProxy_ReadOnly@M@Glib@@XZ
    ?property_ratio@AspectFrame@Gtk@@QEAA?AV?$PropertyProxy@M@Glib@@XZ
    ?property_ratio@AspectFrame@Gtk@@QEBA?AV?$PropertyProxy_ReadOnly@M@Glib@@XZ
    ?property_obey_child@AspectFrame@Gtk@@QEAA?AV?$PropertyProxy@_N@Glib@@XZ
    ?property_obey_child@AspectFrame@Gtk@@QEBA?AV?$PropertyProxy_ReadOnly@_N@Glib@@XZ
    ??_DAspectFrame@Gtk@@QEAAXXZ
    ?wrap@Glib@@YAPEAVAspectFrame@Gtk@@PEAU_GtkAspectFrame@@_N@Z
    ?init@AspectFrame_Class@Gtk@@QEAAAEBVClass@Glib@@XZ
    ?class_init_function@AspectFrame_Class@Gtk@@SAXPEAX0@Z
    ?wrap_new@AspectFrame_Class@Gtk@@SAPEAVObjectBase@Glib@@PEAU_GObject@@@Z
    ??$manage@VAspectFrame@Gtk@@@Gtk@@YAPEAVAspectFrame@0@PEAV10@@Z
    ?destroy_notify_@Object@Gtk@@$2PPPPPPPM@7EAAXXZ
    ?set_manage@Object@Gtk@@$4PPPPPPPM@7EAAXXZ
    ??_7AspectFrame@Gtk@@6BWidget@1@@
    ??_7AspectFrame@Gtk@@6BObject@1@@
    ??_8AspectFrame@Gtk@@7BObject@Glib@@@
    ??_8AspectFrame@Gtk@@7BInterface@Glib@@@
    ??_8AspectFrame@Gtk@@7BObjectBase@Glib@@@
    ??_R0?AVObjectBase@Glib@@@8
    ??_R0?AVAspectFrame@Gtk@@@8
    ??_C@_0L@NDGAEKLI@obey_child?$AA@
    ??_C@_05ONLLBMGH@ratio?$AA@
    ??_C@_06HEMBNAMP@yalign?$AA@
    ??_C@_06NCLGNLHL@xalign?$AA@
    ??_C@_05IDCCNNGI@label?$AA@
    ??_C@_0L@KIJHILLK@obey?9child?$AA@
    ??_R4AspectFrame@Gtk@@6BWidget@1@@
    ??_R3AspectFrame@Gtk@@8
    ??_R2AspectFrame@Gtk@@8
    ??_R1A@?0A@EA@AspectFrame@Gtk@@8
    ??_R1A@?0A@EA@Frame@Gtk@@8
    ??_R0?AVFrame@Gtk@@@8
    ??_R3Frame@Gtk@@8
    ??_R2Frame@Gtk@@8
    ??_R1A@?0A@EA@Bin@Gtk@@8
    ??_R0?AVBin@Gtk@@@8
    ??_R3Bin@Gtk@@8
    ??_R2Bin@Gtk@@8
    ??_R1A@?0A@EA@Container@Gtk@@8
    ??_R0?AVContainer@Gtk@@@8
    ??_R3Container@Gtk@@8
    ??_R2Container@Gtk@@8
    ??_R1A@?0A@EA@Widget@Gtk@@8
    ??_R0?AVWidget@Gtk@@@8
    ??_R3Widget@Gtk@@8
    ??_R2Widget@Gtk@@8
    ??_R17?0A@EA@Object@Gtk@@8
    ??_R0?AVObject@Gtk@@@8
    ??_R3Object@Gtk@@8
    ??_R2Object@Gtk@@8
    ??_R1A@?0A@EA@Object@Gtk@@8
    ??_R1A@?0A@EA@Object@Glib@@8
    ??_R0?AVObject@Glib@@@8
    ??_R3Object@Glib@@8
    ??_R2Object@Glib@@8
    ??_R1A@A@7FA@ObjectBase@Glib@@8
    ??_R3ObjectBase@Glib@@8
    ??_R2ObjectBase@Glib@@8
    ??_R1A@?0A@EA@ObjectBase@Glib@@8
    ??_R1A@73FA@trackable@sigc@@8
    ??_R0?AUtrackable@sigc@@@8
    ??_R3trackable@sigc@@8
    ??_R2trackable@sigc@@8
    ??_R1A@?0A@EA@trackable@sigc@@8
    ??_R1A@A@3FA@trackable@sigc@@8
    ??_R17?0A@EA@Object@Glib@@8
    ??_R1A@77FA@ObjectBase@Glib@@8
    ??_R1BI@?0A@EA@Buildable@Gtk@@8
    ??_R0?AVBuildable@Gtk@@@8
    ??_R3Buildable@Gtk@@8
    ??_R2Buildable@Gtk@@8
    ??_R1A@?0A@EA@Buildable@Gtk@@8
    ??_R1A@?0A@EA@Interface@Glib@@8
    ??_R0?AVInterface@Glib@@@8
    ??_R3Interface@Glib@@8
    ??_R2Interface@Glib@@8
    ??_R1BI@?0A@EA@Interface@Glib@@8
    ??_R4AspectFrame@Gtk@@6BObject@1@@
    ??_C@_07CAPELNJI@prepare?$AA@
    ??_C@_05KAEIDCAL@apply?$AA@
    ??_C@_05LBOHBHFK@close?$AA@
    ??_C@_06JDKABGKH@cancel?$AA@
    ?assistant_class_@Assistant@Gtk@@0VAssistant_Class@2@A
    ?__empty_global_delete@@YAXPEAX@Z
    ?__empty_global_delete@@YAXPEAX_K@Z
    ?convert_const_gchar_ptr_to_ustring@Glib@@YA?AVustring@1@PEBD@Z
    ?value_type@?$Value@W4AssistantPageType@Gtk@@@Glib@@SA_KXZ
    ??1Assistant@Gtk@@UEAA@XZ
    ??0Assistant@Gtk@@IEAA@AEBVConstructParams@Glib@@@Z
    ??0Assistant@Gtk@@IEAA@PEAU_GtkAssistant@@@Z
    ?get_type@Assistant@Gtk@@SA_KXZ
    ?get_base_type@Assistant@Gtk@@SA_KXZ
    ?on_prepare@Assistant@Gtk@@MEAAXPEAVWidget@2@@Z
    ?on_apply@Assistant@Gtk@@MEAAXXZ
    ?on_close@Assistant@Gtk@@MEAAXXZ
    ?on_cancel@Assistant@Gtk@@MEAAXXZ
    ??0Assistant@Gtk@@QEAA@XZ
    ?next_page@Assistant@Gtk@@QEAAXXZ
    ?previous_page@Assistant@Gtk@@QEAAXXZ
    ?get_current_page@Assistant@Gtk@@QEBAHXZ
    ?set_current_page@Assistant@Gtk@@QEAAXH@Z
    ?get_n_pages@Assistant@Gtk@@QEBAHXZ
    ?get_nth_page@Assistant@Gtk@@QEAAPEAVWidget@2@H@Z
    ?get_nth_page@Assistant@Gtk@@QEBAPEBVWidget@2@H@Z
    ?prepend_page@Assistant@Gtk@@QEAAHAEAVWidget@2@@Z
    ?append_page@Assistant@Gtk@@QEAAHAEAVWidget@2@@Z
    ?insert_page@Assistant@Gtk@@QEAAHAEAVWidget@2@H@Z
    ?remove_page@Assistant@Gtk@@QEAAXH@Z
    ?set_forward_page_func@Assistant@Gtk@@QEAAXAEBV?$slot@HHUnil@sigc@@U12@U12@U12@U12@U12@@sigc@@@Z
    ?set_page_type@Assistant@Gtk@@QEAAXAEBVWidget@2@W4AssistantPageType@2@@Z
    ?get_page_type@Assistant@Gtk@@QEBA?AW4AssistantPageType@2@AEBVWidget@2@@Z
    ?set_page_title@Assistant@Gtk@@QEAAXAEBVWidget@2@AEBVustring@Glib@@@Z
    ?get_page_title@Assistant@Gtk@@QEBA?AVustring@Glib@@AEBVWidget@2@@Z
    ?set_page_header_image@Assistant@Gtk@@QEAAXAEBVWidget@2@AEBV?$RefPtr@VPixbuf@Gdk@@@Glib@@@Z
    ?get_page_header_image@Assistant@Gtk@@QEAA?AV?$RefPtr@VPixbuf@Gdk@@@Glib@@AEBVWidget@2@@Z
    ?get_page_header_image@Assistant@Gtk@@QEBA?AV?$RefPtr@$$CBVPixbuf@Gdk@@@Glib@@AEBVWidget@2@@Z
    ?set_page_side_image@Assistant@Gtk@@QEAAXAEBVWidget@2@AEBV?$RefPtr@VPixbuf@Gdk@@@Glib@@@Z
    ?get_page_side_image@Assistant@Gtk@@QEAA?AV?$RefPtr@VPixbuf@Gdk@@@Glib@@AEBVWidget@2@@Z
    ?get_page_side_image@Assistant@Gtk@@QEBA?AV?$RefPtr@$$CBVPixbuf@Gdk@@@Glib@@AEBVWidget@2@@Z
    ?set_page_complete@Assistant@Gtk@@QEAAXAEBVWidget@2@_N@Z
    ?get_page_complete@Assistant@Gtk@@QEBA_NAEBVWidget@2@@Z
    ?add_action_widget@Assistant@Gtk@@QEAAXAEAVWidget@2@@Z
    ?remove_action_widget@Assistant@Gtk@@QEAAXAEAVWidget@2@@Z
    ?update_buttons_state@Assistant@Gtk@@QEAAXXZ
    ?commit@Assistant@Gtk@@QEAAXXZ
    ?signal_prepare@Assistant@Gtk@@QEAA?AV?$SignalProxy1@XPEAVWidget@Gtk@@@Glib@@XZ
    ?signal_apply@Assistant@Gtk@@QEAA?AV?$SignalProxy0@X@Glib@@XZ
    ?signal_close@Assistant@Gtk@@QEAA?AV?$SignalProxy0@X@Glib@@XZ
    ?signal_cancel@Assistant@Gtk@@QEAA?AV?$SignalProxy0@X@Glib@@XZ
    ?property_use_header_bar@Assistant@Gtk@@QEBA?AV?$PropertyProxy_ReadOnly@_N@Glib@@XZ
    ??_DAssistant@Gtk@@QEAAXXZ
    ?wrap@Glib@@YAPEAVAssistant@Gtk@@PEAU_GtkAssistant@@_N@Z
    ?init@Assistant_Class@Gtk@@QEAAAEBVClass@Glib@@XZ
    ?class_init_function@Assistant_Class@Gtk@@SAXPEAX0@Z
    ?wrap_new@Assistant_Class@Gtk@@SAPEAVObjectBase@Glib@@PEAU_GObject@@@Z
    ?prepare_callback@Assistant_Class@Gtk@@KAXPEAU_GtkAssistant@@PEAU_GtkWidget@@@Z
    ?apply_callback@Assistant_Class@Gtk@@KAXPEAU_GtkAssistant@@@Z
    ?close_callback@Assistant_Class@Gtk@@KAXPEAU_GtkAssistant@@@Z
    ?cancel_callback@Assistant_Class@Gtk@@KAXPEAU_GtkAssistant@@@Z
    ??1?$RefPtr@$$CBVPixbuf@Gdk@@@Glib@@QEAA@XZ
    ?destroy_notify_@Object@Gtk@@$2PPPPPPPM@BA@EAAXXZ
    ?set_manage@Window@Gtk@@$4PPPPPPPM@A@EAAXXZ
    ??_7Assistant@Gtk@@6BWidget@1@@
    ??_7Assistant@Gtk@@6BObject@1@@
    ??_8Assistant@Gtk@@7BObject@Glib@@@
    ??_8Assistant@Gtk@@7BInterface@Glib@@@
    ??_8Assistant@Gtk@@7BObjectBase@Glib@@@
    ??_R0?AVObjectBase@Glib@@@8
    ??_R0?AVAssistant@Gtk@@@8
    ??_C@_0P@LPNNJPMD@use?9header?9bar?$AA@
    ??_R4Assistant@Gtk@@6BWidget@1@@
    ??_R3Assistant@Gtk@@8
    ??_R2Assistant@Gtk@@8
    ??_R1A@?0A@EA@Assistant@Gtk@@8
    ??_R1A@?0A@EA@Window@Gtk@@8
    ??_R0?AVWindow@Gtk@@@8
    ??_R3Window@Gtk@@8
    ??_R2Window@Gtk@@8
    ??_R1A@?0A@EA@Bin@Gtk@@8
    ??_R0?AVBin@Gtk@@@8
    ??_R3Bin@Gtk@@8
    ??_R2Bin@Gtk@@8
    ??_R1A@?0A@EA@Container@Gtk@@8
    ??_R0?AVContainer@Gtk@@@8
    ??_R3Container@Gtk@@8
    ??_R2Container@Gtk@@8
    ??_R1A@?0A@EA@Widget@Gtk@@8
    ??_R0?AVWidget@Gtk@@@8
    ??_R3Widget@Gtk@@8
    ??_R2Widget@Gtk@@8
    ??_R17?0A@EA@Object@Gtk@@8
    ??_R0?AVObject@Gtk@@@8
    ??_R3Object@Gtk@@8
    ??_R2Object@Gtk@@8
    ??_R1A@?0A@EA@Object@Gtk@@8
    ??_R1A@?0A@EA@Object@Glib@@8
    ??_R0?AVObject@Glib@@@8
    ??_R3Object@Glib@@8
    ??_R2Object@Glib@@8
    ??_R1A@A@7FA@ObjectBase@Glib@@8
    ??_R3ObjectBase@Glib@@8
    ??_R2ObjectBase@Glib@@8
    ??_R1A@?0A@EA@ObjectBase@Glib@@8
    ??_R1A@73FA@trackable@sigc@@8
    ??_R0?AUtrackable@sigc@@@8
    ??_R3trackable@sigc@@8
    ??_R2trackable@sigc@@8
    ??_R1A@?0A@EA@trackable@sigc@@8
    ??_R1A@A@3FA@trackable@sigc@@8
    ??_R17?0A@EA@Object@Glib@@8
    ??_R1A@77FA@ObjectBase@Glib@@8
    ??_R1BI@?0A@EA@Buildable@Gtk@@8
    ??_R0?AVBuildable@Gtk@@@8
    ??_R3Buildable@Gtk@@8
    ??_R2Buildable@Gtk@@8
    ??_R1A@?0A@EA@Buildable@Gtk@@8
    ??_R1A@?0A@EA@Interface@Glib@@8
    ??_R0?AVInterface@Glib@@@8
    ??_R3Interface@Glib@@8
    ??_R2Interface@Glib@@8
    ??_R1BI@?0A@EA@Interface@Glib@@8
    ??_R4Assistant@Gtk@@6BObject@1@@
    ?bin_class_@Bin@Gtk@@0VBin_Class@2@A
    ?__empty_global_delete@@YAXPEAX@Z
    ?__empty_global_delete@@YAXPEAX_K@Z
    ??1Bin@Gtk@@UEAA@XZ
    ??0Bin@Gtk@@IEAA@AEBVConstructParams@Glib@@@Z
    ??0Bin@Gtk@@IEAA@PEAU_GtkBin@@@Z
    ?get_type@Bin@Gtk@@SA_KXZ
    ?get_base_type@Bin@Gtk@@SA_KXZ
    ??0Bin@Gtk@@IEAA@XZ
    ?get_child@Bin@Gtk@@QEAAPEAVWidget@2@XZ
    ?get_child@Bin@Gtk@@QEBAPEBVWidget@2@XZ
    ?remove@Bin@Gtk@@QEAAXXZ
    ?add_label@Bin@Gtk@@QEAAXAEBVustring@Glib@@_NNN@Z
    ?add_label@Bin@Gtk@@QEAAXAEBVustring@Glib@@_NW4Align@2@2@Z
    ?add_pixlabel@Bin@Gtk@@QEAAXAEBV?$basic_string@DU?$char_traits@D@std@@V?$allocator@D@2@@std@@AEBVustring@Glib@@NN@Z
    ?add_pixlabel@Bin@Gtk@@QEAAXAEBV?$basic_string@DU?$char_traits@D@std@@V?$allocator@D@2@@std@@AEBVustring@Glib@@W4Align@2@2@Z
    ??_DBin@Gtk@@QEAAXXZ
    ?wrap@Glib@@YAPEAVBin@Gtk@@PEAU_GtkBin@@_N@Z
    ?init@Bin_Class@Gtk@@QEAAAEBVClass@Glib@@XZ
    ?class_init_function@Bin_Class@Gtk@@SAXPEAX0@Z
    ?wrap_new@Bin_Class@Gtk@@SAPEAVObjectBase@Glib@@PEAU_GObject@@@Z
    ??$manage@VLabel@Gtk@@@Gtk@@YAPEAVLabel@0@PEAV10@@Z
    ??$manage@VImage@Gtk@@@Gtk@@YAPEAVImage@0@PEAV10@@Z
    ??$manage@VBox@Gtk@@@Gtk@@YAPEAVBox@0@PEAV10@@Z
    ??$manage@VBin@Gtk@@@Gtk@@YAPEAVBin@0@PEAV10@@Z
    ?destroy_notify_@Object@Gtk@@$2PPPPPPPM@7EAAXXZ
    ?set_manage@Object@Gtk@@$4PPPPPPPM@7EAAXXZ
    ??_7Bin@Gtk@@6BWidget@1@@
    ??_7Bin@Gtk@@6BObject@1@@
    ??_8Bin@Gtk@@7BObject@Glib@@@
    ??_8Bin@Gtk@@7BInterface@Glib@@@
    ??_8Bin@Gtk@@7BObjectBase@Glib@@@
    ??_R0?AVObjectBase@Glib@@@8
    ??_R0?AVBin@Gtk@@@8
    ??_R4Bin@Gtk@@6BWidget@1@@
    ??_R3Bin@Gtk@@8
    ??_R2Bin@Gtk@@8
    ??_R1A@?0A@EA@Bin@Gtk@@8
    ??_R1A@?0A@EA@Container@Gtk@@8
    ??_R0?AVContainer@Gtk@@@8
    ??_R3Container@Gtk@@8
    ??_R2Container@Gtk@@8
    ??_R1A@?0A@EA@Widget@Gtk@@8
    ??_R0?AVWidget@Gtk@@@8
    ??_R3Widget@Gtk@@8
    ??_R2Widget@Gtk@@8
    ??_R17?0A@EA@Object@Gtk@@8
    ??_R0?AVObject@Gtk@@@8
    ??_R3Object@Gtk@@8
    ??_R2Object@Gtk@@8
    ??_R1A@?0A@EA@Object@Gtk@@8
    ??_R1A@?0A@EA@Object@Glib@@8
    ??_R0?AVObject@Glib@@@8
    ??_R3Object@Glib@@8
    ??_R2Object@Glib@@8
    ??_R1A@A@7FA@ObjectBase@Glib@@8
    ??_R3ObjectBase@Glib@@8
    ??_R2ObjectBase@Glib@@8
    ??_R1A@?0A@EA@ObjectBase@Glib@@8
    ??_R1A@73FA@trackable@sigc@@8
    ??_R0?AUtrackable@sigc@@@8
    ??_R3trackable@sigc@@8
    ??_R2trackable@sigc@@8
    ??_R1A@?0A@EA@trackable@sigc@@8
    ??_R1A@A@3FA@trackable@sigc@@8
    ??_R17?0A@EA@Object@Glib@@8
    ??_R1A@77FA@ObjectBase@Glib@@8
    ??_R1BI@?0A@EA@Buildable@Gtk@@8
    ??_R0?AVBuildable@Gtk@@@8
    ??_R3Buildable@Gtk@@8
    ??_R2Buildable@Gtk@@8
    ??_R1A@?0A@EA@Buildable@Gtk@@8
    ??_R1A@?0A@EA@Interface@Glib@@8
    ??_R0?AVInterface@Glib@@@8
    ??_R3Interface@Glib@@8
    ??_R2Interface@Glib@@8
    ??_R1BI@?0A@EA@Interface@Glib@@8
    ??_R4Bin@Gtk@@6BObject@1@@
    ?__empty_global_delete@@YAXPEAX@Z
    ?__empty_global_delete@@YAXPEAX_K@Z
    ?get_type@Border@Gtk@@SA_KXZ
    ??0Border@Gtk@@QEAA@XZ
    ??0Border@Gtk@@QEAA@PEAU_GtkBorder@@_N@Z
    ??0Border@Gtk@@QEAA@AEBV01@@Z
    ??4Border@Gtk@@QEAAAEAV01@AEBV01@@Z
    ??1Border@Gtk@@QEAA@XZ
    ?swap@Border@Gtk@@QEAAXAEAV12@@Z
    ?gobj_copy@Border@Gtk@@QEBAPEAU_GtkBorder@@XZ
    ?get_left@Border@Gtk@@QEBAHXZ
    ?set_left@Border@Gtk@@QEAAXAEBH@Z
    ?get_right@Border@Gtk@@QEBAHXZ
    ?set_right@Border@Gtk@@QEAAXAEBH@Z
    ?get_top@Border@Gtk@@QEBAHXZ
    ?set_top@Border@Gtk@@QEAAXAEBH@Z
    ?get_bottom@Border@Gtk@@QEBAHXZ
    ?set_bottom@Border@Gtk@@QEAAXAEBH@Z
    ?wrap@Glib@@YA?AVBorder@Gtk@@PEAU_GtkBorder@@_N@Z
    ?box_class_@Box@Gtk@@0VBox_Class@2@A
    ?__empty_global_delete@@YAXPEAX@Z
    ?__empty_global_delete@@YAXPEAX_K@Z
    ??1Box@Gtk@@UEAA@XZ
    ??0Box@Gtk@@IEAA@AEBVConstructParams@Glib@@@Z
    ??0Box@Gtk@@IEAA@PEAU_GtkBox@@@Z
    ?get_type@Box@Gtk@@SA_KXZ
    ?get_base_type@Box@Gtk@@SA_KXZ
    ??0Box@Gtk@@QEAA@W4Orientation@1@H@Z
    ?pack_start@Box@Gtk@@QEAAXAEAVWidget@2@_N1I@Z
    ?pack_start@Box@Gtk@@QEAAXAEAVWidget@2@W4PackOptions@2@I@Z
    ?pack_end@Box@Gtk@@QEAAXAEAVWidget@2@_N1I@Z
    ?pack_end@Box@Gtk@@QEAAXAEAVWidget@2@W4PackOptions@2@I@Z
    ?set_homogeneous@Box@Gtk@@QEAAX_N@Z
    ?get_homogeneous@Box@Gtk@@QEBA_NXZ
    ?set_spacing@Box@Gtk@@QEAAXH@Z
    ?get_spacing@Box@Gtk@@QEBAHXZ
    ?set_baseline_position@Box@Gtk@@QEAAXW4BaselinePosition@2@@Z
    ?get_baseline_position@Box@Gtk@@QEBA?AW4BaselinePosition@2@XZ
    ?reorder_child@Box@Gtk@@QEAAXAEAVWidget@2@H@Z
    ?set_center_widget@Box@Gtk@@QEAAXAEAVWidget@2@@Z
    ?unset_center_widget@Box@Gtk@@QEAAXXZ
    ?get_center_widget@Box@Gtk@@QEAAPEAVWidget@2@XZ
    ?get_center_widget@Box@Gtk@@QEBAPEBVWidget@2@XZ
    ?property_spacing@Box@Gtk@@QEAA?AV?$PropertyProxy@H@Glib@@XZ
    ?property_spacing@Box@Gtk@@QEBA?AV?$PropertyProxy_ReadOnly@H@Glib@@XZ
    ?property_homogeneous@Box@Gtk@@QEAA?AV?$PropertyProxy@_N@Glib@@XZ
    ?property_homogeneous@Box@Gtk@@QEBA?AV?$PropertyProxy_ReadOnly@_N@Glib@@XZ
    ?property_baseline_position@Box@Gtk@@QEAA?AV?$PropertyProxy@W4BaselinePosition@Gtk@@@Glib@@XZ
    ?property_baseline_position@Box@Gtk@@QEBA?AV?$PropertyProxy_ReadOnly@W4BaselinePosition@Gtk@@@Glib@@XZ
    ?child_property_expand@Box@Gtk@@QEAA?AV?$ChildPropertyProxy@_N@2@AEAVWidget@2@@Z
    ?child_property_expand@Box@Gtk@@QEBA?AV?$ChildPropertyProxy_ReadOnly@_N@2@AEBVWidget@2@@Z
    ?child_property_fill@Box@Gtk@@QEAA?AV?$ChildPropertyProxy@_N@2@AEAVWidget@2@@Z
    ?child_property_fill@Box@Gtk@@QEBA?AV?$ChildPropertyProxy_ReadOnly@_N@2@AEBVWidget@2@@Z
    ?child_property_padding@Box@Gtk@@QEAA?AV?$ChildPropertyProxy@I@2@AEAVWidget@2@@Z
    ?child_property_padding@Box@Gtk@@QEBA?AV?$ChildPropertyProxy_ReadOnly@I@2@AEBVWidget@2@@Z
    ?child_property_pack_type@Box@Gtk@@QEAA?AV?$ChildPropertyProxy@W4PackType@Gtk@@@2@AEAVWidget@2@@Z
    ?child_property_pack_type@Box@Gtk@@QEBA?AV?$ChildPropertyProxy_ReadOnly@W4PackType@Gtk@@@2@AEBVWidget@2@@Z
    ?child_property_position@Box@Gtk@@QEAA?AV?$ChildPropertyProxy@H@2@AEAVWidget@2@@Z
    ?child_property_position@Box@Gtk@@QEBA?AV?$ChildPropertyProxy_ReadOnly@H@2@AEBVWidget@2@@Z
    ??_DBox@Gtk@@QEAAXXZ
    ?wrap@Glib@@YAPEAVBox@Gtk@@PEAU_GtkBox@@_N@Z
    ?init@Box_Class@Gtk@@QEAAAEBVClass@Glib@@XZ
    ?class_init_function@Box_Class@Gtk@@SAXPEAX0@Z
    ?wrap_new@Box_Class@Gtk@@SAPEAVObjectBase@Glib@@PEAU_GObject@@@Z
    ??$manage@VBox@Gtk@@@Gtk@@YAPEAVBox@0@PEAV10@@Z
    ?destroy_notify_@Object@Gtk@@$2PPPPPPPM@BA@EAAXXZ
    ?set_manage@Object@Gtk@@$4PPPPPPPM@BA@EAAXXZ
    ??_7Box@Gtk@@6BWidget@1@@
    ??_7Box@Gtk@@6BObject@1@@
    ??_8Box@Gtk@@7BObject@Glib@@@
    ??_8Box@Gtk@@7BInterface@Glib@@Container@1@@
    ??_8Box@Gtk@@7BInterface@Glib@@Orientable@1@@
    ??_8Box@Gtk@@7BObjectBase@Glib@@@
    ??_R0?AVObjectBase@Glib@@@8
    ??_R0?AVBox@Gtk@@@8
    ??_C@_07GHILBEGP@spacing?$AA@
    ??_C@_0M@KPMDGEHG@orientation?$AA@
    ??_C@_0M@JLHKLLAB@homogeneous?$AA@
    ??_C@_0BC@IFDIOBEF@baseline?9position?$AA@
    ??_C@_06GFPMPEEP@expand?$AA@
    ??_C@_04OBAECEGJ@fill?$AA@
    ??_C@_07MKEAMJFF@padding?$AA@
    ??_C@_09JLNNHAPC@pack?9type?$AA@
    ??_C@_08OAGMDKAF@position?$AA@
    ??_R4Box@Gtk@@6BWidget@1@@
    ??_R3Box@Gtk@@8
    ??_R2Box@Gtk@@8
    ??_R1A@?0A@EA@Box@Gtk@@8
    ??_R1A@?0A@EA@Container@Gtk@@8
    ??_R0?AVContainer@Gtk@@@8
    ??_R3Container@Gtk@@8
    ??_R2Container@Gtk@@8
    ??_R1A@?0A@EA@Widget@Gtk@@8
    ??_R0?AVWidget@Gtk@@@8
    ??_R3Widget@Gtk@@8
    ??_R2Widget@Gtk@@8
    ??_R17?0A@EA@Object@Gtk@@8
    ??_R0?AVObject@Gtk@@@8
    ??_R3Object@Gtk@@8
    ??_R2Object@Gtk@@8
    ??_R1A@?0A@EA@Object@Gtk@@8
    ??_R1A@?0A@EA@Object@Glib@@8
    ??_R0?AVObject@Glib@@@8
    ??_R3Object@Glib@@8
    ??_R2Object@Glib@@8
    ??_R1A@A@7FA@ObjectBase@Glib@@8
    ??_R3ObjectBase@Glib@@8
    ??_R2ObjectBase@Glib@@8
    ??_R1A@?0A@EA@ObjectBase@Glib@@8
    ??_R1A@73FA@trackable@sigc@@8
    ??_R0?AUtrackable@sigc@@@8
    ??_R3trackable@sigc@@8
    ??_R2trackable@sigc@@8
    ??_R1A@?0A@EA@trackable@sigc@@8
    ??_R1A@A@3FA@trackable@sigc@@8
    ??_R17?0A@EA@Object@Glib@@8
    ??_R1A@77FA@ObjectBase@Glib@@8
    ??_R1BI@?0A@EA@Buildable@Gtk@@8
    ??_R0?AVBuildable@Gtk@@@8
    ??_R3Buildable@Gtk@@8
    ??_R2Buildable@Gtk@@8
    ??_R1A@?0A@EA@Buildable@Gtk@@8
    ??_R1A@?0A@EA@Interface@Glib@@8
    ??_R0?AVInterface@Glib@@@8
    ??_R3Interface@Glib@@8
    ??_R2Interface@Glib@@8
    ??_R1BI@?0A@EA@Interface@Glib@@8
    ??_R1BI@?0A@EC@Interface@Glib@@8
    ??_R1CA@?0A@EA@Orientable@Gtk@@8
    ??_R0?AVOrientable@Gtk@@@8
    ??_R3Orientable@Gtk@@8
    ??_R2Orientable@Gtk@@8
    ??_R1A@?0A@EA@Orientable@Gtk@@8
    ??_R1CA@?0A@EC@Interface@Glib@@8
    ??_R4Box@Gtk@@6BObject@1@@
    ?buildable_class_@Buildable@Gtk@@0VBuildable_Class@2@A
    ?__empty_global_delete@@YAXPEAX@Z
    ?__empty_global_delete@@YAXPEAX_K@Z
    ?convert_const_gchar_ptr_to_ustring@Glib@@YA?AVustring@1@PEBD@Z
    ??0Buildable@Gtk@@IEAA@XZ
    ??0Buildable@Gtk@@IEAA@AEBVInterface_Class@Glib@@@Z
    ??0Buildable@Gtk@@QEAA@PEAU_GtkBuildable@@@Z
    ??1Buildable@Gtk@@UEAA@XZ
    ?add_interface@Buildable@Gtk@@SAX_K@Z
    ?get_type@Buildable@Gtk@@SA_KXZ
    ?get_base_type@Buildable@Gtk@@SA_KXZ
    ?set_name@Buildable@Gtk@@QEAAXAEBVustring@Glib@@@Z
    ?get_name@Buildable@Gtk@@QEBA?AVustring@Glib@@XZ
    ?wrap@Glib@@YA?AV?$RefPtr@VBuildable@Gtk@@@1@PEAU_GtkBuildable@@_N@Z
    ?init@Buildable_Class@Gtk@@QEAAAEBVInterface_Class@Glib@@XZ
    ?iface_init_function@Buildable_Class@Gtk@@SAXPEAX0@Z
    ?wrap_new@Buildable_Class@Gtk@@SAPEAVObjectBase@Glib@@PEAU_GObject@@@Z
    ?custom_tag_start_vfunc_callback@Buildable_Class@Gtk@@KAHPEAU_GtkBuildable@@PEAU_GtkBuilder@@PEAU_GObject@@PEBDPEAU_GMarkupParser@@PEAPEAX@Z
    ?custom_tag_end_vfunc_callback@Buildable_Class@Gtk@@KAXPEAU_GtkBuildable@@PEAU_GtkBuilder@@PEAU_GObject@@PEBDPEAPEAX@Z
    ??$wrap_auto_interface@VBuildable@Gtk@@@Glib@@YAPEAVBuildable@Gtk@@PEAU_GObject@@_N@Z
    ??_7Buildable@Gtk@@6B@
    ??_8Buildable@Gtk@@7BInterface@Glib@@@
    ??_8Buildable@Gtk@@7BObjectBase@Glib@@@
    ??_R0?AVObjectBase@Glib@@@8
    ??_R0?AVBuilder@Gtk@@@8
    ??_C@_07HIFEPIJN@columns?$AA@
    ??_C@_0L@IGFGCBFO@klass?5?$CB?$DN?50?$AA@
    ??_C@_0CK@GPMIEJGJ@Gtk?3?3Buildable_Class?3?3iface_init@
    ??_C@_0BK@KCNMEOKB@?4?4?2gtk?2gtkmm?2buildable?4cc?$AA@
    ??_R0?AVBuildable@Gtk@@@8
    ??_C@_0FM@MEPOJGMK@Glib?3?3wrap_auto_interface?$CI?$CJ?3?5The@
    ??_R4Buildable@Gtk@@6B@
    ??_R3Buildable@Gtk@@8
    ??_R2Buildable@Gtk@@8
    ??_R1A@?0A@EA@Buildable@Gtk@@8
    ??_R1A@?0A@EA@Interface@Glib@@8
    ??_R0?AVInterface@Glib@@@8
    ??_R3Interface@Glib@@8
    ??_R2Interface@Glib@@8
    ??_R1A@A@7FA@ObjectBase@Glib@@8
    ??_R3ObjectBase@Glib@@8
    ??_R2ObjectBase@Glib@@8
    ??_R1A@?0A@EA@ObjectBase@Glib@@8
    ??_R1A@73FA@trackable@sigc@@8
    ??_R0?AUtrackable@sigc@@@8
    ??_R3trackable@sigc@@8
    ??_R2trackable@sigc@@8
    ??_R1A@?0A@EA@trackable@sigc@@8
    ??_R1A@A@3FA@trackable@sigc@@8
    ?builder_class_@Builder@Gtk@@0VBuilder_Class@2@A
    ?__empty_global_delete@@YAXPEAX@Z
    ?__empty_global_delete@@YAXPEAX_K@Z
    ??3@YAXPEAX0@Z
    ??0Exception@Glib@@QEAA@AEBV01@@Z
    ?convert_const_gchar_ptr_to_ustring@Glib@@YA?AVustring@1@PEBD@Z
    ??0BuilderError@Gtk@@QEAA@W4Code@01@AEBVustring@Glib@@@Z
    ??0BuilderError@Gtk@@QEAA@PEAU_GError@@@Z
    ?code@BuilderError@Gtk@@QEBA?AW4Code@12@XZ
    ?throw_func@BuilderError@Gtk@@CAXPEAU_GError@@@Z
    ??1BuilderError@Gtk@@UEAA@XZ
    ??0BuilderError@Gtk@@QEAA@AEBV01@@Z
    ?value_type@?$Value@W4Code@BuilderError@Gtk@@@Glib@@SA_KXZ
    ??0Builder@Gtk@@IEAA@AEBVConstructParams@Glib@@@Z
    ??0Builder@Gtk@@IEAA@PEAU_GtkBuilder@@@Z
    ??1Builder@Gtk@@UEAA@XZ
    ?get_type@Builder@Gtk@@SA_KXZ
    ?get_base_type@Builder@Gtk@@SA_KXZ
    ?gobj_copy@Builder@Gtk@@QEAAPEAU_GtkBuilder@@XZ
    ??0Builder@Gtk@@IEAA@XZ
    ?create@Builder@Gtk@@SA?AV?$RefPtr@VBuilder@Gtk@@@Glib@@XZ
    ?create_from_file@Builder@Gtk@@SA?AV?$RefPtr@VBuilder@Gtk@@@Glib@@AEBV?$basic_string@DU?$char_traits@D@std@@V?$allocator@D@2@@std@@@Z
    ?create_from_file@Builder@Gtk@@SA?AV?$RefPtr@VBuilder@Gtk@@@Glib@@AEBV?$basic_string@DU?$char_traits@D@std@@V?$allocator@D@2@@std@@AEBVustring@4@@Z
    ?create_from_file@Builder@Gtk@@SA?AV?$RefPtr@VBuilder@Gtk@@@Glib@@AEBV?$basic_string@DU?$char_traits@D@std@@V?$allocator@D@2@@std@@PEBD@Z
    ?create_from_file@Builder@Gtk@@SA?AV?$RefPtr@VBuilder@Gtk@@@Glib@@AEBV?$basic_string@DU?$char_traits@D@std@@V?$allocator@D@2@@std@@AEBV?$vector@Vustring@Glib@@V?$allocator@Vustring@Glib@@@std@@@6@@Z
    ?create_from_resource@Builder@Gtk@@SA?AV?$RefPtr@VBuilder@Gtk@@@Glib@@AEBV?$basic_string@DU?$char_traits@D@std@@V?$allocator@D@2@@std@@@Z
    ?create_from_resource@Builder@Gtk@@SA?AV?$RefPtr@VBuilder@Gtk@@@Glib@@AEBV?$basic_string@DU?$char_traits@D@std@@V?$allocator@D@2@@std@@AEBVustring@4@@Z
    ?create_from_resource@Builder@Gtk@@SA?AV?$RefPtr@VBuilder@Gtk@@@Glib@@AEBV?$basic_string@DU?$char_traits@D@std@@V?$allocator@D@2@@std@@PEBD@Z
    ?create_from_resource@Builder@Gtk@@SA?AV?$RefPtr@VBuilder@Gtk@@@Glib@@AEBV?$basic_string@DU?$char_traits@D@std@@V?$allocator@D@2@@std@@AEBV?$vector@Vustring@Glib@@V?$allocator@Vustring@Glib@@@std@@@6@@Z
    ?create_from_string@Builder@Gtk@@SA?AV?$RefPtr@VBuilder@Gtk@@@Glib@@AEBVustring@4@@Z
    ?create_from_string@Builder@Gtk@@SA?AV?$RefPtr@VBuilder@Gtk@@@Glib@@AEBVustring@4@PEBD@Z
    ?create_from_string@Builder@Gtk@@SA?AV?$RefPtr@VBuilder@Gtk@@@Glib@@AEBVustring@4@0@Z
    ?create_from_string@Builder@Gtk@@SA?AV?$RefPtr@VBuilder@Gtk@@@Glib@@AEBVustring@4@AEBV?$vector@Vustring@Glib@@V?$allocator@Vustring@Glib@@@std@@@std@@@Z
    ?add_from_file@Builder@Gtk@@QEAA_NAEBV?$basic_string@DU?$char_traits@D@std@@V?$allocator@D@2@@std@@@Z
    ?add_from_file@Builder@Gtk@@QEAA_NAEBV?$basic_string@DU?$char_traits@D@std@@V?$allocator@D@2@@std@@PEBD@Z
    ?add_from_file@Builder@Gtk@@QEAA_NAEBV?$basic_string@DU?$char_traits@D@std@@V?$allocator@D@2@@std@@AEBVustring@Glib@@@Z
    ?add_from_file@Builder@Gtk@@QEAA_NAEBV?$basic_string@DU?$char_traits@D@std@@V?$allocator@D@2@@std@@AEBV?$vector@Vustring@Glib@@V?$allocator@Vustring@Glib@@@std@@@4@@Z
    ?add_from_resource@Builder@Gtk@@QEAA_NAEBV?$basic_string@DU?$char_traits@D@std@@V?$allocator@D@2@@std@@@Z
    ?add_from_resource@Builder@Gtk@@QEAA_NAEBV?$basic_string@DU?$char_traits@D@std@@V?$allocator@D@2@@std@@PEBD@Z
    ?add_from_resource@Builder@Gtk@@QEAA_NAEBV?$basic_string@DU?$char_traits@D@std@@V?$allocator@D@2@@std@@AEBVustring@Glib@@@Z
    ?add_from_resource@Builder@Gtk@@QEAA_NAEBV?$basic_string@DU?$char_traits@D@std@@V?$allocator@D@2@@std@@AEBV?$vector@Vustring@Glib@@V?$allocator@Vustring@Glib@@@std@@@4@@Z
    ?add_from_string@Builder@Gtk@@QEAA_NAEBVustring@Glib@@@Z
    ?add_from_string@Builder@Gtk@@QEAA_NAEBVustring@Glib@@PEBD@Z
    ?add_from_string@Builder@Gtk@@QEAA_NAEBVustring@Glib@@0@Z
    ?add_from_string@Builder@Gtk@@QEAA_NAEBVustring@Glib@@AEBV?$vector@Vustring@Glib@@V?$allocator@Vustring@Glib@@@std@@@std@@@Z
    ?add_from_string@Builder@Gtk@@QEAA_NPEBD_K@Z
    ?expose_object@Builder@Gtk@@QEAAXAEBVustring@Glib@@AEBV?$RefPtr@VObject@Glib@@@4@@Z
    ?expose_widget@Builder@Gtk@@QEAAXAEBVustring@Glib@@AEAVWidget@2@@Z
    ?get_object@Builder@Gtk@@QEAA?AV?$RefPtr@VObject@Glib@@@Glib@@AEBVustring@4@@Z
    ?get_object@Builder@Gtk@@QEBA?AV?$RefPtr@$$CBVObject@Glib@@@Glib@@AEBVustring@4@@Z
    ?get_objects@Builder@Gtk@@QEAA?AV?$vector@V?$RefPtr@VObject@Glib@@@Glib@@V?$allocator@V?$RefPtr@VObject@Glib@@@Glib@@@std@@@std@@XZ
    ?get_objects@Builder@Gtk@@QEBA?AV?$vector@V?$RefPtr@$$CBVObject@Glib@@@Glib@@V?$allocator@V?$RefPtr@$$CBVObject@Glib@@@Glib@@@std@@@std@@XZ
    ?set_translation_domain@Builder@Gtk@@QEAAXAEBVustring@Glib@@@Z
    ?get_translation_domain@Builder@Gtk@@QEBA?AVustring@Glib@@XZ
    ?set_application@Builder@Gtk@@QEAAXAEBV?$RefPtr@VApplication@Gtk@@@Glib@@@Z
    ?get_application@Builder@Gtk@@QEAA?AV?$RefPtr@VApplication@Gtk@@@Glib@@XZ
    ?get_application@Builder@Gtk@@QEBA?AV?$RefPtr@$$CBVApplication@Gtk@@@Glib@@XZ
    ?property_translation_domain@Builder@Gtk@@QEAA?AV?$PropertyProxy@Vustring@Glib@@@Glib@@XZ
    ?property_translation_domain@Builder@Gtk@@QEBA?AV?$PropertyProxy_ReadOnly@Vustring@Glib@@@Glib@@XZ
    ?get_widget_checked@Builder@Gtk@@IEAAPEAVWidget@2@AEBVustring@Glib@@_K@Z
    ?get_cwidget@Builder@Gtk@@IEAAPEAU_GtkWidget@@AEBVustring@Glib@@@Z
    ?set_no_gtkmm_derived_types@Builder@Gtk@@AEAAX_N@Z
    ?wrap@Glib@@YA?AV?$RefPtr@VBuilder@Gtk@@@1@PEAU_GtkBuilder@@_N@Z
    ?init@Builder_Class@Gtk@@QEAAAEBVClass@Glib@@XZ
    ?class_init_function@Builder_Class@Gtk@@SAXPEAX0@Z
    ?wrap_new@Builder_Class@Gtk@@SAPEAVObjectBase@Glib@@PEAU_GObject@@@Z
    ??1?$RefPtr@VBuilder@Gtk@@@Glib@@QEAA@XZ
    ?deallocate@?$allocator@Vustring@Glib@@@std@@QEAAXPEAVustring@Glib@@_K@Z
    ?allocate@?$allocator@Vustring@Glib@@@std@@QEAAPEAVustring@Glib@@_K@Z
    ?_Construct_n@?$vector@Vustring@Glib@@V?$allocator@Vustring@Glib@@@std@@@std@@QEAAX_KPEBVustring@Glib@@@Z
    ??1?$vector@Vustring@Glib@@V?$allocator@Vustring@Glib@@@std@@@std@@QEAA@XZ
    ?_Tidy@?$vector@Vustring@Glib@@V?$allocator@Vustring@Glib@@@std@@@std@@IEAAXXZ
    ?vector_to_array@?$ArrayHandler@Vustring@Glib@@U?$TypeTraits@Vustring@Glib@@@Container_Helpers@2@@Glib@@SA?AV?$ArrayKeeper@U?$TypeTraits@Vustring@Glib@@@Container_Helpers@Glib@@@Container_Helpers@2@AEBV?$vector@Vustring@Glib@@V?$allocator@Vustring@Glib@@@std@@@std@@@Z
    ??1?$ArrayKeeper@U?$TypeTraits@Vustring@Glib@@@Container_Helpers@Glib@@@Container_Helpers@Glib@@QEAA@XZ
    ??1?$RefPtr@VObject@Glib@@@Glib@@QEAA@XZ
    ??1?$RefPtr@$$CBVObject@Glib@@@Glib@@QEAA@XZ
    ?allocate@?$allocator@V?$RefPtr@VObject@Glib@@@Glib@@@std@@QEAAPEAV?$RefPtr@VObject@Glib@@@Glib@@_K@Z
    ?_Tidy@?$vector@V?$RefPtr@VObject@Glib@@@Glib@@V?$allocator@V?$RefPtr@VObject@Glib@@@Glib@@@std@@@std@@IEAAXXZ
    ?to_cpp_type@?$TypeTraits@V?$RefPtr@VObject@Glib@@@Glib@@@Container_Helpers@Glib@@SA?AV?$RefPtr@VObject@Glib@@@3@PEAU_GObject@@@Z
    ?slist_to_vector@?$SListHandler@V?$RefPtr@VObject@Glib@@@Glib@@U?$TypeTraits@V?$RefPtr@VObject@Glib@@@Glib@@@Container_Helpers@2@@Glib@@SA?AV?$vector@V?$RefPtr@VObject@Glib@@@Glib@@V?$allocator@V?$RefPtr@VObject@Glib@@@Glib@@@std@@@std@@PEAU_GSList@@W4OwnershipType@2@@Z
    ?allocate@?$allocator@V?$RefPtr@$$CBVObject@Glib@@@Glib@@@std@@QEAAPEAV?$RefPtr@$$CBVObject@Glib@@@Glib@@_K@Z
    ?_Tidy@?$vector@V?$RefPtr@$$CBVObject@Glib@@@Glib@@V?$allocator@V?$RefPtr@$$CBVObject@Glib@@@Glib@@@std@@@std@@IEAAXXZ
    ?to_cpp_type@?$TypeTraits@V?$RefPtr@$$CBVObject@Glib@@@Glib@@@Container_Helpers@Glib@@SA?AV?$RefPtr@$$CBVObject@Glib@@@3@PEBU_GObject@@@Z
    ?slist_to_vector@?$SListHandler@V?$RefPtr@$$CBVObject@Glib@@@Glib@@U?$TypeTraits@V?$RefPtr@$$CBVObject@Glib@@@Glib@@@Container_Helpers@2@@Glib@@SA?AV?$vector@V?$RefPtr@$$CBVObject@Glib@@@Glib@@V?$allocator@V?$RefPtr@$$CBVObject@Glib@@@Glib@@@std@@@std@@PEAU_GSList@@W4OwnershipType@2@@Z
    ??1?$RefPtr@VApplication@Gtk@@@Glib@@QEAA@XZ
    ??1?$RefPtr@$$CBVApplication@Gtk@@@Glib@@QEAA@XZ
    ??$_Deallocate@V?$RefPtr@$$CBVObject@Glib@@@Glib@@@std@@YAXPEAV?$RefPtr@$$CBVObject@Glib@@@Glib@@_K@Z
    ??$_Deallocate@V?$RefPtr@VObject@Glib@@@Glib@@@std@@YAXPEAV?$RefPtr@VObject@Glib@@@Glib@@_K@Z
    ??$create_array@U?$TypeTraits@Vustring@Glib@@@Container_Helpers@Glib@@@Container_Helpers@Glib@@YAPEAPEBDV?$_Vector_const_iterator@V?$_Vector_val@U?$_Simple_types@Vustring@Glib@@@std@@@std@@@std@@_K@Z
    ??1?$GSListKeeper@U?$TypeTraits@V?$RefPtr@VObject@Glib@@@Glib@@@Container_Helpers@Glib@@@Container_Helpers@Glib@@QEAA@XZ
    ??D?$SListIterator@U?$TypeTraits@V?$RefPtr@VObject@Glib@@@Glib@@@Container_Helpers@Glib@@@Container_Helpers@Glib@@QEBA?AV?$RefPtr@VObject@Glib@@@2@XZ
    ??1?$GSListKeeper@U?$TypeTraits@V?$RefPtr@$$CBVObject@Glib@@@Glib@@@Container_Helpers@Glib@@@Container_Helpers@Glib@@QEAA@XZ
    ??D?$SListIterator@U?$TypeTraits@V?$RefPtr@$$CBVObject@Glib@@@Glib@@@Container_Helpers@Glib@@@Container_Helpers@Glib@@QEBA?AV?$RefPtr@$$CBVObject@Glib@@@2@XZ
    ??$_Uninit_fill_n@PEAVustring@Glib@@_KV12@V?$allocator@Vustring@Glib@@@std@@V12@@std@@YAXPEAVustring@Glib@@_KPEBV12@AEAU?$_Wrap_alloc@V?$allocator@Vustring@Glib@@@std@@@0@0U_Nonscalar_ptr_iterator_tag@0@@Z
    ??$_Construct@V?$SListIterator@U?$TypeTraits@V?$RefPtr@VObject@Glib@@@Glib@@@Container_Helpers@Glib@@@Container_Helpers@Glib@@@?$vector@V?$RefPtr@VObject@Glib@@@Glib@@V?$allocator@V?$RefPtr@VObject@Glib@@@Glib@@@std@@@std@@QEAAXV?$SListIterator@U?$TypeTraits@V?$RefPtr@VObject@Glib@@@Glib@@@Container_Helpers@Glib@@@Container_Helpers@Glib@@0Uforward_iterator_tag@1@@Z
    ??$_Construct@V?$SListIterator@U?$TypeTraits@V?$RefPtr@$$CBVObject@Glib@@@Glib@@@Container_Helpers@Glib@@@Container_Helpers@Glib@@@?$vector@V?$RefPtr@$$CBVObject@Glib@@@Glib@@V?$allocator@V?$RefPtr@$$CBVObject@Glib@@@Glib@@@std@@@std@@QEAAXV?$SListIterator@U?$TypeTraits@V?$RefPtr@$$CBVObject@Glib@@@Glib@@@Container_Helpers@Glib@@@Container_Helpers@Glib@@0Uforward_iterator_tag@1@@Z
    ??$_Uninit_copy@V?$SListIterator@U?$TypeTraits@V?$RefPtr@VObject@Glib@@@Glib@@@Container_Helpers@Glib@@@Container_Helpers@Glib@@PEAV?$RefPtr@VObject@Glib@@@3@V?$allocator@V?$RefPtr@VObject@Glib@@@Glib@@@std@@@std@@YAPEAV?$RefPtr@VObject@Glib@@@Glib@@V?$SListIterator@U?$TypeTraits@V?$RefPtr@VObject@Glib@@@Glib@@@Container_Helpers@Glib@@@Container_Helpers@2@0PEAV12@AEAU?$_Wrap_alloc@V?$allocator@V?$RefPtr@VObject@Glib@@@Glib@@@std@@@0@U_Nonscalar_ptr_iterator_tag@0@@Z
    ??$_Uninit_copy@V?$SListIterator@U?$TypeTraits@V?$RefPtr@$$CBVObject@Glib@@@Glib@@@Container_Helpers@Glib@@@Container_Helpers@Glib@@PEAV?$RefPtr@$$CBVObject@Glib@@@3@V?$allocator@V?$RefPtr@$$CBVObject@Glib@@@Glib@@@std@@@std@@YAPEAV?$RefPtr@$$CBVObject@Glib@@@Glib@@V?$SListIterator@U?$TypeTraits@V?$RefPtr@$$CBVObject@Glib@@@Glib@@@Container_Helpers@Glib@@@Container_Helpers@2@0PEAV12@AEAU?$_Wrap_alloc@V?$allocator@V?$RefPtr@$$CBVObject@Glib@@@Glib@@@std@@@0@U_Nonscalar_ptr_iterator_tag@0@@Z
    ??_7Exception@Glib@@6B@
    ??_7BuilderError@Gtk@@6B@
    ??_7Builder@Gtk@@6B@
    ??_8Builder@Gtk@@7BObject@Glib@@@
    ??_8Builder@Gtk@@7BObjectBase@Glib@@@
    ?quark_no_gtkmm_derived_types@?A0x693cd9aa@@3IA
    ??_C@_0CH@BPKDFNIC@gtkmm__Builder?3?3no_gtkmm_derived@
    ??_C@_07MIMKDGKB@gtkmm__?$AA@
    ??_C@_0DB@NIAMCDNM@gtkmm?3?5object?5?$GA?$CFs?8?5not?5found?5in?5@
    ??_C@_0EK@HJAHOOOB@gtkmm?3?5object?5?$GA?$CFs?8?5?$CItype?$DN?$GA?$CFs?8?$CJ?5?$CI@
    ??_C@_0GE@MNKCNGEI@gtkmm?3?5Gtk?3?3Builder?3?5widget?5?$GA?$CFs?8@
    ??_C@_0EO@GFHGJEPD@gtkmm?3?5widget?5?$GA?$CFs?8?5?$CIin?5GtkBuilde@
    _TI3?AVBuilderError@Gtk@@
    _CTA3?AVBuilderError@Gtk@@
    ??_R0?AVBuilderError@Gtk@@@8
    _CT??_R0?AVBuilderError@Gtk@@@8??0BuilderError@Gtk@@QEAA@AEBV01@@Z16
    ??_R0?AVError@Glib@@@8
    _CT??_R0?AVError@Glib@@@8??0Error@Glib@@QEAA@AEBV01@@Z16
    ??_R0?AVException@Glib@@@8
    _CT??_R0?AVException@Glib@@@8??0Exception@Glib@@QEAA@AEBV01@@Z8
    ??_R0?AVObjectBase@Glib@@@8
    ??_R0?AVBuilder@Gtk@@@8
    ??_C@_0BD@PFPBAPPL@translation?9domain?$AA@
    ??_C@_0BD@OLBABOEK@vector?$DMT?$DO?5too?5long?$AA@
    ??_R0?AVObject@Glib@@@8
    ??_R4Exception@Glib@@6B@
    ??_R3Exception@Glib@@8
    ??_R2Exception@Glib@@8
    ??_R1A@?0A@EA@Exception@Glib@@8
    ??_R4BuilderError@Gtk@@6B@
    ??_R3BuilderError@Gtk@@8
    ??_R2BuilderError@Gtk@@8
    ??_R1A@?0A@EA@BuilderError@Gtk@@8
    ??_R1A@?0A@EA@Error@Glib@@8
    ??_R3Error@Glib@@8
    ??_R2Error@Glib@@8
    ??_R4Builder@Gtk@@6B@
    ??_R3Builder@Gtk@@8
    ??_R2Builder@Gtk@@8
    ??_R1A@?0A@EA@Builder@Gtk@@8
    ??_R1A@?0A@EA@Object@Glib@@8
    ??_R3Object@Glib@@8
    ??_R2Object@Glib@@8
    ??_R1A@A@7FA@ObjectBase@Glib@@8
    ??_R3ObjectBase@Glib@@8
    ??_R2ObjectBase@Glib@@8
    ??_R1A@?0A@EA@ObjectBase@Glib@@8
    ??_R1A@73FA@trackable@sigc@@8
    ??_R0?AUtrackable@sigc@@@8
    ??_R3trackable@sigc@@8
    ??_R2trackable@sigc@@8
    ??_R1A@?0A@EA@trackable@sigc@@8
    ??_R1A@A@3FA@trackable@sigc@@8
    ?button_class_@Button@Gtk@@0VButton_Class@2@A
    ??_C@_07JNDGNMOI@pressed?$AA@
    ??_C@_08NJNCOAEC@released?$AA@
    ??_C@_07NKGMCFDK@clicked?$AA@
    ??_C@_05IHEOCMON@enter?$AA@
    ??_C@_05KLLFHCCG@leave?$AA@
    ??_C@_08IFCMKJCD@activate?$AA@
    ?__empty_global_delete@@YAXPEAX@Z
    ?__empty_global_delete@@YAXPEAX_K@Z
    ??1?$Value@_N@Glib@@QEAA@XZ
    ?convert_const_gchar_ptr_to_ustring@Glib@@YA?AVustring@1@PEBD@Z
    ??1Button@Gtk@@UEAA@XZ
    ??0Button@Gtk@@IEAA@AEBVConstructParams@Glib@@@Z
    ??0Button@Gtk@@IEAA@PEAU_GtkButton@@@Z
    ?get_type@Button@Gtk@@SA_KXZ
    ?get_base_type@Button@Gtk@@SA_KXZ
    ?on_pressed@Button@Gtk@@MEAAXXZ
    ?on_released@Button@Gtk@@MEAAXXZ
    ?on_clicked@Button@Gtk@@MEAAXXZ
    ?on_enter@Button@Gtk@@MEAAXXZ
    ?on_leave@Button@Gtk@@MEAAXXZ
    ?on_activate@Button@Gtk@@MEAAXXZ
    ??0Button@Gtk@@QEAA@XZ
    ??0Button@Gtk@@QEAA@AEBVustring@Glib@@_N@Z
    ??0Button@Gtk@@QEAA@AEBVStockID@1@@Z
    ?clicked@Button@Gtk@@QEAAXXZ
    ?set_relief@Button@Gtk@@QEAAXW4ReliefStyle@2@@Z
    ?get_relief@Button@Gtk@@QEBA?AW4ReliefStyle@2@XZ
    ?set_label@Button@Gtk@@QEAAXAEBVustring@Glib@@@Z
    ?get_label@Button@Gtk@@QEBA?AVustring@Glib@@XZ
    ?set_use_underline@Button@Gtk@@QEAAX_N@Z
    ?get_use_underline@Button@Gtk@@QEBA_NXZ
    ?set_use_stock@Button@Gtk@@QEAAX_N@Z
    ?get_use_stock@Button@Gtk@@QEBA_NXZ
    ?set_focus_on_click@Button@Gtk@@QEAAX_N@Z
    ?get_focus_on_click@Button@Gtk@@QEBA_NXZ
    ?set_alignment@Button@Gtk@@QEAAXMM@Z
    ?get_alignment@Button@Gtk@@QEAAXAEAM0@Z
    ?set_image_from_icon_name@Button@Gtk@@QEAAXAEBVustring@Glib@@VIconSize@2@@Z
    ?set_image_from_icon_name@Button@Gtk@@QEAAXAEBVustring@Glib@@VIconSize@2@_N@Z
    ?set_image@Button@Gtk@@QEAAXAEAVWidget@2@@Z
    ?get_image@Button@Gtk@@QEAAPEAVWidget@2@XZ
    ?get_image@Button@Gtk@@QEBAPEBVWidget@2@XZ
    ?set_image_position@Button@Gtk@@QEAAXW4PositionType@2@@Z
    ?get_image_position@Button@Gtk@@QEBA?AW4PositionType@2@XZ
    ?set_always_show_image@Button@Gtk@@QEAAX_N@Z
    ?get_always_show_image@Button@Gtk@@QEAA_NXZ
    ?get_event_window@Button@Gtk@@QEAA?AV?$RefPtr@VWindow@Gdk@@@Glib@@XZ
    ?get_event_window@Button@Gtk@@QEBA?AV?$RefPtr@$$CBVWindow@Gdk@@@Glib@@XZ
    ?signal_pressed@Button@Gtk@@QEAA?AV?$SignalProxy0@X@Glib@@XZ
    ?signal_released@Button@Gtk@@QEAA?AV?$SignalProxy0@X@Glib@@XZ
    ?signal_clicked@Button@Gtk@@QEAA?AV?$SignalProxy0@X@Glib@@XZ
    ?signal_enter@Button@Gtk@@QEAA?AV?$SignalProxy0@X@Glib@@XZ
    ?signal_leave@Button@Gtk@@QEAA?AV?$SignalProxy0@X@Glib@@XZ
    ?signal_activate@Button@Gtk@@QEAA?AV?$SignalProxy0@X@Glib@@XZ
    ?property_label@Button@Gtk@@QEAA?AV?$PropertyProxy@Vustring@Glib@@@Glib@@XZ
    ?property_label@Button@Gtk@@QEBA?AV?$PropertyProxy_ReadOnly@Vustring@Glib@@@Glib@@XZ
    ?property_relief@Button@Gtk@@QEAA?AV?$PropertyProxy@W4ReliefStyle@Gtk@@@Glib@@XZ
    ?property_relief@Button@Gtk@@QEBA?AV?$PropertyProxy_ReadOnly@W4ReliefStyle@Gtk@@@Glib@@XZ
    ?property_use_underline@Button@Gtk@@QEAA?AV?$PropertyProxy@_N@Glib@@XZ
    ?property_use_underline@Button@Gtk@@QEBA?AV?$PropertyProxy_ReadOnly@_N@Glib@@XZ
    ?property_use_stock@Button@Gtk@@QEAA?AV?$PropertyProxy@_N@Glib@@XZ
    ?property_use_stock@Button@Gtk@@QEBA?AV?$PropertyProxy_ReadOnly@_N@Glib@@XZ
    ?property_focus_on_click@Button@Gtk@@QEAA?AV?$PropertyProxy@_N@Glib@@XZ
    ?property_focus_on_click@Button@Gtk@@QEBA?AV?$PropertyProxy_ReadOnly@_N@Glib@@XZ
    ?property_xalign@Button@Gtk@@QEAA?AV?$PropertyProxy@M@Glib@@XZ
    ?property_xalign@Button@Gtk@@QEBA?AV?$PropertyProxy_ReadOnly@M@Glib@@XZ
    ?property_yalign@Button@Gtk@@QEAA?AV?$PropertyProxy@M@Glib@@XZ
    ?property_yalign@Button@Gtk@@QEBA?AV?$PropertyProxy_ReadOnly@M@Glib@@XZ
    ?property_image@Button@Gtk@@QEAA?AV?$PropertyProxy@PEAVWidget@Gtk@@@Glib@@XZ
    ?property_image@Button@Gtk@@QEBA?AV?$PropertyProxy_ReadOnly@PEAVWidget@Gtk@@@Glib@@XZ
    ?property_image_position@Button@Gtk@@QEAA?AV?$PropertyProxy@W4PositionType@Gtk@@@Glib@@XZ
    ?property_image_position@Button@Gtk@@QEBA?AV?$PropertyProxy_ReadOnly@W4PositionType@Gtk@@@Glib@@XZ
    ?property_always_show_image@Button@Gtk@@QEAA?AV?$PropertyProxy@_N@Glib@@XZ
    ?property_always_show_image@Button@Gtk@@QEBA?AV?$PropertyProxy_ReadOnly@_N@Glib@@XZ
    ?wrap@Glib@@YAPEAVButton@Gtk@@PEAU_GtkButton@@_N@Z
    ?init@Button_Class@Gtk@@QEAAAEBVClass@Glib@@XZ
    ?class_init_function@Button_Class@Gtk@@SAXPEAX0@Z
    ?wrap_new@Button_Class@Gtk@@SAPEAVObjectBase@Glib@@PEAU_GObject@@@Z
    ?pressed_callback@Button_Class@Gtk@@KAXPEAU_GtkButton@@@Z
    ?released_callback@Button_Class@Gtk@@KAXPEAU_GtkButton@@@Z
    ?clicked_callback@Button_Class@Gtk@@KAXPEAU_GtkButton@@@Z
    ?enter_callback@Button_Class@Gtk@@KAXPEAU_GtkButton@@@Z
    ?leave_callback@Button_Class@Gtk@@KAXPEAU_GtkButton@@@Z
    ?activate_callback@Button_Class@Gtk@@KAXPEAU_GtkButton@@@Z
    ??$manage@VImage@Gtk@@@Gtk@@YAPEAVImage@0@PEAV10@@Z
    ?set_value@?$PropertyProxy@_N@Glib@@QEAAXAEB_N@Z
    ??$manage@VButton@Gtk@@@Gtk@@YAPEAVButton@0@PEAV10@@Z
    ??1?$RefPtr@VWindow@Gdk@@@Glib@@QEAA@XZ
    ??1?$RefPtr@$$CBVWindow@Gdk@@@Glib@@QEAA@XZ
    ?destroy_notify_@Object@Gtk@@$2PPPPPPPM@BI@EAAXXZ
    ?set_manage@Object@Gtk@@$4PPPPPPPM@BI@EAAXXZ
    ??_7Button@Gtk@@6BWidget@1@@
    ??_7Button@Gtk@@6BActivatable@1@@
    ??_7Button@Gtk@@6BObject@1@@
    ??_8Button@Gtk@@7BObject@Glib@@@
    ??_8Button@Gtk@@7BInterface@Glib@@Bin@1@@
    ??_8Button@Gtk@@7BInterface@Glib@@Activatable@1@@
    ??_8Button@Gtk@@7BObjectBase@Glib@@@
    ??_C@_0O@BDCKFHIO@use_underline?$AA@
    ??_C@_05IDCCNNGI@label?$AA@
    ??_C@_09KGJEAIOE@use_stock?$AA@
    ??_R0?AVObjectBase@Glib@@@8
    ??_R0?AVButton@Gtk@@@8
    ??_C@_06CGAKJIEF@relief?$AA@
    ??_C@_0O@LFGELMLM@use?9underline?$AA@
    ??_C@_09NNGDMJOG@use?9stock?$AA@
    ??_C@_0P@PANHJGLE@focus?9on?9click?$AA@
    ??_C@_06NCLGNLHL@xalign?$AA@
    ??_C@_06HEMBNAMP@yalign?$AA@
    ??_C@_05NGOMGBBD@image?$AA@
    ??_C@_0P@MKFCLEPE@image?9position?$AA@
    ??_C@_0BC@NMEHODPL@always?9show?9image?$AA@
    ??_R4Button@Gtk@@6BWidget@1@@
    ??_R3Button@Gtk@@8
    ??_R2Button@Gtk@@8
    ??_R1A@?0A@EA@Button@Gtk@@8
    ??_R1A@?0A@EA@Bin@Gtk@@8
    ??_R0?AVBin@Gtk@@@8
    ??_R3Bin@Gtk@@8
    ??_R2Bin@Gtk@@8
    ??_R1A@?0A@EA@Container@Gtk@@8
    ??_R0?AVContainer@Gtk@@@8
    ??_R3Container@Gtk@@8
    ??_R2Container@Gtk@@8
    ??_R1A@?0A@EA@Widget@Gtk@@8
    ??_R0?AVWidget@Gtk@@@8
    ??_R3Widget@Gtk@@8
    ??_R2Widget@Gtk@@8
    ??_R17?0A@EA@Object@Gtk@@8
    ??_R0?AVObject@Gtk@@@8
    ??_R3Object@Gtk@@8
    ??_R2Object@Gtk@@8
    ??_R1A@?0A@EA@Object@Gtk@@8
    ??_R1A@?0A@EA@Object@Glib@@8
    ??_R0?AVObject@Glib@@@8
    ??_R3Object@Glib@@8
    ??_R2Object@Glib@@8
    ??_R1A@A@7FA@ObjectBase@Glib@@8
    ??_R3ObjectBase@Glib@@8
    ??_R2ObjectBase@Glib@@8
    ??_R1A@?0A@EA@ObjectBase@Glib@@8
    ??_R1A@73FA@trackable@sigc@@8
    ??_R0?AUtrackable@sigc@@@8
    ??_R3trackable@sigc@@8
    ??_R2trackable@sigc@@8
    ??_R1A@?0A@EA@trackable@sigc@@8
    ??_R1A@A@3FA@trackable@sigc@@8
    ??_R17?0A@EA@Object@Glib@@8
    ??_R1A@77FA@ObjectBase@Glib@@8
    ??_R1BI@?0A@EA@Buildable@Gtk@@8
    ??_R0?AVBuildable@Gtk@@@8
    ??_R3Buildable@Gtk@@8
    ??_R2Buildable@Gtk@@8
    ??_R1A@?0A@EA@Buildable@Gtk@@8
    ??_R1A@?0A@EA@Interface@Glib@@8
    ??_R0?AVInterface@Glib@@@8
    ??_R3Interface@Glib@@8
    ??_R2Interface@Glib@@8
    ??_R1BI@?0A@EA@Interface@Glib@@8
    ??_R1BI@?0A@EC@Interface@Glib@@8
    ??_R1CA@?0A@EA@Activatable@Gtk@@8
    ??_R0?AVActivatable@Gtk@@@8
    ??_R3Activatable@Gtk@@8
    ??_R2Activatable@Gtk@@8
    ??_R1A@?0A@EA@Activatable@Gtk@@8
    ??_R17?0A@EA@Interface@Glib@@8
    ??_R1CI@?0A@EC@Interface@Glib@@8
    ??_R4Button@Gtk@@6BActivatable@1@@
    ??_R4Button@Gtk@@6BObject@1@@
    ?buttonbox_class_@ButtonBox@Gtk@@0VButtonBox_Class@2@A
    ?__empty_global_delete@@YAXPEAX@Z
    ?__empty_global_delete@@YAXPEAX_K@Z
    ??1ButtonBox@Gtk@@UEAA@XZ
    ??0ButtonBox@Gtk@@IEAA@AEBVConstructParams@Glib@@@Z
    ??0ButtonBox@Gtk@@IEAA@PEAU_GtkButtonBox@@@Z
    ?get_type@ButtonBox@Gtk@@SA_KXZ
    ?get_base_type@ButtonBox@Gtk@@SA_KXZ
    ??0ButtonBox@Gtk@@QEAA@W4Orientation@1@@Z
    ?get_layout@ButtonBox@Gtk@@QEBA?AW4ButtonBoxStyle@2@XZ
    ?set_layout@ButtonBox@Gtk@@QEAAXW4ButtonBoxStyle@2@@Z
    ?set_child_secondary@ButtonBox@Gtk@@QEAAXAEAVWidget@2@_N@Z
    ?get_child_secondary@ButtonBox@Gtk@@QEBA_NAEBVWidget@2@@Z
    ?get_child_non_homogeneous@ButtonBox@Gtk@@QEBA_NAEBVWidget@2@@Z
    ?set_child_non_homogeneous@ButtonBox@Gtk@@QEAAXAEAVWidget@2@_N@Z
    ?property_layout_style@ButtonBox@Gtk@@QEAA?AV?$PropertyProxy@W4ButtonBoxStyle@Gtk@@@Glib@@XZ
    ?property_layout_style@ButtonBox@Gtk@@QEBA?AV?$PropertyProxy_ReadOnly@W4ButtonBoxStyle@Gtk@@@Glib@@XZ
    ??_DButtonBox@Gtk@@QEAAXXZ
    ?wrap@Glib@@YAPEAVButtonBox@Gtk@@PEAU_GtkButtonBox@@_N@Z
    ?init@ButtonBox_Class@Gtk@@QEAAAEBVClass@Glib@@XZ
    ?class_init_function@ButtonBox_Class@Gtk@@SAXPEAX0@Z
    ?wrap_new@ButtonBox_Class@Gtk@@SAPEAVObjectBase@Glib@@PEAU_GObject@@@Z
    ??$manage@VButtonBox@Gtk@@@Gtk@@YAPEAVButtonBox@0@PEAV10@@Z
    ?destroy_notify_@Object@Gtk@@$2PPPPPPPM@BA@EAAXXZ
    ?set_manage@Object@Gtk@@$4PPPPPPPM@BA@EAAXXZ
    ??_7ButtonBox@Gtk@@6BWidget@1@@
    ??_7ButtonBox@Gtk@@6BObject@1@@
    ??_8ButtonBox@Gtk@@7BObject@Glib@@@
    ??_8ButtonBox@Gtk@@7BInterface@Glib@@Container@1@@
    ??_8ButtonBox@Gtk@@7BInterface@Glib@@Orientable@1@@
    ??_8ButtonBox@Gtk@@7BObjectBase@Glib@@@
    ??_R0?AVObjectBase@Glib@@@8
    ??_R0?AVButtonBox@Gtk@@@8
    ??_C@_0M@KPMDGEHG@orientation?$AA@
    ??_C@_0N@IAGGPDEI@layout?9style?$AA@
    ??_R4ButtonBox@Gtk@@6BWidget@1@@
    ??_R3ButtonBox@Gtk@@8
    ??_R2ButtonBox@Gtk@@8
    ??_R1A@?0A@EA@ButtonBox@Gtk@@8
    ??_R1A@?0A@EA@Box@Gtk@@8
    ??_R0?AVBox@Gtk@@@8
    ??_R3Box@Gtk@@8
    ??_R2Box@Gtk@@8
    ??_R1A@?0A@EA@Container@Gtk@@8
    ??_R0?AVContainer@Gtk@@@8
    ??_R3Container@Gtk@@8
    ??_R2Container@Gtk@@8
    ??_R1A@?0A@EA@Widget@Gtk@@8
    ??_R0?AVWidget@Gtk@@@8
    ??_R3Widget@Gtk@@8
    ??_R2Widget@Gtk@@8
    ??_R17?0A@EA@Object@Gtk@@8
    ??_R0?AVObject@Gtk@@@8
    ??_R3Object@Gtk@@8
    ??_R2Object@Gtk@@8
    ??_R1A@?0A@EA@Object@Gtk@@8
    ??_R1A@?0A@EA@Object@Glib@@8
    ??_R0?AVObject@Glib@@@8
    ??_R3Object@Glib@@8
    ??_R2Object@Glib@@8
    ??_R1A@A@7FA@ObjectBase@Glib@@8
    ??_R3ObjectBase@Glib@@8
    ??_R2ObjectBase@Glib@@8
    ??_R1A@?0A@EA@ObjectBase@Glib@@8
    ??_R1A@73FA@trackable@sigc@@8
    ??_R0?AUtrackable@sigc@@@8
    ??_R3trackable@sigc@@8
    ??_R2trackable@sigc@@8
    ??_R1A@?0A@EA@trackable@sigc@@8
    ??_R1A@A@3FA@trackable@sigc@@8
    ??_R17?0A@EA@Object@Glib@@8
    ??_R1A@77FA@ObjectBase@Glib@@8
    ??_R1BI@?0A@EA@Buildable@Gtk@@8
    ??_R0?AVBuildable@Gtk@@@8
    ??_R3Buildable@Gtk@@8
    ??_R2Buildable@Gtk@@8
    ??_R1A@?0A@EA@Buildable@Gtk@@8
    ??_R1A@?0A@EA@Interface@Glib@@8
    ??_R0?AVInterface@Glib@@@8
    ??_R3Interface@Glib@@8
    ??_R2Interface@Glib@@8
    ??_R1BI@?0A@EA@Interface@Glib@@8
    ??_R1BI@?0A@EC@Interface@Glib@@8
    ??_R1CA@?0A@EA@Orientable@Gtk@@8
    ??_R0?AVOrientable@Gtk@@@8
    ??_R3Orientable@Gtk@@8
    ??_R2Orientable@Gtk@@8
    ??_R1A@?0A@EA@Orientable@Gtk@@8
    ??_R1CA@?0A@EC@Interface@Glib@@8
    ??_R4ButtonBox@Gtk@@6BObject@1@@
    ??_C@_0O@DGEIPKLO@month_changed?$AA@
    ??_C@_0N@HAAOOMOI@day_selected?$AA@
    ??_C@_0BK@NJLAHOA@day_selected_double_click?$AA@
    ??_C@_0L@LLJNNBOM@prev_month?$AA@
    ??_C@_0L@JNMFAGOL@next_month?$AA@
    ??_C@_09HCCEDHEC@prev_year?$AA@
    ??_C@_09PDMDJMHC@next_year?$AA@
    ?calendar_class_@Calendar@Gtk@@0VCalendar_Class@2@A
    ?__empty_global_delete@@YAXPEAX@Z
    ?__empty_global_delete@@YAXPEAX_K@Z
    ?value_type@?$Value@W4CalendarDisplayOptions@Gtk@@@Glib@@SA_KXZ
    ??1Calendar@Gtk@@UEAA@XZ
    ??0Calendar@Gtk@@IEAA@AEBVConstructParams@Glib@@@Z
    ??0Calendar@Gtk@@IEAA@PEAU_GtkCalendar@@@Z
    ?get_type@Calendar@Gtk@@SA_KXZ
    ?get_base_type@Calendar@Gtk@@SA_KXZ
    ?on_month_changed@Calendar@Gtk@@MEAAXXZ
    ?on_day_selected@Calendar@Gtk@@MEAAXXZ
    ?on_day_selected_double_click@Calendar@Gtk@@MEAAXXZ
    ?on_prev_month@Calendar@Gtk@@MEAAXXZ
    ?on_next_month@Calendar@Gtk@@MEAAXXZ
    ?on_prev_year@Calendar@Gtk@@MEAAXXZ
    ?on_next_year@Calendar@Gtk@@MEAAXXZ
    ??0Calendar@Gtk@@QEAA@XZ
    ?select_month@Calendar@Gtk@@QEAAXII@Z
    ?select_day@Calendar@Gtk@@QEAAXI@Z
    ?mark_day@Calendar@Gtk@@QEAAXI@Z
    ?unmark_day@Calendar@Gtk@@QEAAXI@Z
    ?clear_marks@Calendar@Gtk@@QEAAXXZ
    ?set_display_options@Calendar@Gtk@@QEAAXW4CalendarDisplayOptions@2@@Z
    ?get_display_options@Calendar@Gtk@@QEBA?AW4CalendarDisplayOptions@2@XZ
    ?get_date@Calendar@Gtk@@QEBAXAEAI00@Z
    ?get_date@Calendar@Gtk@@QEBAXAEAVDate@Glib@@@Z
    ?set_detail_func@Calendar@Gtk@@QEAAXAEBV?$slot@Vustring@Glib@@IIIUnil@sigc@@U34@U34@U34@@sigc@@@Z
    ?set_detail_width_chars@Calendar@Gtk@@QEAAXH@Z
    ?set_detail_height_rows@Calendar@Gtk@@QEAAXH@Z
    ?get_detail_width_chars@Calendar@Gtk@@QEBAHXZ
    ?get_detail_height_rows@Calendar@Gtk@@QEBAHXZ
    ?get_day_is_marked@Calendar@Gtk@@QEBA_NI@Z
    ?signal_month_changed@Calendar@Gtk@@QEAA?AV?$SignalProxy0@X@Glib@@XZ
    ?signal_day_selected@Calendar@Gtk@@QEAA?AV?$SignalProxy0@X@Glib@@XZ
    ?signal_day_selected_double_click@Calendar@Gtk@@QEAA?AV?$SignalProxy0@X@Glib@@XZ
    ?signal_prev_month@Calendar@Gtk@@QEAA?AV?$SignalProxy0@X@Glib@@XZ
    ?signal_next_month@Calendar@Gtk@@QEAA?AV?$SignalProxy0@X@Glib@@XZ
    ?signal_prev_year@Calendar@Gtk@@QEAA?AV?$SignalProxy0@X@Glib@@XZ
    ?signal_next_year@Calendar@Gtk@@QEAA?AV?$SignalProxy0@X@Glib@@XZ
    ?property_year@Calendar@Gtk@@QEAA?AV?$PropertyProxy@H@Glib@@XZ
    ?property_year@Calendar@Gtk@@QEBA?AV?$PropertyProxy_ReadOnly@H@Glib@@XZ
    ?property_month@Calendar@Gtk@@QEAA?AV?$PropertyProxy@H@Glib@@XZ
    ?property_month@Calendar@Gtk@@QEBA?AV?$PropertyProxy_ReadOnly@H@Glib@@XZ
    ?property_day@Calendar@Gtk@@QEAA?AV?$PropertyProxy@H@Glib@@XZ
    ?property_day@Calendar@Gtk@@QEBA?AV?$PropertyProxy_ReadOnly@H@Glib@@XZ
    ?property_show_heading@Calendar@Gtk@@QEAA?AV?$PropertyProxy@_N@Glib@@XZ
    ?property_show_heading@Calendar@Gtk@@QEBA?AV?$PropertyProxy_ReadOnly@_N@Glib@@XZ
    ?property_show_day_names@Calendar@Gtk@@QEAA?AV?$PropertyProxy@_N@Glib@@XZ
    ?property_show_day_names@Calendar@Gtk@@QEBA?AV?$PropertyProxy_ReadOnly@_N@Glib@@XZ
    ?property_no_month_change@Calendar@Gtk@@QEAA?AV?$PropertyProxy@_N@Glib@@XZ
    ?property_no_month_change@Calendar@Gtk@@QEBA?AV?$PropertyProxy_ReadOnly@_N@Glib@@XZ
    ?property_show_week_numbers@Calendar@Gtk@@QEAA?AV?$PropertyProxy@_N@Glib@@XZ
    ?property_show_week_numbers@Calendar@Gtk@@QEBA?AV?$PropertyProxy_ReadOnly@_N@Glib@@XZ
    ?property_show_details@Calendar@Gtk@@QEAA?AV?$PropertyProxy@_N@Glib@@XZ
    ?property_show_details@Calendar@Gtk@@QEBA?AV?$PropertyProxy_ReadOnly@_N@Glib@@XZ
    ?property_detail_width_chars@Calendar@Gtk@@QEAA?AV?$PropertyProxy@H@Glib@@XZ
    ?property_detail_width_chars@Calendar@Gtk@@QEBA?AV?$PropertyProxy_ReadOnly@H@Glib@@XZ
    ?property_detail_height_rows@Calendar@Gtk@@QEAA?AV?$PropertyProxy@H@Glib@@XZ
    ?property_detail_height_rows@Calendar@Gtk@@QEBA?AV?$PropertyProxy_ReadOnly@H@Glib@@XZ
    ??_DCalendar@Gtk@@QEAAXXZ
    ?wrap@Glib@@YAPEAVCalendar@Gtk@@PEAU_GtkCalendar@@_N@Z
    ?init@Calendar_Class@Gtk@@QEAAAEBVClass@Glib@@XZ
    ?class_init_function@Calendar_Class@Gtk@@SAXPEAX0@Z
    ?wrap_new@Calendar_Class@Gtk@@SAPEAVObjectBase@Glib@@PEAU_GObject@@@Z
    ?month_changed_callback@Calendar_Class@Gtk@@KAXPEAU_GtkCalendar@@@Z
    ?day_selected_callback@Calendar_Class@Gtk@@KAXPEAU_GtkCalendar@@@Z
    ?day_selected_double_click_callback@Calendar_Class@Gtk@@KAXPEAU_GtkCalendar@@@Z
    ?prev_month_callback@Calendar_Class@Gtk@@KAXPEAU_GtkCalendar@@@Z
    ?next_month_callback@Calendar_Class@Gtk@@KAXPEAU_GtkCalendar@@@Z
    ?prev_year_callback@Calendar_Class@Gtk@@KAXPEAU_GtkCalendar@@@Z
    ?next_year_callback@Calendar_Class@Gtk@@KAXPEAU_GtkCalendar@@@Z
    ??R?$slot3@Vustring@Glib@@III@sigc@@QEBA?AVustring@Glib@@AEBI00@Z
    ??$manage@VCalendar@Gtk@@@Gtk@@YAPEAVCalendar@0@PEAV10@@Z
    ?destroy_notify_@Object@Gtk@@$2PPPPPPPM@7EAAXXZ
    ?set_manage@Object@Gtk@@$4PPPPPPPM@7EAAXXZ
    ??_7Calendar@Gtk@@6BWidget@1@@
    ??_7Calendar@Gtk@@6BObject@1@@
    ??_8Calendar@Gtk@@7BObject@Glib@@@
    ??_8Calendar@Gtk@@7BInterface@Glib@@@
    ??_8Calendar@Gtk@@7BObjectBase@Glib@@@
    ??_R0?AVObjectBase@Glib@@@8
    ??_R0?AVCalendar@Gtk@@@8
    ??_C@_04JFPLDHAO@year?$AA@
    ??_C@_05MEBAADFH@month?$AA@
    ??_C@_03NNBHCDBP@day?$AA@
    ??_C@_0N@CGKNFMNH@show?9heading?$AA@
    ??_C@_0P@CPFPKHOP@show?9day?9names?$AA@
    ??_C@_0BA@HJDOIDAA@no?9month?9change?$AA@
    ??_C@_0BC@BONHDNL@show?9week?9numbers?$AA@
    ??_C@_0N@MHNDFGPL@show?9details?$AA@
    ??_C@_0BD@BGDCMIAC@detail?9width?9chars?$AA@
    ??_C@_0BD@ENEMCAMP@detail?9height?9rows?$AA@
    ??_R4Calendar@Gtk@@6BWidget@1@@
    ??_R3Calendar@Gtk@@8
    ??_R2Calendar@Gtk@@8
    ??_R1A@?0A@EA@Calendar@Gtk@@8
    ??_R1A@?0A@EA@Widget@Gtk@@8
    ??_R0?AVWidget@Gtk@@@8
    ??_R3Widget@Gtk@@8
    ??_R2Widget@Gtk@@8
    ??_R17?0A@EA@Object@Gtk@@8
    ??_R0?AVObject@Gtk@@@8
    ??_R3Object@Gtk@@8
    ??_R2Object@Gtk@@8
    ??_R1A@?0A@EA@Object@Gtk@@8
    ??_R1A@?0A@EA@Object@Glib@@8
    ??_R0?AVObject@Glib@@@8
    ??_R3Object@Glib@@8
    ??_R2Object@Glib@@8
    ??_R1A@A@7FA@ObjectBase@Glib@@8
    ??_R3ObjectBase@Glib@@8
    ??_R2ObjectBase@Glib@@8
    ??_R1A@?0A@EA@ObjectBase@Glib@@8
    ??_R1A@73FA@trackable@sigc@@8
    ??_R0?AUtrackable@sigc@@@8
    ??_R3trackable@sigc@@8
    ??_R2trackable@sigc@@8
    ??_R1A@?0A@EA@trackable@sigc@@8
    ??_R1A@A@3FA@trackable@sigc@@8
    ??_R17?0A@EA@Object@Glib@@8
    ??_R1A@77FA@ObjectBase@Glib@@8
    ??_R1BI@?0A@EA@Buildable@Gtk@@8
    ??_R0?AVBuildable@Gtk@@@8
    ??_R3Buildable@Gtk@@8
    ??_R2Buildable@Gtk@@8
    ??_R1A@?0A@EA@Buildable@Gtk@@8
    ??_R1A@?0A@EA@Interface@Glib@@8
    ??_R0?AVInterface@Glib@@@8
    ??_R3Interface@Glib@@8
    ??_R2Interface@Glib@@8
    ??_R1BI@?0A@EA@Interface@Glib@@8
    ??_R4Calendar@Gtk@@6BObject@1@@
    ??_C@_0N@PCOGGAJD@add?9editable?$AA@
    ??_C@_0BA@NIDKFPDH@remove?9editable?$AA@
    ??_C@_0O@CHEKIODB@focus?9changed?$AA@
    ?cellarea_class_@CellArea@Gtk@@0VCellArea_Class@2@A
    ??_C@_0BB@OPAPPNAH@apply?9attributes?$AA@
    ?__empty_global_delete@@YAXPEAX@Z
    ?__empty_global_delete@@YAXPEAX_K@Z
    ?convert_const_gchar_ptr_to_ustring@Glib@@YA?AVustring@1@PEBD@Z
    ??0CellArea@Gtk@@IEAA@AEBVConstructParams@Glib@@@Z
    ??0CellArea@Gtk@@IEAA@PEAU_GtkCellArea@@@Z
    ??1CellArea@Gtk@@UEAA@XZ
    ?get_type@CellArea@Gtk@@SA_KXZ
    ?get_base_type@CellArea@Gtk@@SA_KXZ
    ?gobj_copy@CellArea@Gtk@@QEAAPEAU_GtkCellArea@@XZ
    ??0CellArea@Gtk@@IEAA@XZ
    ?add@CellArea@Gtk@@QEAAXAEAVCellRenderer@2@@Z
    ?remove@CellArea@Gtk@@QEAAXAEAVCellRenderer@2@@Z
    ?has_renderer@CellArea@Gtk@@QEAA_NAEAVCellRenderer@2@@Z
    ?foreach@CellArea@Gtk@@QEAAXAEBV?$slot@_NPEAVCellRenderer@Gtk@@Unil@sigc@@U34@U34@U34@U34@U34@@sigc@@@Z
    ?foreach@CellArea@Gtk@@QEAAXAEBV?$RefPtr@VCellAreaContext@Gtk@@@Glib@@PEAVWidget@2@AEBVRectangle@Gdk@@2AEBV?$slot@_NPEAVCellRenderer@Gtk@@AEBVRectangle@Gdk@@AEBV34@Unil@sigc@@U56@U56@U56@@sigc@@@Z
    ?event@CellArea@Gtk@@QEAAHAEBV?$RefPtr@VCellAreaContext@Gtk@@@Glib@@AEAVWidget@2@PEAT_GdkEvent@@AEBVRectangle@Gdk@@W4GtkCellRendererState@@@Z
    ?render@CellArea@Gtk@@QEAAXAEBV?$RefPtr@VCellAreaContext@Gtk@@@Glib@@AEAVWidget@2@AEBV?$RefPtr@VContext@Cairo@@@Cairo@@AEBVRectangle@Gdk@@3W4CellRendererState@2@_N@Z
    ?get_cell_allocation@CellArea@Gtk@@QEAAXAEBV?$RefPtr@VCellAreaContext@Gtk@@@Glib@@AEAVWidget@2@AEAVCellRenderer@2@AEBVRectangle@Gdk@@AEAV78@@Z
    ?get_cell_at_position@CellArea@Gtk@@QEAAPEAVCellRenderer@2@AEBV?$RefPtr@VCellAreaContext@Gtk@@@Glib@@AEAVWidget@2@AEBVRectangle@Gdk@@HHAEAV78@@Z
    ?get_cell_at_position@CellArea@Gtk@@QEBAPEBVCellRenderer@2@AEBV?$RefPtr@VCellAreaContext@Gtk@@@Glib@@AEAVWidget@2@AEBVRectangle@Gdk@@HHAEAV78@@Z
    ?create_context@CellArea@Gtk@@QEBA?AV?$RefPtr@VCellAreaContext@Gtk@@@Glib@@XZ
    ?copy_context@CellArea@Gtk@@QEAA?AV?$RefPtr@VCellAreaContext@Gtk@@@Glib@@AEBV?$RefPtr@$$CBVCellAreaContext@Gtk@@@4@@Z
    ?get_request_mode@CellArea@Gtk@@QEBA?AW4SizeRequestMode@2@XZ
    ?get_preferred_width@CellArea@Gtk@@QEAAXAEBV?$RefPtr@VCellAreaContext@Gtk@@@Glib@@AEAVWidget@2@AEAH2@Z
    ?get_preferred_height_for_width@CellArea@Gtk@@QEAAXAEBV?$RefPtr@VCellAreaContext@Gtk@@@Glib@@AEAVWidget@2@HAEAH2@Z
    ?get_preferred_height@CellArea@Gtk@@QEAAXAEBV?$RefPtr@VCellAreaContext@Gtk@@@Glib@@AEAVWidget@2@AEAH2@Z
    ?get_preferred_width_for_height@CellArea@Gtk@@QEAAXAEBV?$RefPtr@VCellAreaContext@Gtk@@@Glib@@AEAVWidget@2@HAEAH2@Z
    ?get_current_path_string@CellArea@Gtk@@QEBA?AVustring@Glib@@XZ
    ?apply_attributes@CellArea@Gtk@@QEAAXAEBV?$RefPtr@VTreeModel@Gtk@@@Glib@@AEBVTreeIter@2@_N2@Z
    ?attribute_connect@CellArea@Gtk@@QEAAXAEAVCellRenderer@2@AEBVustring@Glib@@H@Z
    ?attribute_disconnect@CellArea@Gtk@@QEAAXAEAVCellRenderer@2@AEBVustring@Glib@@@Z
    ?attribute_get_column@CellArea@Gtk@@QEBAHAEAVCellRenderer@2@AEBVustring@Glib@@@Z
    ?cell_set_property@CellArea@Gtk@@QEAAXAEAVCellRenderer@2@AEBVustring@Glib@@AEBVValueBase@5@@Z
    ?cell_get_property@CellArea@Gtk@@QEAAXAEAVCellRenderer@2@AEBVustring@Glib@@AEAVValueBase@5@@Z
    ?is_activatable@CellArea@Gtk@@QEBA_NXZ
    ?activate@CellArea@Gtk@@QEAA_NAEBV?$RefPtr@VCellAreaContext@Gtk@@@Glib@@AEAVWidget@2@AEBVRectangle@Gdk@@W4CellRendererState@2@_N@Z
    ?focus@CellArea@Gtk@@QEAA_NW4DirectionType@2@@Z
    ?set_focus_cell@CellArea@Gtk@@QEAAXAEAVCellRenderer@2@@Z
    ?get_focus_cell@CellArea@Gtk@@QEAAPEAVCellRenderer@2@XZ
    ?get_focus_cell@CellArea@Gtk@@QEBAPEBVCellRenderer@2@XZ
    ?add_focus_sibling@CellArea@Gtk@@QEAAXAEAVCellRenderer@2@0@Z
    ?remove_focus_sibling@CellArea@Gtk@@QEAAXAEAVCellRenderer@2@0@Z
    ?is_focus_sibling@CellArea@Gtk@@QEAA_NAEAVCellRenderer@2@0@Z
    ?get_focus_siblings@CellArea@Gtk@@QEAA?AV?$vector@PEAVCellRenderer@Gtk@@V?$allocator@PEAVCellRenderer@Gtk@@@std@@@std@@AEAVCellRenderer@2@@Z
    ?get_focus_siblings@CellArea@Gtk@@QEBA?AV?$vector@PEBVCellRenderer@Gtk@@V?$allocator@PEBVCellRenderer@Gtk@@@std@@@std@@AEBVCellRenderer@2@@Z
    ?get_focus_from_sibling@CellArea@Gtk@@QEAAPEAVCellRenderer@2@AEAV32@@Z
    ?get_focus_from_sibling@CellArea@Gtk@@QEBAPEBVCellRenderer@2@AEAV32@@Z
    ?get_edited_cell@CellArea@Gtk@@QEAAPEAVCellRenderer@2@XZ
    ?get_edited_cell@CellArea@Gtk@@QEBAPEBVCellRenderer@2@XZ
    ?get_edit_widget@CellArea@Gtk@@QEAAPEAVCellEditable@2@XZ
    ?get_edit_widget@CellArea@Gtk@@QEBAPEBVCellEditable@2@XZ
    ?activate_cell@CellArea@Gtk@@QEAA_NAEAVWidget@2@AEAVCellRenderer@2@PEAT_GdkEvent@@AEBVRectangle@Gdk@@W4CellRendererState@2@@Z
    ?stop_editing@CellArea@Gtk@@QEAAX_N@Z
    ?inner_cell_area@CellArea@Gtk@@QEAAXAEAVWidget@2@AEBVRectangle@Gdk@@AEAV45@@Z
    ?request_renderer@CellArea@Gtk@@QEAAXAEAVCellRenderer@2@W4Orientation@2@AEAVWidget@2@HAEAH3@Z
    ?signal_apply_attributes@CellArea@Gtk@@IEAA?AV?$SignalProxy4@XAEBV?$RefPtr@VTreeModel@Gtk@@@Glib@@AEBVTreeIter@Gtk@@_N_N@Glib@@XZ
    ?signal_add_editable@CellArea@Gtk@@IEAA?AV?$SignalProxy4@XPEAVCellRenderer@Gtk@@PEAVCellEditable@2@AEBVRectangle@Gdk@@AEBVustring@Glib@@@Glib@@XZ
    ?signal_remove_editable@CellArea@Gtk@@IEAA?AV?$SignalProxy2@XPEAVCellRenderer@Gtk@@PEAVCellEditable@2@@Glib@@XZ
    ?signal_focus_changed@CellArea@Gtk@@IEAA?AV?$SignalProxy2@XPEAVCellRenderer@Gtk@@AEBVustring@Glib@@@Glib@@XZ
    ?get_request_mode_vfunc@CellArea@Gtk@@MEBA?AW4SizeRequestMode@2@XZ
    ?get_preferred_width_vfunc@CellArea@Gtk@@MEAAXAEBV?$RefPtr@VCellAreaContext@Gtk@@@Glib@@AEAVWidget@2@AEAH2@Z
    ?get_preferred_height_for_width_vfunc@CellArea@Gtk@@MEAAXAEBV?$RefPtr@VCellAreaContext@Gtk@@@Glib@@AEAVWidget@2@HAEAH2@Z
    ?get_preferred_height_vfunc@CellArea@Gtk@@MEAAXAEBV?$RefPtr@VCellAreaContext@Gtk@@@Glib@@AEAVWidget@2@AEAH2@Z
    ?get_preferred_width_for_height_vfunc@CellArea@Gtk@@MEAAXAEBV?$RefPtr@VCellAreaContext@Gtk@@@Glib@@AEAVWidget@2@HAEAH2@Z
    ?property_focus_cell@CellArea@Gtk@@IEAA?AV?$PropertyProxy@PEAVCellRenderer@Gtk@@@Glib@@XZ
    ?property_focus_cell@CellArea@Gtk@@IEBA?AV?$PropertyProxy_ReadOnly@PEAVCellRenderer@Gtk@@@Glib@@XZ
    ?property_edited_cell@CellArea@Gtk@@IEBA?AV?$PropertyProxy_ReadOnly@PEAVCellRenderer@Gtk@@@Glib@@XZ
    ?property_edit_widget@CellArea@Gtk@@IEBA?AV?$PropertyProxy_ReadOnly@PEAVCellEditable@Gtk@@@Glib@@XZ
    ??_DCellArea@Gtk@@QEAAXXZ
    ?wrap@Glib@@YA?AV?$RefPtr@VCellArea@Gtk@@@1@PEAU_GtkCellArea@@_N@Z
    ?init@CellArea_Class@Gtk@@QEAAAEBVClass@Glib@@XZ
    ?class_init_function@CellArea_Class@Gtk@@SAXPEAX0@Z
    ?wrap_new@CellArea_Class@Gtk@@SAPEAVObjectBase@Glib@@PEAU_GObject@@@Z
    ?get_request_mode_vfunc_callback@CellArea_Class@Gtk@@KA?AW4GtkSizeRequestMode@@PEAU_GtkCellArea@@@Z
    ?get_preferred_width_vfunc_callback@CellArea_Class@Gtk@@KAXPEAU_GtkCellArea@@PEAU_GtkCellAreaContext@@PEAU_GtkWidget@@PEAH3@Z
    ?get_preferred_height_for_width_vfunc_callback@CellArea_Class@Gtk@@KAXPEAU_GtkCellArea@@PEAU_GtkCellAreaContext@@PEAU_GtkWidget@@HPEAH3@Z
    ?get_preferred_height_vfunc_callback@CellArea_Class@Gtk@@KAXPEAU_GtkCellArea@@PEAU_GtkCellAreaContext@@PEAU_GtkWidget@@PEAH3@Z
    ?get_preferred_width_for_height_vfunc_callback@CellArea_Class@Gtk@@KAXPEAU_GtkCellArea@@PEAU_GtkCellAreaContext@@PEAU_GtkWidget@@HPEAH3@Z
    ??1?$RefPtr@VCellAreaContext@Gtk@@@Glib@@QEAA@XZ
    ??1?$RefPtr@VTreeModel@Gtk@@@Glib@@QEAA@XZ
    ?allocate@?$allocator@PEAVCellRenderer@Gtk@@@std@@QEAAPEAPEAVCellRenderer@Gtk@@_K@Z
    ?list_to_vector@?$ListHandler@PEAVCellRenderer@Gtk@@U?$TypeTraits@PEAVCellRenderer@Gtk@@@Container_Helpers@Glib@@@Glib@@SA?AV?$vector@PEAVCellRenderer@Gtk@@V?$allocator@PEAVCellRenderer@Gtk@@@std@@@std@@PEAU_GList@@W4OwnershipType@2@@Z
    ?allocate@?$allocator@PEBVCellRenderer@Gtk@@@std@@QEAAPEAPEBVCellRenderer@Gtk@@_K@Z
    ?list_to_vector@?$ListHandler@PEBVCellRenderer@Gtk@@U?$TypeTraits@PEBVCellRenderer@Gtk@@@Container_Helpers@Glib@@@Glib@@SA?AV?$vector@PEBVCellRenderer@Gtk@@V?$allocator@PEBVCellRenderer@Gtk@@@std@@@std@@PEAU_GList@@W4OwnershipType@2@@Z
    ??$_Deallocate@PEBVCellRenderer@Gtk@@@std@@YAXPEAPEBVCellRenderer@Gtk@@_K@Z
    ??$_Deallocate@PEAVCellRenderer@Gtk@@@std@@YAXPEAPEAVCellRenderer@Gtk@@_K@Z
    ??1?$GListKeeper@U?$TypeTraits@PEAVCellRenderer@Gtk@@@Container_Helpers@Glib@@@Container_Helpers@Glib@@QEAA@XZ
    ??1?$GListKeeper@U?$TypeTraits@PEBVCellRenderer@Gtk@@@Container_Helpers@Glib@@@Container_Helpers@Glib@@QEAA@XZ
    ??$_Construct@V?$ListIterator@U?$TypeTraits@PEAVCellRenderer@Gtk@@@Container_Helpers@Glib@@@Container_Helpers@Glib@@@?$vector@PEAVCellRenderer@Gtk@@V?$allocator@PEAVCellRenderer@Gtk@@@std@@@std@@QEAAXV?$ListIterator@U?$TypeTraits@PEAVCellRenderer@Gtk@@@Container_Helpers@Glib@@@Container_Helpers@Glib@@0Uforward_iterator_tag@1@@Z
    ??$_Construct@V?$ListIterator@U?$TypeTraits@PEBVCellRenderer@Gtk@@@Container_Helpers@Glib@@@Container_Helpers@Glib@@@?$vector@PEBVCellRenderer@Gtk@@V?$allocator@PEBVCellRenderer@Gtk@@@std@@@std@@QEAAXV?$ListIterator@U?$TypeTraits@PEBVCellRenderer@Gtk@@@Container_Helpers@Glib@@@Container_Helpers@Glib@@0Uforward_iterator_tag@1@@Z
    ??$_Uninit_copy@V?$ListIterator@U?$TypeTraits@PEAVCellRenderer@Gtk@@@Container_Helpers@Glib@@@Container_Helpers@Glib@@PEAPEAVCellRenderer@Gtk@@V?$allocator@PEAVCellRenderer@Gtk@@@std@@@std@@YAPEAPEAVCellRenderer@Gtk@@V?$ListIterator@U?$TypeTraits@PEAVCellRenderer@Gtk@@@Container_Helpers@Glib@@@Container_Helpers@Glib@@0PEAPEAV12@AEAU?$_Wrap_alloc@V?$allocator@PEAVCellRenderer@Gtk@@@std@@@0@U_Nonscalar_ptr_iterator_tag@0@@Z
    ??$_Uninit_copy@V?$ListIterator@U?$TypeTraits@PEBVCellRenderer@Gtk@@@Container_Helpers@Glib@@@Container_Helpers@Glib@@PEAPEBVCellRenderer@Gtk@@V?$allocator@PEBVCellRenderer@Gtk@@@std@@@std@@YAPEAPEBVCellRenderer@Gtk@@V?$ListIterator@U?$TypeTraits@PEBVCellRenderer@Gtk@@@Container_Helpers@Glib@@@Container_Helpers@Glib@@0PEAPEBV12@AEAU?$_Wrap_alloc@V?$allocator@PEBVCellRenderer@Gtk@@@std@@@0@U_Nonscalar_ptr_iterator_tag@0@@Z
    ??_7CellArea@Gtk@@6BCellLayout@1@@
    ??_7CellArea@Gtk@@6B@
    ??_8CellArea@Gtk@@7BObject@Glib@@@
    ??_8CellArea@Gtk@@7BInterface@Glib@@Buildable@1@@
    ??_8CellArea@Gtk@@7BInterface@Glib@@CellLayout@1@@
    ??_8CellArea@Gtk@@7BObjectBase@Glib@@@
    ??_R0?AVObjectBase@Glib@@@8
    ??_R0?AVCellArea@Gtk@@@8
    ??_R0?AVCellEditable@Gtk@@@8
    ??_C@_0L@LBPGKPBN@focus?9cell?$AA@
    ??_C@_0M@FCEELGND@edited?9cell?$AA@
    ??_C@_0M@PPCABGOP@edit?9widget?$AA@
    ??_C@_0BD@OLBABOEK@vector?$DMT?$DO?5too?5long?$AA@
    ??_R0?AVCellRenderer@Gtk@@@8
    ??_R4CellArea@Gtk@@6BCellLayout@1@@
    ??_R3CellArea@Gtk@@8
    ??_R2CellArea@Gtk@@8
    ??_R1A@?0A@EA@CellArea@Gtk@@8
    ??_R1BA@?0A@EA@Object@Glib@@8
    ??_R0?AVObject@Glib@@@8
    ??_R3Object@Glib@@8
    ??_R2Object@Glib@@8
    ??_R1A@?0A@EA@Object@Glib@@8
    ??_R1A@A@7FA@ObjectBase@Glib@@8
    ??_R3ObjectBase@Glib@@8
    ??_R2ObjectBase@Glib@@8
    ??_R1A@?0A@EA@ObjectBase@Glib@@8
    ??_R1A@73FA@trackable@sigc@@8
    ??_R0?AUtrackable@sigc@@@8
    ??_R3trackable@sigc@@8
    ??_R2trackable@sigc@@8
    ??_R1A@?0A@EA@trackable@sigc@@8
    ??_R1A@A@3FA@trackable@sigc@@8
    ??_R1A@BA@7FA@ObjectBase@Glib@@8
    ??_R1A@BA@3FA@trackable@sigc@@8
    ??_R1BI@?0A@EA@Buildable@Gtk@@8
    ??_R0?AVBuildable@Gtk@@@8
    ??_R3Buildable@Gtk@@8
    ??_R2Buildable@Gtk@@8
    ??_R1A@?0A@EA@Buildable@Gtk@@8
    ??_R1A@?0A@EA@Interface@Glib@@8
    ??_R0?AVInterface@Glib@@@8
    ??_R3Interface@Glib@@8
    ??_R2Interface@Glib@@8
    ??_R1BI@?0A@EC@Interface@Glib@@8
    ??_R1A@?0A@EA@CellLayout@Gtk@@8
    ??_R0?AVCellLayout@Gtk@@@8
    ??_R3CellLayout@Gtk@@8
    ??_R2CellLayout@Gtk@@8
    ??_R17?0A@EA@Interface@Glib@@8
    ??_R1A@77FA@ObjectBase@Glib@@8
    ??_R17?0A@EC@Interface@Glib@@8
    ??_R4CellArea@Gtk@@6B@
    ?cellareabox_class_@CellAreaBox@Gtk@@0VCellAreaBox_Class@2@A
    ?__empty_global_delete@@YAXPEAX@Z
    ?__empty_global_delete@@YAXPEAX_K@Z
    ??0CellAreaBox@Gtk@@IEAA@AEBVConstructParams@Glib@@@Z
    ??0CellAreaBox@Gtk@@IEAA@PEAU_GtkCellAreaBox@@@Z
    ??1CellAreaBox@Gtk@@UEAA@XZ
    ?get_type@CellAreaBox@Gtk@@SA_KXZ
    ?get_base_type@CellAreaBox@Gtk@@SA_KXZ
    ?gobj_copy@CellAreaBox@Gtk@@QEAAPEAU_GtkCellAreaBox@@XZ
    ??0CellAreaBox@Gtk@@IEAA@XZ
    ?create@CellAreaBox@Gtk@@SA?AV?$RefPtr@VCellAreaBox@Gtk@@@Glib@@XZ
    ?pack_start@CellAreaBox@Gtk@@QEAAXAEAVCellRenderer@2@_N11@Z
    ?pack_end@CellAreaBox@Gtk@@QEAAXAEAVCellRenderer@2@_N11@Z
    ?get_spacing@CellAreaBox@Gtk@@QEBAHXZ
    ?set_spacing@CellAreaBox@Gtk@@QEAAXH@Z
    ?property_spacing@CellAreaBox@Gtk@@QEAA?AV?$PropertyProxy@H@Glib@@XZ
    ?property_spacing@CellAreaBox@Gtk@@QEBA?AV?$PropertyProxy_ReadOnly@H@Glib@@XZ
    ?wrap@Glib@@YA?AV?$RefPtr@VCellAreaBox@Gtk@@@1@PEAU_GtkCellAreaBox@@_N@Z
    ?init@CellAreaBox_Class@Gtk@@QEAAAEBVClass@Glib@@XZ
    ?class_init_function@CellAreaBox_Class@Gtk@@SAXPEAX0@Z
    ?wrap_new@CellAreaBox_Class@Gtk@@SAPEAVObjectBase@Glib@@PEAU_GObject@@@Z
    ??_7CellAreaBox@Gtk@@6BCellLayout@1@@
    ??_7CellAreaBox@Gtk@@6B@
    ??_8CellAreaBox@Gtk@@7BObject@Glib@@@
    ??_8CellAreaBox@Gtk@@7BInterface@Glib@@Buildable@1@@
    ??_8CellAreaBox@Gtk@@7BInterface@Glib@@CellLayout@1@@
    ??_8CellAreaBox@Gtk@@7BInterface@Glib@@@
    ??_8CellAreaBox@Gtk@@7BObjectBase@Glib@@@
    ??_R0?AVObjectBase@Glib@@@8
    ??_R0?AVCellAreaBox@Gtk@@@8
    ??_C@_07GHILBEGP@spacing?$AA@
    ??_R4CellAreaBox@Gtk@@6BCellLayout@1@@
    ??_R3CellAreaBox@Gtk@@8
    ??_R2CellAreaBox@Gtk@@8
    ??_R1A@?0A@EA@CellAreaBox@Gtk@@8
    ??_R1A@?0A@EA@CellArea@Gtk@@8
    ??_R0?AVCellArea@Gtk@@@8
    ??_R3CellArea@Gtk@@8
    ??_R2CellArea@Gtk@@8
    ??_R1BA@?0A@EA@Object@Glib@@8
    ??_R0?AVObject@Glib@@@8
    ??_R3Object@Glib@@8
    ??_R2Object@Glib@@8
    ??_R1A@?0A@EA@Object@Glib@@8
    ??_R1A@A@7FA@ObjectBase@Glib@@8
    ??_R3ObjectBase@Glib@@8
    ??_R2ObjectBase@Glib@@8
    ??_R1A@?0A@EA@ObjectBase@Glib@@8
    ??_R1A@73FA@trackable@sigc@@8
    ??_R0?AUtrackable@sigc@@@8
    ??_R3trackable@sigc@@8
    ??_R2trackable@sigc@@8
    ??_R1A@?0A@EA@trackable@sigc@@8
    ??_R1A@A@3FA@trackable@sigc@@8
    ??_R1A@BA@7FA@ObjectBase@Glib@@8
    ??_R1A@BA@3FA@trackable@sigc@@8
    ??_R1BI@?0A@EA@Buildable@Gtk@@8
    ??_R0?AVBuildable@Gtk@@@8
    ??_R3Buildable@Gtk@@8
    ??_R2Buildable@Gtk@@8
    ??_R1A@?0A@EA@Buildable@Gtk@@8
    ??_R1A@?0A@EA@Interface@Glib@@8
    ??_R0?AVInterface@Glib@@@8
    ??_R3Interface@Glib@@8
    ??_R2Interface@Glib@@8
    ??_R1BI@?0A@EC@Interface@Glib@@8
    ??_R1A@?0A@EA@CellLayout@Gtk@@8
    ??_R0?AVCellLayout@Gtk@@@8
    ??_R3CellLayout@Gtk@@8
    ??_R2CellLayout@Gtk@@8
    ??_R17?0A@EA@Interface@Glib@@8
    ??_R1A@77FA@ObjectBase@Glib@@8
    ??_R17?0A@EC@Interface@Glib@@8
    ??_R1CA@?0A@EA@Orientable@Gtk@@8
    ??_R0?AVOrientable@Gtk@@@8
    ??_R3Orientable@Gtk@@8
    ??_R2Orientable@Gtk@@8
    ??_R1A@?0A@EA@Orientable@Gtk@@8
    ??_R1CA@?0A@EC@Interface@Glib@@8
    ??_R4CellAreaBox@Gtk@@6B@
    ?cellareacontext_class_@CellAreaContext@Gtk@@0VCellAreaContext_Class@2@A
    ?__empty_global_delete@@YAXPEAX@Z
    ?__empty_global_delete@@YAXPEAX_K@Z
    ??0CellAreaContext@Gtk@@IEAA@AEBVConstructParams@Glib@@@Z
    ??0CellAreaContext@Gtk@@IEAA@PEAU_GtkCellAreaContext@@@Z
    ??1CellAreaContext@Gtk@@UEAA@XZ
    ?get_type@CellAreaContext@Gtk@@SA_KXZ
    ?get_base_type@CellAreaContext@Gtk@@SA_KXZ
    ?gobj_copy@CellAreaContext@Gtk@@QEAAPEAU_GtkCellAreaContext@@XZ
    ?get_area@CellAreaContext@Gtk@@QEAA?AV?$RefPtr@VCellArea@Gtk@@@Glib@@XZ
    ?get_area@CellAreaContext@Gtk@@QEBA?AV?$RefPtr@$$CBVCellArea@Gtk@@@Glib@@XZ
    ?allocate@CellAreaContext@Gtk@@QEAAXHH@Z
    ?reset@CellAreaContext@Gtk@@QEAAXXZ
    ?get_preferred_width@CellAreaContext@Gtk@@QEBAXAEAH0@Z
    ?get_preferred_height@CellAreaContext@Gtk@@QEBAXAEAH0@Z
    ?get_preferred_height_for_width@CellAreaContext@Gtk@@QEBAXHAEAH0@Z
    ?get_preferred_width_for_height@CellAreaContext@Gtk@@QEBAXHAEAH0@Z
    ?get_allocation@CellAreaContext@Gtk@@QEBAXAEAH0@Z
    ?push_preferred_width@CellAreaContext@Gtk@@QEAAXHH@Z
    ?push_preferred_height@CellAreaContext@Gtk@@QEAAXHH@Z
    ?property_area@CellAreaContext@Gtk@@QEBA?AV?$PropertyProxy_ReadOnly@PEAVCellArea@Gtk@@@Glib@@XZ
    ?property_minimum_width@CellAreaContext@Gtk@@QEBA?AV?$PropertyProxy_ReadOnly@H@Glib@@XZ
    ?property_natural_width@CellAreaContext@Gtk@@QEBA?AV?$PropertyProxy_ReadOnly@H@Glib@@XZ
    ?property_minimum_height@CellAreaContext@Gtk@@QEBA?AV?$PropertyProxy_ReadOnly@H@Glib@@XZ
    ?property_natural_height@CellAreaContext@Gtk@@QEBA?AV?$PropertyProxy_ReadOnly@H@Glib@@XZ
    ?wrap@Glib@@YA?AV?$RefPtr@VCellAreaContext@Gtk@@@1@PEAU_GtkCellAreaContext@@_N@Z
    ?init@CellAreaContext_Class@Gtk@@QEAAAEBVClass@Glib@@XZ
    ?class_init_function@CellAreaContext_Class@Gtk@@SAXPEAX0@Z
    ?wrap_new@CellAreaContext_Class@Gtk@@SAPEAVObjectBase@Glib@@PEAU_GObject@@@Z
    ??1?$RefPtr@VCellArea@Gtk@@@Glib@@QEAA@XZ
    ??1?$RefPtr@$$CBVCellArea@Gtk@@@Glib@@QEAA@XZ
    ??_7CellAreaContext@Gtk@@6B@
    ??_8CellAreaContext@Gtk@@7BObject@Glib@@@
    ??_8CellAreaContext@Gtk@@7BObjectBase@Glib@@@
    ??_R0?AVObjectBase@Glib@@@8
    ??_R0?AVCellAreaContext@Gtk@@@8
    ??_C@_04GOEDGNCF@area?$AA@
    ??_C@_0O@MFMLDDAJ@minimum?9width?$AA@
    ??_C@_0O@EKEJFPKI@natural?9width?$AA@
    ??_C@_0P@GOCCNPPJ@minimum?9height?$AA@
    ??_C@_0P@MPHMMOOL@natural?9height?$AA@
    ??_R4CellAreaContext@Gtk@@6B@
    ??_R3CellAreaContext@Gtk@@8
    ??_R2CellAreaContext@Gtk@@8
    ??_R1A@?0A@EA@CellAreaContext@Gtk@@8
    ??_R1A@?0A@EA@Object@Glib@@8
    ??_R0?AVObject@Glib@@@8
    ??_R3Object@Glib@@8
    ??_R2Object@Glib@@8
    ??_R1A@A@7FA@ObjectBase@Glib@@8
    ??_R3ObjectBase@Glib@@8
    ??_R2ObjectBase@Glib@@8
    ??_R1A@?0A@EA@ObjectBase@Glib@@8
    ??_R1A@73FA@trackable@sigc@@8
    ??_R0?AUtrackable@sigc@@@8
    ??_R3trackable@sigc@@8
    ??_R2trackable@sigc@@8
    ??_R1A@?0A@EA@trackable@sigc@@8
    ??_R1A@A@3FA@trackable@sigc@@8
    ??_C@_0N@MPGEAIDH@editing_done?$AA@
    ??_C@_0O@OLNFFMOC@remove_widget?$AA@
    ?celleditable_class_@CellEditable@Gtk@@0VCellEditable_Class@2@A
    ?__empty_global_delete@@YAXPEAX@Z
    ?__empty_global_delete@@YAXPEAX_K@Z
    ??0CellEditable@Gtk@@IEAA@XZ
    ??0CellEditable@Gtk@@IEAA@AEBVInterface_Class@Glib@@@Z
    ??0CellEditable@Gtk@@QEAA@PEAU_GtkCellEditable@@@Z
    ??1CellEditable@Gtk@@UEAA@XZ
    ?add_interface@CellEditable@Gtk@@SAX_K@Z
    ?get_type@CellEditable@Gtk@@SA_KXZ
    ?get_base_type@CellEditable@Gtk@@SA_KXZ
    ?start_editing@CellEditable@Gtk@@QEAAXPEAT_GdkEvent@@@Z
    ?editing_done@CellEditable@Gtk@@QEAAXXZ
    ?remove_widget@CellEditable@Gtk@@QEAAXXZ
    ?signal_editing_done@CellEditable@Gtk@@QEAA?AV?$SignalProxy0@X@Glib@@XZ
    ?signal_remove_widget@CellEditable@Gtk@@QEAA?AV?$SignalProxy0@X@Glib@@XZ
    ?property_editing_canceled@CellEditable@Gtk@@QEAA?AV?$PropertyProxy@_N@Glib@@XZ
    ?property_editing_canceled@CellEditable@Gtk@@QEBA?AV?$PropertyProxy_ReadOnly@_N@Glib@@XZ
    ?start_editing_vfunc@CellEditable@Gtk@@MEAAXPEAT_GdkEvent@@@Z
    ?on_editing_done@CellEditable@Gtk@@MEAAXXZ
    ?on_remove_widget@CellEditable@Gtk@@MEAAXXZ
    ?wrap@Glib@@YA?AV?$RefPtr@VCellEditable@Gtk@@@1@PEAU_GtkCellEditable@@_N@Z
    ?init@CellEditable_Class@Gtk@@QEAAAEBVInterface_Class@Glib@@XZ
    ?iface_init_function@CellEditable_Class@Gtk@@SAXPEAX0@Z
    ?wrap_new@CellEditable_Class@Gtk@@SAPEAVObjectBase@Glib@@PEAU_GObject@@@Z
    ?editing_done_callback@CellEditable_Class@Gtk@@KAXPEAU_GtkCellEditable@@@Z
    ?remove_widget_callback@CellEditable_Class@Gtk@@KAXPEAU_GtkCellEditable@@@Z
    ?start_editing_vfunc_callback@CellEditable_Class@Gtk@@KAXPEAU_GtkCellEditable@@PEAT_GdkEvent@@@Z
    ??$wrap_auto_interface@VCellEditable@Gtk@@@Glib@@YAPEAVCellEditable@Gtk@@PEAU_GObject@@_N@Z
    ??_7CellEditable@Gtk@@6B01@@
    ??_7CellEditable@Gtk@@6BInterface@Glib@@@
    ??_8CellEditable@Gtk@@7BInterface@Glib@@@
    ??_8CellEditable@Gtk@@7BObjectBase@Glib@@@
    ??_C@_0L@IGFGCBFO@klass?5?$CB?$DN?50?$AA@
    ??_C@_0CN@NIDAMLF@Gtk?3?3CellEditable_Class?3?3iface_i@
    ??_C@_0BN@GPNNJDBD@?4?4?2gtk?2gtkmm?2celleditable?4cc?$AA@
    ??_R0?AVObjectBase@Glib@@@8
    ??_R0?AVCellEditable@Gtk@@@8
    ??_C@_0BB@FDAEDOIP@editing?9canceled?$AA@
    ??_C@_0FM@MEPOJGMK@Glib?3?3wrap_auto_interface?$CI?$CJ?3?5The@
    ??_R4CellEditable@Gtk@@6B01@@
    ??_R3CellEditable@Gtk@@8
    ??_R2CellEditable@Gtk@@8
    ??_R1A@?0A@EA@CellEditable@Gtk@@8
    ??_R17?0A@EA@Interface@Glib@@8
    ??_R0?AVInterface@Glib@@@8
    ??_R3Interface@Glib@@8
    ??_R2Interface@Glib@@8
    ??_R1A@?0A@EA@Interface@Glib@@8
    ??_R1A@A@7FA@ObjectBase@Glib@@8
    ??_R3ObjectBase@Glib@@8
    ??_R2ObjectBase@Glib@@8
    ??_R1A@?0A@EA@ObjectBase@Glib@@8
    ??_R1A@73FA@trackable@sigc@@8
    ??_R0?AUtrackable@sigc@@@8
    ??_R3trackable@sigc@@8
    ??_R2trackable@sigc@@8
    ??_R1A@?0A@EA@trackable@sigc@@8
    ??_R1A@A@3FA@trackable@sigc@@8
    ??_R1A@77FA@ObjectBase@Glib@@8
    ??_R4CellEditable@Gtk@@6BInterface@Glib@@@
    ?celllayout_class_@CellLayout@Gtk@@0VCellLayout_Class@2@A
    ?__empty_global_delete@@YAXPEAX@Z
    ?__empty_global_delete@@YAXPEAX_K@Z
    ?convert_const_gchar_ptr_to_ustring@Glib@@YA?AVustring@1@PEBD@Z
    ??0CellLayout@Gtk@@IEAA@XZ
    ??0CellLayout@Gtk@@IEAA@AEBVInterface_Class@Glib@@@Z
    ??0CellLayout@Gtk@@QEAA@PEAU_GtkCellLayout@@@Z
    ??1CellLayout@Gtk@@UEAA@XZ
    ?add_interface@CellLayout@Gtk@@SAX_K@Z
    ?get_type@CellLayout@Gtk@@SA_KXZ
    ?get_base_type@CellLayout@Gtk@@SA_KXZ
    ?pack_start@CellLayout@Gtk@@QEAAXAEAVCellRenderer@2@_N@Z
    ?pack_end@CellLayout@Gtk@@QEAAXAEAVCellRenderer@2@_N@Z
    ?get_cells@CellLayout@Gtk@@QEAA?AV?$vector@PEAVCellRenderer@Gtk@@V?$allocator@PEAVCellRenderer@Gtk@@@std@@@std@@XZ
    ?get_cells@CellLayout@Gtk@@QEBA?AV?$vector@PEBVCellRenderer@Gtk@@V?$allocator@PEBVCellRenderer@Gtk@@@std@@@std@@XZ
    ?get_first_cell@CellLayout@Gtk@@QEAAPEAVCellRenderer@2@XZ
    ?get_first_cell@CellLayout@Gtk@@QEBAPEBVCellRenderer@2@XZ
    ?clear@CellLayout@Gtk@@QEAAXXZ
    ?add_attribute@CellLayout@Gtk@@QEAAXAEAVCellRenderer@2@AEBVustring@Glib@@H@Z
    ?add_attribute@CellLayout@Gtk@@QEAAXAEBVPropertyProxy_Base@Glib@@AEBVTreeModelColumnBase@2@@Z
    ?add_attribute@CellLayout@Gtk@@QEAAXAEAVCellRenderer@2@AEBVustring@Glib@@AEBVTreeModelColumnBase@2@@Z
    ?set_cell_data_func@CellLayout@Gtk@@QEAAXAEAVCellRenderer@2@AEBV?$slot@XAEBVTreeIter@Gtk@@Unil@sigc@@U34@U34@U34@U34@U34@@sigc@@@Z
    ?clear_attributes@CellLayout@Gtk@@QEAAXAEAVCellRenderer@2@@Z
    ?reorder@CellLayout@Gtk@@QEAAXAEAVCellRenderer@2@H@Z
    ?get_area@CellLayout@Gtk@@QEAA?AV?$RefPtr@VCellArea@Gtk@@@Glib@@XZ
    ?get_area@CellLayout@Gtk@@QEBA?AV?$RefPtr@$$CBVCellArea@Gtk@@@Glib@@XZ
    ?pack_start_vfunc@CellLayout@Gtk@@MEAAXPEAVCellRenderer@2@_N@Z
    ?pack_end_vfunc@CellLayout@Gtk@@MEAAXPEAVCellRenderer@2@_N@Z
    ?clear_vfunc@CellLayout@Gtk@@MEAAXXZ
    ?add_attribute_vfunc@CellLayout@Gtk@@MEAAXPEAVCellRenderer@2@AEBVustring@Glib@@H@Z
    ?clear_attributes_vfunc@CellLayout@Gtk@@MEAAXPEAVCellRenderer@2@@Z
    ?reorder_vfunc@CellLayout@Gtk@@MEAAXPEAVCellRenderer@2@H@Z
    ?wrap@Glib@@YA?AV?$RefPtr@VCellLayout@Gtk@@@1@PEAU_GtkCellLayout@@_N@Z
    ?init@CellLayout_Class@Gtk@@QEAAAEBVInterface_Class@Glib@@XZ
    ?iface_init_function@CellLayout_Class@Gtk@@SAXPEAX0@Z
    ?wrap_new@CellLayout_Class@Gtk@@SAPEAVObjectBase@Glib@@PEAU_GObject@@@Z
    ?pack_start_vfunc_callback@CellLayout_Class@Gtk@@KAXPEAU_GtkCellLayout@@PEAU_GtkCellRenderer@@H@Z
    ?pack_end_vfunc_callback@CellLayout_Class@Gtk@@KAXPEAU_GtkCellLayout@@PEAU_GtkCellRenderer@@H@Z
    ?clear_vfunc_callback@CellLayout_Class@Gtk@@KAXPEAU_GtkCellLayout@@@Z
    ?add_attribute_vfunc_callback@CellLayout_Class@Gtk@@KAXPEAU_GtkCellLayout@@PEAU_GtkCellRenderer@@PEBDH@Z
    ?clear_attributes_vfunc_callback@CellLayout_Class@Gtk@@KAXPEAU_GtkCellLayout@@PEAU_GtkCellRenderer@@@Z
    ?reorder_vfunc_callback@CellLayout_Class@Gtk@@KAXPEAU_GtkCellLayout@@PEAU_GtkCellRenderer@@H@Z
    ?allocate@?$allocator@PEAVCellRenderer@Gtk@@@std@@QEAAPEAPEAVCellRenderer@Gtk@@_K@Z
    ??$wrap_auto_interface@VCellLayout@Gtk@@@Glib@@YAPEAVCellLayout@Gtk@@PEAU_GObject@@_N@Z
    ?list_to_vector@?$ListHandler@PEAVCellRenderer@Gtk@@U?$TypeTraits@PEAVCellRenderer@Gtk@@@Container_Helpers@Glib@@@Glib@@SA?AV?$vector@PEAVCellRenderer@Gtk@@V?$allocator@PEAVCellRenderer@Gtk@@@std@@@std@@PEAU_GList@@W4OwnershipType@2@@Z
    ?allocate@?$allocator@PEBVCellRenderer@Gtk@@@std@@QEAAPEAPEBVCellRenderer@Gtk@@_K@Z
    ?list_to_vector@?$ListHandler@PEBVCellRenderer@Gtk@@U?$TypeTraits@PEBVCellRenderer@Gtk@@@Container_Helpers@Glib@@@Glib@@SA?AV?$vector@PEBVCellRenderer@Gtk@@V?$allocator@PEBVCellRenderer@Gtk@@@std@@@std@@PEAU_GList@@W4OwnershipType@2@@Z
    ??1?$RefPtr@VCellArea@Gtk@@@Glib@@QEAA@XZ
    ??1?$RefPtr@$$CBVCellArea@Gtk@@@Glib@@QEAA@XZ
    ??$_Deallocate@PEBVCellRenderer@Gtk@@@std@@YAXPEAPEBVCellRenderer@Gtk@@_K@Z
    ??$_Deallocate@PEAVCellRenderer@Gtk@@@std@@YAXPEAPEAVCellRenderer@Gtk@@_K@Z
    ??1?$GListKeeper@U?$TypeTraits@PEAVCellRenderer@Gtk@@@Container_Helpers@Glib@@@Container_Helpers@Glib@@QEAA@XZ
    ??1?$GListKeeper@U?$TypeTraits@PEBVCellRenderer@Gtk@@@Container_Helpers@Glib@@@Container_Helpers@Glib@@QEAA@XZ
    ??$_Construct@V?$ListIterator@U?$TypeTraits@PEAVCellRenderer@Gtk@@@Container_Helpers@Glib@@@Container_Helpers@Glib@@@?$vector@PEAVCellRenderer@Gtk@@V?$allocator@PEAVCellRenderer@Gtk@@@std@@@std@@QEAAXV?$ListIterator@U?$TypeTraits@PEAVCellRenderer@Gtk@@@Container_Helpers@Glib@@@Container_Helpers@Glib@@0Uforward_iterator_tag@1@@Z
    ??$_Construct@V?$ListIterator@U?$TypeTraits@PEBVCellRenderer@Gtk@@@Container_Helpers@Glib@@@Container_Helpers@Glib@@@?$vector@PEBVCellRenderer@Gtk@@V?$allocator@PEBVCellRenderer@Gtk@@@std@@@std@@QEAAXV?$ListIterator@U?$TypeTraits@PEBVCellRenderer@Gtk@@@Container_Helpers@Glib@@@Container_Helpers@Glib@@0Uforward_iterator_tag@1@@Z
    ??$_Uninit_copy@V?$ListIterator@U?$TypeTraits@PEAVCellRenderer@Gtk@@@Container_Helpers@Glib@@@Container_Helpers@Glib@@PEAPEAVCellRenderer@Gtk@@V?$allocator@PEAVCellRenderer@Gtk@@@std@@@std@@YAPEAPEAVCellRenderer@Gtk@@V?$ListIterator@U?$TypeTraits@PEAVCellRenderer@Gtk@@@Container_Helpers@Glib@@@Container_Helpers@Glib@@0PEAPEAV12@AEAU?$_Wrap_alloc@V?$allocator@PEAVCellRenderer@Gtk@@@std@@@0@U_Nonscalar_ptr_iterator_tag@0@@Z
    ??$_Uninit_copy@V?$ListIterator@U?$TypeTraits@PEBVCellRenderer@Gtk@@@Container_Helpers@Glib@@@Container_Helpers@Glib@@PEAPEBVCellRenderer@Gtk@@V?$allocator@PEBVCellRenderer@Gtk@@@std@@@std@@YAPEAPEBVCellRenderer@Gtk@@V?$ListIterator@U?$TypeTraits@PEBVCellRenderer@Gtk@@@Container_Helpers@Glib@@@Container_Helpers@Glib@@0PEAPEBV12@AEAU?$_Wrap_alloc@V?$allocator@PEBVCellRenderer@Gtk@@@std@@@0@U_Nonscalar_ptr_iterator_tag@0@@Z
    ??_7CellLayout@Gtk@@6B01@@
    ??_7CellLayout@Gtk@@6BInterface@Glib@@@
    ??_8CellLayout@Gtk@@7BInterface@Glib@@@
    ??_8CellLayout@Gtk@@7BObjectBase@Glib@@@
    ??_C@_0L@IGFGCBFO@klass?5?$CB?$DN?50?$AA@
    ??_C@_0CL@LFLBHDIE@Gtk?3?3CellLayout_Class?3?3iface_ini@
    ??_C@_0BL@EFONGFON@?4?4?2gtk?2gtkmm?2celllayout?4cc?$AA@
    ??_R0?AVObjectBase@Glib@@@8
    ??_R0?AVCellLayout@Gtk@@@8
    ??_C@_0FM@MEPOJGMK@Glib?3?3wrap_auto_interface?$CI?$CJ?3?5The@
    ??_C@_0BD@OLBABOEK@vector?$DMT?$DO?5too?5long?$AA@
    ??_R0?AVCellRenderer@Gtk@@@8
    ??_R4CellLayout@Gtk@@6B01@@
    ??_R3CellLayout@Gtk@@8
    ??_R2CellLayout@Gtk@@8
    ??_R1A@?0A@EA@CellLayout@Gtk@@8
    ??_R17?0A@EA@Interface@Glib@@8
    ??_R0?AVInterface@Glib@@@8
    ??_R3Interface@Glib@@8
    ??_R2Interface@Glib@@8
    ??_R1A@?0A@EA@Interface@Glib@@8
    ??_R1A@A@7FA@ObjectBase@Glib@@8
    ??_R3ObjectBase@Glib@@8
    ??_R2ObjectBase@Glib@@8
    ??_R1A@?0A@EA@ObjectBase@Glib@@8
    ??_R1A@73FA@trackable@sigc@@8
    ??_R0?AUtrackable@sigc@@@8
    ??_R3trackable@sigc@@8
    ??_R2trackable@sigc@@8
    ??_R1A@?0A@EA@trackable@sigc@@8
    ??_R1A@A@3FA@trackable@sigc@@8
    ??_R1A@77FA@ObjectBase@Glib@@8
    ??_R4CellLayout@Gtk@@6BInterface@Glib@@@
    ??_C@_0BB@KBLIGLCK@editing_canceled?$AA@
    ??_C@_0BA@DIMDEFHB@editing_started?$AA@
    ?cellrenderer_class_@CellRenderer@Gtk@@0VCellRenderer_Class@2@A
    ?__empty_global_delete@@YAXPEAX@Z
    ?__empty_global_delete@@YAXPEAX_K@Z
    ?convert_const_gchar_ptr_to_ustring@Glib@@YA?AVustring@1@PEBD@Z
    ?value_type@?$Value@W4CellRendererState@Gtk@@@Glib@@SA_KXZ
    ?value_type@?$Value@W4CellRendererMode@Gtk@@@Glib@@SA_KXZ
    ??1CellRenderer@Gtk@@UEAA@XZ
    ??0CellRenderer@Gtk@@IEAA@AEBVConstructParams@Glib@@@Z
    ??0CellRenderer@Gtk@@IEAA@PEAU_GtkCellRenderer@@@Z
    ?get_type@CellRenderer@Gtk@@SA_KXZ
    ?get_base_type@CellRenderer@Gtk@@SA_KXZ
    ?on_editing_canceled@CellRenderer@Gtk@@MEAAXXZ
    ?on_editing_started@CellRenderer@Gtk@@MEAAXPEAVCellEditable@2@AEBVustring@Glib@@@Z
    ?get_request_mode@CellRenderer@Gtk@@QEBA?AW4SizeRequestMode@2@XZ
    ?get_preferred_width@CellRenderer@Gtk@@QEBAXAEAVWidget@2@AEAH1@Z
    ?get_preferred_height_for_width@CellRenderer@Gtk@@QEBAXAEAVWidget@2@HAEAH1@Z
    ?get_preferred_height@CellRenderer@Gtk@@QEBAXAEAVWidget@2@AEAH1@Z
    ?get_preferred_width_for_height@CellRenderer@Gtk@@QEBAXAEAVWidget@2@HAEAH1@Z
    ?get_preferred_size@CellRenderer@Gtk@@QEBAXAEAVWidget@2@AEAU_GtkRequisition@@1@Z
    ?get_aligned_area@CellRenderer@Gtk@@QEAAXAEAVWidget@2@W4CellRendererState@2@AEBVRectangle@Gdk@@AEAV56@@Z
    ?render@CellRenderer@Gtk@@QEAAXAEBV?$RefPtr@VContext@Cairo@@@Cairo@@AEAVWidget@2@AEBVRectangle@Gdk@@2W4CellRendererState@2@@Z
    ?activate@CellRenderer@Gtk@@QEAA_NPEAT_GdkEvent@@AEAVWidget@2@AEBVustring@Glib@@AEBVRectangle@Gdk@@3W4CellRendererState@2@@Z
    ?start_editing@CellRenderer@Gtk@@QEAAPEAVCellEditable@2@PEAT_GdkEvent@@AEAVWidget@2@AEBVustring@Glib@@AEBVRectangle@Gdk@@3W4CellRendererState@2@@Z
    ?set_fixed_size@CellRenderer@Gtk@@QEAAXHH@Z
    ?get_fixed_size@CellRenderer@Gtk@@QEBAXAEAH0@Z
    ?set_alignment@CellRenderer@Gtk@@QEAAXMM@Z
    ?get_alignment@CellRenderer@Gtk@@QEBAXAEAM0@Z
    ?set_padding@CellRenderer@Gtk@@QEAAXHH@Z
    ?get_padding@CellRenderer@Gtk@@QEBAXAEAH0@Z
    ?set_visible@CellRenderer@Gtk@@QEAAX_N@Z
    ?get_visible@CellRenderer@Gtk@@QEBA_NXZ
    ?set_sensitive@CellRenderer@Gtk@@QEAAX_N@Z
    ?get_sensitive@CellRenderer@Gtk@@QEBA_NXZ
    ?is_activatable@CellRenderer@Gtk@@QEBA_NXZ
    ?stop_editing@CellRenderer@Gtk@@QEAAX_N@Z
    ?get_state@CellRenderer@Gtk@@QEBA?AW4StateFlags@2@AEAVWidget@2@W4CellRendererState@2@@Z
    ?_property_renderable@CellRenderer@Gtk@@UEAA?AVPropertyProxy_Base@Glib@@XZ
    ?signal_editing_canceled@CellRenderer@Gtk@@QEAA?AV?$SignalProxy0@X@Glib@@XZ
    ?signal_editing_started@CellRenderer@Gtk@@QEAA?AV?$SignalProxy2@XPEAVCellEditable@Gtk@@AEBVustring@Glib@@@Glib@@XZ
    ?property_mode@CellRenderer@Gtk@@QEAA?AV?$PropertyProxy@W4CellRendererMode@Gtk@@@Glib@@XZ
    ?property_mode@CellRenderer@Gtk@@QEBA?AV?$PropertyProxy_ReadOnly@W4CellRendererMode@Gtk@@@Glib@@XZ
    ?property_visible@CellRenderer@Gtk@@QEAA?AV?$PropertyProxy@_N@Glib@@XZ
    ?property_visible@CellRenderer@Gtk@@QEBA?AV?$PropertyProxy_ReadOnly@_N@Glib@@XZ
    ?property_sensitive@CellRenderer@Gtk@@QEAA?AV?$PropertyProxy@_N@Glib@@XZ
    ?property_sensitive@CellRenderer@Gtk@@QEBA?AV?$PropertyProxy_ReadOnly@_N@Glib@@XZ
    ?property_xalign@CellRenderer@Gtk@@QEAA?AV?$PropertyProxy@M@Glib@@XZ
    ?property_xalign@CellRenderer@Gtk@@QEBA?AV?$PropertyProxy_ReadOnly@M@Glib@@XZ
    ?property_yalign@CellRenderer@Gtk@@QEAA?AV?$PropertyProxy@M@Glib@@XZ
    ?property_yalign@CellRenderer@Gtk@@QEBA?AV?$PropertyProxy_ReadOnly@M@Glib@@XZ
    ?property_xpad@CellRenderer@Gtk@@QEAA?AV?$PropertyProxy@I@Glib@@XZ
    ?property_xpad@CellRenderer@Gtk@@QEBA?AV?$PropertyProxy_ReadOnly@I@Glib@@XZ
    ?property_ypad@CellRenderer@Gtk@@QEAA?AV?$PropertyProxy@I@Glib@@XZ
    ?property_ypad@CellRenderer@Gtk@@QEBA?AV?$PropertyProxy_ReadOnly@I@Glib@@XZ
    ?property_width@CellRenderer@Gtk@@QEAA?AV?$PropertyProxy@H@Glib@@XZ
    ?property_width@CellRenderer@Gtk@@QEBA?AV?$PropertyProxy_ReadOnly@H@Glib@@XZ
    ?property_height@CellRenderer@Gtk@@QEAA?AV?$PropertyProxy@H@Glib@@XZ
    ?property_height@CellRenderer@Gtk@@QEBA?AV?$PropertyProxy_ReadOnly@H@Glib@@XZ
    ?property_is_expander@CellRenderer@Gtk@@QEAA?AV?$PropertyProxy@_N@Glib@@XZ
    ?property_is_expander@CellRenderer@Gtk@@QEBA?AV?$PropertyProxy_ReadOnly@_N@Glib@@XZ
    ?property_is_expanded@CellRenderer@Gtk@@QEAA?AV?$PropertyProxy@_N@Glib@@XZ
    ?property_is_expanded@CellRenderer@Gtk@@QEBA?AV?$PropertyProxy_ReadOnly@_N@Glib@@XZ
    ?property_cell_background@CellRenderer@Gtk@@QEAA?AV?$PropertyProxy_WriteOnly@Vustring@Glib@@@Glib@@XZ
    ?property_cell_background_gdk@CellRenderer@Gtk@@QEAA?AV?$PropertyProxy@VColor@Gdk@@@Glib@@XZ
    ?property_cell_background_gdk@CellRenderer@Gtk@@QEBA?AV?$PropertyProxy_ReadOnly@VColor@Gdk@@@Glib@@XZ
    ?property_cell_background_rgba@CellRenderer@Gtk@@QEAA?AV?$PropertyProxy@VRGBA@Gdk@@@Glib@@XZ
    ?property_cell_background_rgba@CellRenderer@Gtk@@QEBA?AV?$PropertyProxy_ReadOnly@VRGBA@Gdk@@@Glib@@XZ
    ?property_cell_background_set@CellRenderer@Gtk@@QEAA?AV?$PropertyProxy@_N@Glib@@XZ
    ?property_cell_background_set@CellRenderer@Gtk@@QEBA?AV?$PropertyProxy_ReadOnly@_N@Glib@@XZ
    ?property_editing@CellRenderer@Gtk@@QEBA?AV?$PropertyProxy_ReadOnly@_N@Glib@@XZ
    ??0CellRenderer@Gtk@@IEAA@XZ
    ?get_request_mode_vfunc@CellRenderer@Gtk@@MEBA?AW4SizeRequestMode@2@XZ
    ?get_preferred_width_vfunc@CellRenderer@Gtk@@MEBAXAEAVWidget@2@AEAH1@Z
    ?get_preferred_height_for_width_vfunc@CellRenderer@Gtk@@MEBAXAEAVWidget@2@HAEAH1@Z
    ?get_preferred_height_vfunc@CellRenderer@Gtk@@MEBAXAEAVWidget@2@AEAH1@Z
    ?get_preferred_width_for_height_vfunc@CellRenderer@Gtk@@MEBAXAEAVWidget@2@HAEAH1@Z
    ?render_vfunc@CellRenderer@Gtk@@MEAAXAEBV?$RefPtr@VContext@Cairo@@@Cairo@@AEAVWidget@2@AEBVRectangle@Gdk@@2W4CellRendererState@2@@Z
    ?activate_vfunc@CellRenderer@Gtk@@MEAA_NPEAT_GdkEvent@@AEAVWidget@2@AEBVustring@Glib@@AEBVRectangle@Gdk@@3W4CellRendererState@2@@Z
    ?start_editing_vfunc@CellRenderer@Gtk@@MEAAPEAVCellEditable@2@PEAT_GdkEvent@@AEAVWidget@2@AEBVustring@Glib@@AEBVRectangle@Gdk@@3W4CellRendererState@2@@Z
    ??_DCellRenderer@Gtk@@QEAAXXZ
    ?wrap@Glib@@YAPEAVCellRenderer@Gtk@@PEAU_GtkCellRenderer@@_N@Z
    ?init@CellRenderer_Class@Gtk@@QEAAAEBVClass@Glib@@XZ
    ?class_init_function@CellRenderer_Class@Gtk@@SAXPEAX0@Z
    ?wrap_new@CellRenderer_Class@Gtk@@SAPEAVObjectBase@Glib@@PEAU_GObject@@@Z
    ?editing_canceled_callback@CellRenderer_Class@Gtk@@KAXPEAU_GtkCellRenderer@@@Z
    ?editing_started_callback@CellRenderer_Class@Gtk@@KAXPEAU_GtkCellRenderer@@PEAU_GtkCellEditable@@PEBD@Z
    ?get_request_mode_vfunc_callback@CellRenderer_Class@Gtk@@KA?AW4GtkSizeRequestMode@@PEAU_GtkCellRenderer@@@Z
    ?get_preferred_width_vfunc_callback@CellRenderer_Class@Gtk@@KAXPEAU_GtkCellRenderer@@PEAU_GtkWidget@@PEAH2@Z
    ?get_preferred_height_for_width_vfunc_callback@CellRenderer_Class@Gtk@@KAXPEAU_GtkCellRenderer@@PEAU_GtkWidget@@HPEAH2@Z
    ?get_preferred_height_vfunc_callback@CellRenderer_Class@Gtk@@KAXPEAU_GtkCellRenderer@@PEAU_GtkWidget@@PEAH2@Z
    ?get_preferred_width_for_height_vfunc_callback@CellRenderer_Class@Gtk@@KAXPEAU_GtkCellRenderer@@PEAU_GtkWidget@@HPEAH2@Z
    ?render_vfunc_callback@CellRenderer_Class@Gtk@@KAXPEAU_GtkCellRenderer@@PEAU_cairo@@PEAU_GtkWidget@@PEBU_cairo_rectangle_int@@3W4GtkCellRendererState@@@Z
    ?activate_vfunc_callback@CellRenderer_Class@Gtk@@KAHPEAU_GtkCellRenderer@@PEAT_GdkEvent@@PEAU_GtkWidget@@PEBDPEBU_cairo_rectangle_int@@4W4GtkCellRendererState@@@Z
    ?start_editing_vfunc_callback@CellRenderer_Class@Gtk@@KAPEAU_GtkCellEditable@@PEAU_GtkCellRenderer@@PEAT_GdkEvent@@PEAU_GtkWidget@@PEBDPEBU_cairo_rectangle_int@@4W4GtkCellRendererState@@@Z
    ??1?$RefPtr@VContext@Cairo@@@Cairo@@QEAA@XZ
    ??$manage@VCellRenderer@Gtk@@@Gtk@@YAPEAVCellRenderer@0@PEAV10@@Z
    ?destroy_notify_@Object@Gtk@@$2PPPPPPPM@A@EAAXXZ
    ?set_manage@Object@Gtk@@$4PPPPPPPM@A@EAAXXZ
    ??_7CellRenderer@Gtk@@6B01@@
    ??_7CellRenderer@Gtk@@6BObject@1@@
    ??_8CellRenderer@Gtk@@7BObject@Glib@@@
    ??_8CellRenderer@Gtk@@7BObjectBase@Glib@@@
    ??_C@_0CI@BLGGCAJP@Gtk?3?3CellRenderer?3?3_property_ren@
    ??_C@_0BN@IOJEJJMG@?4?4?2gtk?2gtkmm?2cellrenderer?4cc?$AA@
    ??_R0?AVObjectBase@Glib@@@8
    ??_R0?AVCellRenderer@Gtk@@@8
    ??_R0?AVCellEditable@Gtk@@@8
    ??_C@_04GMGOKAFF@mode?$AA@
    ??_C@_07DPDAEJMK@visible?$AA@
    ??_C@_09CCGPDONC@sensitive?$AA@
    ??_C@_06NCLGNLHL@xalign?$AA@
    ??_C@_06HEMBNAMP@yalign?$AA@
    ??_C@_04NDMEAMME@xpad?$AA@
    ??_C@_04OOKECFHE@ypad?$AA@
    ??_C@_05IGKADHGO@width?$AA@
    ??_C@_06LNLHEAAG@height?$AA@
    ??_C@_0M@GLGACKEG@is?9expander?$AA@
    ??_C@_0M@HHPIJPJB@is?9expanded?$AA@
    ??_C@_0BA@BENJLGCB@cell?9background?$AA@
    ??_C@_0BE@MFAKBFEN@cell?9background?9gdk?$AA@
    ??_C@_0BF@MBCKOBEN@cell?9background?9rgba?$AA@
    ??_C@_0BE@NGOJLBCM@cell?9background?9set?$AA@
    ??_C@_07HAFNFNOB@editing?$AA@
    ??_R4CellRenderer@Gtk@@6B01@@
    ??_R3CellRenderer@Gtk@@8
    ??_R2CellRenderer@Gtk@@8
    ??_R1A@?0A@EA@CellRenderer@Gtk@@8
    ??_R17?0A@EA@Object@Gtk@@8
    ??_R0?AVObject@Gtk@@@8
    ??_R3Object@Gtk@@8
    ??_R2Object@Gtk@@8
    ??_R1A@?0A@EA@Object@Gtk@@8
    ??_R1A@?0A@EA@Object@Glib@@8
    ??_R0?AVObject@Glib@@@8
    ??_R3Object@Glib@@8
    ??_R2Object@Glib@@8
    ??_R1A@A@7FA@ObjectBase@Glib@@8
    ??_R3ObjectBase@Glib@@8
    ??_R2ObjectBase@Glib@@8
    ??_R1A@?0A@EA@ObjectBase@Glib@@8
    ??_R1A@73FA@trackable@sigc@@8
    ??_R0?AUtrackable@sigc@@@8
    ??_R3trackable@sigc@@8
    ??_R2trackable@sigc@@8
    ??_R1A@?0A@EA@trackable@sigc@@8
    ??_R1A@A@3FA@trackable@sigc@@8
    ??_R17?0A@EA@Object@Glib@@8
    ??_R1A@77FA@ObjectBase@Glib@@8
    ??_R4CellRenderer@Gtk@@6BObject@1@@
    ?cellrendereraccel_class_@CellRendererAccel@Gtk@@0VCellRendererAccel_Class@2@A
    ??_C@_0N@MBJCADBI@accel_edited?$AA@
    ??_C@_0O@PEHCDOIO@accel_cleared?$AA@
    ?__empty_global_delete@@YAXPEAX@Z
    ?__empty_global_delete@@YAXPEAX_K@Z
    ?convert_const_gchar_ptr_to_ustring@Glib@@YA?AVustring@1@PEBD@Z
    ?value_type@?$Value@W4CellRendererAccelMode@Gtk@@@Glib@@SA_KXZ
    ??1CellRendererAccel@Gtk@@UEAA@XZ
    ??0CellRendererAccel@Gtk@@IEAA@AEBVConstructParams@Glib@@@Z
    ??0CellRendererAccel@Gtk@@IEAA@PEAU_GtkCellRendererAccel@@@Z
    ?get_type@CellRendererAccel@Gtk@@SA_KXZ
    ?get_base_type@CellRendererAccel@Gtk@@SA_KXZ
    ?on_accel_edited@CellRendererAccel@Gtk@@MEAAXAEBVustring@Glib@@IW4ModifierType@Gdk@@I@Z
    ?on_accel_cleared@CellRendererAccel@Gtk@@MEAAXAEBVustring@Glib@@@Z
    ??0CellRendererAccel@Gtk@@QEAA@XZ
    ?signal_accel_edited@CellRendererAccel@Gtk@@QEAA?AV?$SignalProxy4@XAEBVustring@Glib@@IW4ModifierType@Gdk@@I@Glib@@XZ
    ?signal_accel_cleared@CellRendererAccel@Gtk@@QEAA?AV?$SignalProxy1@XAEBVustring@Glib@@@Glib@@XZ
    ?property_accel_key@CellRendererAccel@Gtk@@QEAA?AV?$PropertyProxy@I@Glib@@XZ
    ?property_accel_key@CellRendererAccel@Gtk@@QEBA?AV?$PropertyProxy_ReadOnly@I@Glib@@XZ
    ?property_accel_mods@CellRendererAccel@Gtk@@QEAA?AV?$PropertyProxy@W4ModifierType@Gdk@@@Glib@@XZ
    ?property_accel_mods@CellRendererAccel@Gtk@@QEBA?AV?$PropertyProxy_ReadOnly@W4ModifierType@Gdk@@@Glib@@XZ
    ?property_keycode@CellRendererAccel@Gtk@@QEAA?AV?$PropertyProxy@I@Glib@@XZ
    ?property_keycode@CellRendererAccel@Gtk@@QEBA?AV?$PropertyProxy_ReadOnly@I@Glib@@XZ
    ?property_accel_mode@CellRendererAccel@Gtk@@QEAA?AV?$PropertyProxy@W4CellRendererAccelMode@Gtk@@@Glib@@XZ
    ?property_accel_mode@CellRendererAccel@Gtk@@QEBA?AV?$PropertyProxy_ReadOnly@W4CellRendererAccelMode@Gtk@@@Glib@@XZ
    ?_property_renderable@CellRendererAccel@Gtk@@UEAA?AVPropertyProxy_Base@Glib@@XZ
    ??_DCellRendererAccel@Gtk@@QEAAXXZ
    ?wrap@Glib@@YAPEAVCellRendererAccel@Gtk@@PEAU_GtkCellRendererAccel@@_N@Z
    ?init@CellRendererAccel_Class@Gtk@@QEAAAEBVClass@Glib@@XZ
    ?class_init_function@CellRendererAccel_Class@Gtk@@SAXPEAX0@Z
    ?wrap_new@CellRendererAccel_Class@Gtk@@SAPEAVObjectBase@Glib@@PEAU_GObject@@@Z
    ?accel_edited_callback@CellRendererAccel_Class@Gtk@@KAXPEAU_GtkCellRendererAccel@@PEBDIW4GdkModifierType@@I@Z
    ?accel_cleared_callback@CellRendererAccel_Class@Gtk@@KAXPEAU_GtkCellRendererAccel@@PEBD@Z
    ??$manage@VCellRendererAccel@Gtk@@@Gtk@@YAPEAVCellRendererAccel@0@PEAV10@@Z
    ?destroy_notify_@Object@Gtk@@$2PPPPPPPM@A@EAAXXZ
    ?set_manage@Object@Gtk@@$4PPPPPPPM@A@EAAXXZ
    ??_7CellRendererAccel@Gtk@@6BCellRenderer@1@@
    ??_7CellRendererAccel@Gtk@@6BObject@1@@
    ??_8CellRendererAccel@Gtk@@7BObject@Glib@@@
    ??_8CellRendererAccel@Gtk@@7BObjectBase@Glib@@@
    ??_R0?AVObjectBase@Glib@@@8
    ??_R0?AVCellRendererAccel@Gtk@@@8
    ??_C@_09NKPFBOFO@accel?9key?$AA@
    ??_C@_0L@HMBIIGDP@accel?9mods?$AA@
    ??_C@_07IHMLFOG@keycode?$AA@
    ??_C@_0L@GAIADDOI@accel?9mode?$AA@
    ??_R4CellRendererAccel@Gtk@@6BCellRenderer@1@@
    ??_R3CellRendererAccel@Gtk@@8
    ??_R2CellRendererAccel@Gtk@@8
    ??_R1A@?0A@EA@CellRendererAccel@Gtk@@8
    ??_R1A@?0A@EA@CellRendererText@Gtk@@8
    ??_R0?AVCellRendererText@Gtk@@@8
    ??_R3CellRendererText@Gtk@@8
    ??_R2CellRendererText@Gtk@@8
    ??_R1A@?0A@EA@CellRenderer@Gtk@@8
    ??_R0?AVCellRenderer@Gtk@@@8
    ??_R3CellRenderer@Gtk@@8
    ??_R2CellRenderer@Gtk@@8
    ??_R17?0A@EA@Object@Gtk@@8
    ??_R0?AVObject@Gtk@@@8
    ??_R3Object@Gtk@@8
    ??_R2Object@Gtk@@8
    ??_R1A@?0A@EA@Object@Gtk@@8
    ??_R1A@?0A@EA@Object@Glib@@8
    ??_R0?AVObject@Glib@@@8
    ??_R3Object@Glib@@8
    ??_R2Object@Glib@@8
    ??_R1A@A@7FA@ObjectBase@Glib@@8
    ??_R3ObjectBase@Glib@@8
    ??_R2ObjectBase@Glib@@8
    ??_R1A@?0A@EA@ObjectBase@Glib@@8
    ??_R1A@73FA@trackable@sigc@@8
    ??_R0?AUtrackable@sigc@@@8
    ??_R3trackable@sigc@@8
    ??_R2trackable@sigc@@8
    ??_R1A@?0A@EA@trackable@sigc@@8
    ??_R1A@A@3FA@trackable@sigc@@8
    ??_R17?0A@EA@Object@Glib@@8
    ??_R1A@77FA@ObjectBase@Glib@@8
    ??_R4CellRendererAccel@Gtk@@6BObject@1@@
    ?cellrenderercombo_class_@CellRendererCombo@Gtk@@0VCellRendererCombo_Class@2@A
    ??_C@_07HADGPIEN@changed?$AA@
    ?__empty_global_delete@@YAXPEAX@Z
    ?__empty_global_delete@@YAXPEAX_K@Z
    ?convert_const_gchar_ptr_to_ustring@Glib@@YA?AVustring@1@PEBD@Z
    ??1CellRendererCombo@Gtk@@UEAA@XZ
    ??0CellRendererCombo@Gtk@@IEAA@AEBVConstructParams@Glib@@@Z
    ??0CellRendererCombo@Gtk@@IEAA@PEAU_GtkCellRendererCombo@@@Z
    ?get_type@CellRendererCombo@Gtk@@SA_KXZ
    ?get_base_type@CellRendererCombo@Gtk@@SA_KXZ
    ??0CellRendererCombo@Gtk@@QEAA@XZ
    ?signal_changed@CellRendererCombo@Gtk@@QEAA?AV?$SignalProxy2@XAEBVustring@Glib@@AEBVTreeIter@Gtk@@@Glib@@XZ
    ?property_model@CellRendererCombo@Gtk@@QEAA?AV?$PropertyProxy@V?$RefPtr@VTreeModel@Gtk@@@Glib@@@Glib@@XZ
    ?property_model@CellRendererCombo@Gtk@@QEBA?AV?$PropertyProxy_ReadOnly@V?$RefPtr@VTreeModel@Gtk@@@Glib@@@Glib@@XZ
    ?property_text_column@CellRendererCombo@Gtk@@QEAA?AV?$PropertyProxy@H@Glib@@XZ
    ?property_text_column@CellRendererCombo@Gtk@@QEBA?AV?$PropertyProxy_ReadOnly@H@Glib@@XZ
    ?property_has_entry@CellRendererCombo@Gtk@@QEAA?AV?$PropertyProxy@_N@Glib@@XZ
    ?property_has_entry@CellRendererCombo@Gtk@@QEBA?AV?$PropertyProxy_ReadOnly@_N@Glib@@XZ
    ?_property_renderable@CellRendererCombo@Gtk@@UEAA?AVPropertyProxy_Base@Glib@@XZ
    ??_DCellRendererCombo@Gtk@@QEAAXXZ
    ?wrap@Glib@@YAPEAVCellRendererCombo@Gtk@@PEAU_GtkCellRendererCombo@@_N@Z
    ?init@CellRendererCombo_Class@Gtk@@QEAAAEBVClass@Glib@@XZ
    ?class_init_function@CellRendererCombo_Class@Gtk@@SAXPEAX0@Z
    ?wrap_new@CellRendererCombo_Class@Gtk@@SAPEAVObjectBase@Glib@@PEAU_GObject@@@Z
    ??$manage@VCellRendererCombo@Gtk@@@Gtk@@YAPEAVCellRendererCombo@0@PEAV10@@Z
    ?destroy_notify_@Object@Gtk@@$2PPPPPPPM@A@EAAXXZ
    ?set_manage@Object@Gtk@@$4PPPPPPPM@A@EAAXXZ
    ??_7CellRendererCombo@Gtk@@6BCellRenderer@1@@
    ??_7CellRendererCombo@Gtk@@6BObject@1@@
    ??_8CellRendererCombo@Gtk@@7BObject@Glib@@@
    ??_8CellRendererCombo@Gtk@@7BObjectBase@Glib@@@
    ??_C@_05NCCFOPHA@model?$AA@
    ??_R0?AVObjectBase@Glib@@@8
    ??_R0?AVCellRendererCombo@Gtk@@@8
    ??_C@_0M@FAOJKGBM@text?9column?$AA@
    ??_C@_09CKAGJGEK@has?9entry?$AA@
    ??_R4CellRendererCombo@Gtk@@6BCellRenderer@1@@
    ??_R3CellRendererCombo@Gtk@@8
    ??_R2CellRendererCombo@Gtk@@8
    ??_R1A@?0A@EA@CellRendererCombo@Gtk@@8
    ??_R1A@?0A@EA@CellRendererText@Gtk@@8
    ??_R0?AVCellRendererText@Gtk@@@8
    ??_R3CellRendererText@Gtk@@8
    ??_R2CellRendererText@Gtk@@8
    ??_R1A@?0A@EA@CellRenderer@Gtk@@8
    ??_R0?AVCellRenderer@Gtk@@@8
    ??_R3CellRenderer@Gtk@@8
    ??_R2CellRenderer@Gtk@@8
    ??_R17?0A@EA@Object@Gtk@@8
    ??_R0?AVObject@Gtk@@@8
    ??_R3Object@Gtk@@8
    ??_R2Object@Gtk@@8
    ??_R1A@?0A@EA@Object@Gtk@@8
    ??_R1A@?0A@EA@Object@Glib@@8
    ??_R0?AVObject@Glib@@@8
    ??_R3Object@Glib@@8
    ??_R2Object@Glib@@8
    ??_R1A@A@7FA@ObjectBase@Glib@@8
    ??_R3ObjectBase@Glib@@8
    ??_R2ObjectBase@Glib@@8
    ??_R1A@?0A@EA@ObjectBase@Glib@@8
    ??_R1A@73FA@trackable@sigc@@8
    ??_R0?AUtrackable@sigc@@@8
    ??_R3trackable@sigc@@8
    ??_R2trackable@sigc@@8
    ??_R1A@?0A@EA@trackable@sigc@@8
    ??_R1A@A@3FA@trackable@sigc@@8
    ??_R17?0A@EA@Object@Glib@@8
    ??_R1A@77FA@ObjectBase@Glib@@8
    ??_R4CellRendererCombo@Gtk@@6BObject@1@@
    ?cellrendererpixbuf_class_@CellRendererPixbuf@Gtk@@0VCellRendererPixbuf_Class@2@A
    ?__empty_global_delete@@YAXPEAX@Z
    ?__empty_global_delete@@YAXPEAX_K@Z
    ??1CellRendererPixbuf@Gtk@@UEAA@XZ
    ??0CellRendererPixbuf@Gtk@@IEAA@AEBVConstructParams@Glib@@@Z
    ??0CellRendererPixbuf@Gtk@@IEAA@PEAU_GtkCellRendererPixbuf@@@Z
    ?get_type@CellRendererPixbuf@Gtk@@SA_KXZ
    ?get_base_type@CellRendererPixbuf@Gtk@@SA_KXZ
    ??0CellRendererPixbuf@Gtk@@QEAA@XZ
    ?property_pixbuf@CellRendererPixbuf@Gtk@@QEAA?AV?$PropertyProxy@V?$RefPtr@VPixbuf@Gdk@@@Glib@@@Glib@@XZ
    ?property_pixbuf@CellRendererPixbuf@Gtk@@QEBA?AV?$PropertyProxy_ReadOnly@V?$RefPtr@VPixbuf@Gdk@@@Glib@@@Glib@@XZ
    ?property_pixbuf_expander_open@CellRendererPixbuf@Gtk@@QEAA?AV?$PropertyProxy@V?$RefPtr@VPixbuf@Gdk@@@Glib@@@Glib@@XZ
    ?property_pixbuf_expander_open@CellRendererPixbuf@Gtk@@QEBA?AV?$PropertyProxy_ReadOnly@V?$RefPtr@VPixbuf@Gdk@@@Glib@@@Glib@@XZ
    ?property_pixbuf_expander_closed@CellRendererPixbuf@Gtk@@QEAA?AV?$PropertyProxy@V?$RefPtr@VPixbuf@Gdk@@@Glib@@@Glib@@XZ
    ?property_pixbuf_expander_closed@CellRendererPixbuf@Gtk@@QEBA?AV?$PropertyProxy_ReadOnly@V?$RefPtr@VPixbuf@Gdk@@@Glib@@@Glib@@XZ
    ?property_stock_id@CellRendererPixbuf@Gtk@@QEAA?AV?$PropertyProxy@Vustring@Glib@@@Glib@@XZ
    ?property_stock_id@CellRendererPixbuf@Gtk@@QEBA?AV?$PropertyProxy_ReadOnly@Vustring@Glib@@@Glib@@XZ
    ?property_stock_size@CellRendererPixbuf@Gtk@@QEAA?AV?$PropertyProxy@I@Glib@@XZ
    ?property_stock_size@CellRendererPixbuf@Gtk@@QEBA?AV?$PropertyProxy_ReadOnly@I@Glib@@XZ
    ?property_stock_detail@CellRendererPixbuf@Gtk@@QEAA?AV?$PropertyProxy@Vustring@Glib@@@Glib@@XZ
    ?property_stock_detail@CellRendererPixbuf@Gtk@@QEBA?AV?$PropertyProxy_ReadOnly@Vustring@Glib@@@Glib@@XZ
    ?property_icon_name@CellRendererPixbuf@Gtk@@QEAA?AV?$PropertyProxy@Vustring@Glib@@@Glib@@XZ
    ?property_icon_name@CellRendererPixbuf@Gtk@@QEBA?AV?$PropertyProxy_ReadOnly@Vustring@Glib@@@Glib@@XZ
    ?property_follow_state@CellRendererPixbuf@Gtk@@QEAA?AV?$PropertyProxy@_N@Glib@@XZ
    ?property_follow_state@CellRendererPixbuf@Gtk@@QEBA?AV?$PropertyProxy_ReadOnly@_N@Glib@@XZ
    ?property_gicon@CellRendererPixbuf@Gtk@@QEAA?AV?$PropertyProxy@V?$RefPtr@VIcon@Gio@@@Glib@@@Glib@@XZ
    ?property_gicon@CellRendererPixbuf@Gtk@@QEBA?AV?$PropertyProxy_ReadOnly@V?$RefPtr@VIcon@Gio@@@Glib@@@Glib@@XZ
    ?property_surface@CellRendererPixbuf@Gtk@@QEAA?AV?$PropertyProxy@V?$RefPtr@VSurface@Cairo@@@Cairo@@@Glib@@XZ
    ?property_surface@CellRendererPixbuf@Gtk@@QEBA?AV?$PropertyProxy_ReadOnly@V?$RefPtr@VSurface@Cairo@@@Cairo@@@Glib@@XZ
    ?_property_renderable@CellRendererPixbuf@Gtk@@UEAA?AVPropertyProxy_Base@Glib@@XZ
    ??_DCellRendererPixbuf@Gtk@@QEAAXXZ
    ?wrap@Glib@@YAPEAVCellRendererPixbuf@Gtk@@PEAU_GtkCellRendererPixbuf@@_N@Z
    ?init@CellRendererPixbuf_Class@Gtk@@QEAAAEBVClass@Glib@@XZ
    ?class_init_function@CellRendererPixbuf_Class@Gtk@@SAXPEAX0@Z
    ?wrap_new@CellRendererPixbuf_Class@Gtk@@SAPEAVObjectBase@Glib@@PEAU_GObject@@@Z
    ??$manage@VCellRendererPixbuf@Gtk@@@Gtk@@YAPEAVCellRendererPixbuf@0@PEAV10@@Z
    ?destroy_notify_@Object@Gtk@@$2PPPPPPPM@A@EAAXXZ
    ?set_manage@Object@Gtk@@$4PPPPPPPM@A@EAAXXZ
    ??_7CellRendererPixbuf@Gtk@@6BCellRenderer@1@@
    ??_7CellRendererPixbuf@Gtk@@6BObject@1@@
    ??_8CellRendererPixbuf@Gtk@@7BObject@Glib@@@
    ??_8CellRendererPixbuf@Gtk@@7BObjectBase@Glib@@@
    ??_R0?AVObjectBase@Glib@@@8
    ??_R0?AVCellRendererPixbuf@Gtk@@@8
    ??_C@_06JIBAFMCE@pixbuf?$AA@
    ??_C@_0BF@FCDGNMCL@pixbuf?9expander?9open?$AA@
    ??_C@_0BH@ONOPKJLP@pixbuf?9expander?9closed?$AA@
    ??_C@_08PBHBKFGA@stock?9id?$AA@
    ??_C@_0L@FKJHOICL@stock?9size?$AA@
    ??_C@_0N@LDAGFCLN@stock?9detail?$AA@
    ??_C@_09MAAEAIMO@icon?9name?$AA@
    ??_C@_0N@FHGHNHEO@follow?9state?$AA@
    ??_C@_05FOIIOGFL@gicon?$AA@
    ??_C@_07IHELBNLD@surface?$AA@
    ??_R4CellRendererPixbuf@Gtk@@6BCellRenderer@1@@
    ??_R3CellRendererPixbuf@Gtk@@8
    ??_R2CellRendererPixbuf@Gtk@@8
    ??_R1A@?0A@EA@CellRendererPixbuf@Gtk@@8
    ??_R1A@?0A@EA@CellRenderer@Gtk@@8
    ??_R0?AVCellRenderer@Gtk@@@8
    ??_R3CellRenderer@Gtk@@8
    ??_R2CellRenderer@Gtk@@8
    ??_R17?0A@EA@Object@Gtk@@8
    ??_R0?AVObject@Gtk@@@8
    ??_R3Object@Gtk@@8
    ??_R2Object@Gtk@@8
    ??_R1A@?0A@EA@Object@Gtk@@8
    ??_R1A@?0A@EA@Object@Glib@@8
    ??_R0?AVObject@Glib@@@8
    ??_R3Object@Glib@@8
    ??_R2Object@Glib@@8
    ??_R1A@A@7FA@ObjectBase@Glib@@8
    ??_R3ObjectBase@Glib@@8
    ??_R2ObjectBase@Glib@@8
    ??_R1A@?0A@EA@ObjectBase@Glib@@8
    ??_R1A@73FA@trackable@sigc@@8
    ??_R0?AUtrackable@sigc@@@8
    ??_R3trackable@sigc@@8
    ??_R2trackable@sigc@@8
    ??_R1A@?0A@EA@trackable@sigc@@8
    ??_R1A@A@3FA@trackable@sigc@@8
    ??_R17?0A@EA@Object@Glib@@8
    ??_R1A@77FA@ObjectBase@Glib@@8
    ??_R4CellRendererPixbuf@Gtk@@6BObject@1@@
    ?cellrendererprogress_class_@CellRendererProgress@Gtk@@0VCellRendererProgress_Class@2@A
    ?__empty_global_delete@@YAXPEAX@Z
    ?__empty_global_delete@@YAXPEAX_K@Z
    ??1CellRendererProgress@Gtk@@UEAA@XZ
    ??0CellRendererProgress@Gtk@@IEAA@AEBVConstructParams@Glib@@@Z
    ??0CellRendererProgress@Gtk@@IEAA@PEAU_GtkCellRendererProgress@@@Z
    ?get_type@CellRendererProgress@Gtk@@SA_KXZ
    ?get_base_type@CellRendererProgress@Gtk@@SA_KXZ
    ??0CellRendererProgress@Gtk@@QEAA@XZ
    ?property_value@CellRendererProgress@Gtk@@QEAA?AV?$PropertyProxy@H@Glib@@XZ
    ?property_value@CellRendererProgress@Gtk@@QEBA?AV?$PropertyProxy_ReadOnly@H@Glib@@XZ
    ?property_text@CellRendererProgress@Gtk@@QEAA?AV?$PropertyProxy@Vustring@Glib@@@Glib@@XZ
    ?property_text@CellRendererProgress@Gtk@@QEBA?AV?$PropertyProxy_ReadOnly@Vustring@Glib@@@Glib@@XZ
    ?property_pulse@CellRendererProgress@Gtk@@QEAA?AV?$PropertyProxy@H@Glib@@XZ
    ?property_pulse@CellRendererProgress@Gtk@@QEBA?AV?$PropertyProxy_ReadOnly@H@Glib@@XZ
    ?property_text_xalign@CellRendererProgress@Gtk@@QEAA?AV?$PropertyProxy@M@Glib@@XZ
    ?property_text_xalign@CellRendererProgress@Gtk@@QEBA?AV?$PropertyProxy_ReadOnly@M@Glib@@XZ
    ?property_text_yalign@CellRendererProgress@Gtk@@QEAA?AV?$PropertyProxy@M@Glib@@XZ
    ?property_text_yalign@CellRendererProgress@Gtk@@QEBA?AV?$PropertyProxy_ReadOnly@M@Glib@@XZ
    ?property_inverted@CellRendererProgress@Gtk@@QEAA?AV?$PropertyProxy@_N@Glib@@XZ
    ?property_inverted@CellRendererProgress@Gtk@@QEBA?AV?$PropertyProxy_ReadOnly@_N@Glib@@XZ
    ?_property_renderable@CellRendererProgress@Gtk@@UEAA?AVPropertyProxy_Base@Glib@@XZ
    ??_DCellRendererProgress@Gtk@@QEAAXXZ
    ?wrap@Glib@@YAPEAVCellRendererProgress@Gtk@@PEAU_GtkCellRendererProgress@@_N@Z
    ?init@CellRendererProgress_Class@Gtk@@QEAAAEBVClass@Glib@@XZ
    ?class_init_function@CellRendererProgress_Class@Gtk@@SAXPEAX0@Z
    ?wrap_new@CellRendererProgress_Class@Gtk@@SAPEAVObjectBase@Glib@@PEAU_GObject@@@Z
    ??$manage@VCellRendererProgress@Gtk@@@Gtk@@YAPEAVCellRendererProgress@0@PEAV10@@Z
    ?destroy_notify_@Object@Gtk@@$2PPPPPPPM@7EAAXXZ
    ?set_manage@Object@Gtk@@$4PPPPPPPM@7EAAXXZ
    ??_7CellRendererProgress@Gtk@@6BCellRenderer@1@@
    ??_7CellRendererProgress@Gtk@@6BObject@1@@
    ??_8CellRendererProgress@Gtk@@7BObject@Glib@@@
    ??_8CellRendererProgress@Gtk@@7BInterface@Glib@@@
    ??_8CellRendererProgress@Gtk@@7BObjectBase@Glib@@@
    ??_R0?AVObjectBase@Glib@@@8
    ??_R0?AVCellRendererProgress@Gtk@@@8
    ??_C@_05MFEJDJP@value?$AA@
    ??_C@_04CIMGMMMG@text?$AA@
    ??_C@_05ELOADNHC@pulse?$AA@
    ??_C@_0M@BIGCGCKJ@text?9xalign?$AA@
    ??_C@_0M@LOBFGJBN@text?9yalign?$AA@
    ??_C@_08NDBEDGND@inverted?$AA@
    ??_R4CellRendererProgress@Gtk@@6BCellRenderer@1@@
    ??_R3CellRendererProgress@Gtk@@8
    ??_R2CellRendererProgress@Gtk@@8
    ??_R1A@?0A@EA@CellRendererProgress@Gtk@@8
    ??_R1A@?0A@EA@CellRenderer@Gtk@@8
    ??_R0?AVCellRenderer@Gtk@@@8
    ??_R3CellRenderer@Gtk@@8
    ??_R2CellRenderer@Gtk@@8
    ??_R17?0A@EA@Object@Gtk@@8
    ??_R0?AVObject@Gtk@@@8
    ??_R3Object@Gtk@@8
    ??_R2Object@Gtk@@8
    ??_R1A@?0A@EA@Object@Gtk@@8
    ??_R1A@?0A@EA@Object@Glib@@8
    ??_R0?AVObject@Glib@@@8
    ??_R3Object@Glib@@8
    ??_R2Object@Glib@@8
    ??_R1A@A@7FA@ObjectBase@Glib@@8
    ??_R3ObjectBase@Glib@@8
    ??_R2ObjectBase@Glib@@8
    ??_R1A@?0A@EA@ObjectBase@Glib@@8
    ??_R1A@73FA@trackable@sigc@@8
    ??_R0?AUtrackable@sigc@@@8
    ??_R3trackable@sigc@@8
    ??_R2trackable@sigc@@8
    ??_R1A@?0A@EA@trackable@sigc@@8
    ??_R1A@A@3FA@trackable@sigc@@8
    ??_R17?0A@EA@Object@Glib@@8
    ??_R1A@77FA@ObjectBase@Glib@@8
    ??_R1BI@?0A@EA@Orientable@Gtk@@8
    ??_R0?AVOrientable@Gtk@@@8
    ??_R3Orientable@Gtk@@8
    ??_R2Orientable@Gtk@@8
    ??_R1A@?0A@EA@Orientable@Gtk@@8
    ??_R1A@?0A@EA@Interface@Glib@@8
    ??_R0?AVInterface@Glib@@@8
    ??_R3Interface@Glib@@8
    ??_R2Interface@Glib@@8
    ??_R1BI@?0A@EA@Interface@Glib@@8
    ??_R4CellRendererProgress@Gtk@@6BObject@1@@
    ?cellrendererspin_class_@CellRendererSpin@Gtk@@0VCellRendererSpin_Class@2@A
    ?__empty_global_delete@@YAXPEAX@Z
    ?__empty_global_delete@@YAXPEAX_K@Z
    ??1CellRendererSpin@Gtk@@UEAA@XZ
    ??0CellRendererSpin@Gtk@@IEAA@AEBVConstructParams@Glib@@@Z
    ??0CellRendererSpin@Gtk@@IEAA@PEAU_GtkCellRendererSpin@@@Z
    ?get_type@CellRendererSpin@Gtk@@SA_KXZ
    ?get_base_type@CellRendererSpin@Gtk@@SA_KXZ
    ??0CellRendererSpin@Gtk@@QEAA@XZ
    ?property_adjustment@CellRendererSpin@Gtk@@QEAA?AV?$PropertyProxy@V?$RefPtr@VAdjustment@Gtk@@@Glib@@@Glib@@XZ
    ?property_adjustment@CellRendererSpin@Gtk@@QEBA?AV?$PropertyProxy_ReadOnly@V?$RefPtr@VAdjustment@Gtk@@@Glib@@@Glib@@XZ
    ?property_climb_rate@CellRendererSpin@Gtk@@QEAA?AV?$PropertyProxy@N@Glib@@XZ
    ?property_climb_rate@CellRendererSpin@Gtk@@QEBA?AV?$PropertyProxy_ReadOnly@N@Glib@@XZ
    ?property_digits@CellRendererSpin@Gtk@@QEAA?AV?$PropertyProxy@I@Glib@@XZ
    ?property_digits@CellRendererSpin@Gtk@@QEBA?AV?$PropertyProxy_ReadOnly@I@Glib@@XZ
    ?_property_renderable@CellRendererSpin@Gtk@@UEAA?AVPropertyProxy_Base@Glib@@XZ
    ??_DCellRendererSpin@Gtk@@QEAAXXZ
    ?wrap@Glib@@YAPEAVCellRendererSpin@Gtk@@PEAU_GtkCellRendererSpin@@_N@Z
    ?init@CellRendererSpin_Class@Gtk@@QEAAAEBVClass@Glib@@XZ
    ?class_init_function@CellRendererSpin_Class@Gtk@@SAXPEAX0@Z
    ?wrap_new@CellRendererSpin_Class@Gtk@@SAPEAVObjectBase@Glib@@PEAU_GObject@@@Z
    ??$manage@VCellRendererSpin@Gtk@@@Gtk@@YAPEAVCellRendererSpin@0@PEAV10@@Z
    ?destroy_notify_@Object@Gtk@@$2PPPPPPPM@A@EAAXXZ
    ?set_manage@Object@Gtk@@$4PPPPPPPM@A@EAAXXZ
    ??_7CellRendererSpin@Gtk@@6BCellRenderer@1@@
    ??_7CellRendererSpin@Gtk@@6BObject@1@@
    ??_8CellRendererSpin@Gtk@@7BObject@Glib@@@
    ??_8CellRendererSpin@Gtk@@7BObjectBase@Glib@@@
    ??_R0?AVObjectBase@Glib@@@8
    ??_R0?AVCellRendererSpin@Gtk@@@8
    ??_C@_0L@NJKAFMFL@adjustment?$AA@
    ??_C@_0L@MBFKOPMC@climb?9rate?$AA@
    ??_C@_06IEHOPII@digits?$AA@
    ??_R4CellRendererSpin@Gtk@@6BCellRenderer@1@@
    ??_R3CellRendererSpin@Gtk@@8
    ??_R2CellRendererSpin@Gtk@@8
    ??_R1A@?0A@EA@CellRendererSpin@Gtk@@8
    ??_R1A@?0A@EA@CellRendererText@Gtk@@8
    ??_R0?AVCellRendererText@Gtk@@@8
    ??_R3CellRendererText@Gtk@@8
    ??_R2CellRendererText@Gtk@@8
    ??_R1A@?0A@EA@CellRenderer@Gtk@@8
    ??_R0?AVCellRenderer@Gtk@@@8
    ??_R3CellRenderer@Gtk@@8
    ??_R2CellRenderer@Gtk@@8
    ??_R17?0A@EA@Object@Gtk@@8
    ??_R0?AVObject@Gtk@@@8
    ??_R3Object@Gtk@@8
    ??_R2Object@Gtk@@8
    ??_R1A@?0A@EA@Object@Gtk@@8
    ??_R1A@?0A@EA@Object@Glib@@8
    ??_R0?AVObject@Glib@@@8
    ??_R3Object@Glib@@8
    ??_R2Object@Glib@@8
    ??_R1A@A@7FA@ObjectBase@Glib@@8
    ??_R3ObjectBase@Glib@@8
    ??_R2ObjectBase@Glib@@8
    ??_R1A@?0A@EA@ObjectBase@Glib@@8
    ??_R1A@73FA@trackable@sigc@@8
    ??_R0?AUtrackable@sigc@@@8
    ??_R3trackable@sigc@@8
    ??_R2trackable@sigc@@8
    ??_R1A@?0A@EA@trackable@sigc@@8
    ??_R1A@A@3FA@trackable@sigc@@8
    ??_R17?0A@EA@Object@Glib@@8
    ??_R1A@77FA@ObjectBase@Glib@@8
    ??_R4CellRendererSpin@Gtk@@6BObject@1@@
    ?cellrendererspinner_class_@CellRendererSpinner@Gtk@@0VCellRendererSpinner_Class@2@A
    ?__empty_global_delete@@YAXPEAX@Z
    ?__empty_global_delete@@YAXPEAX_K@Z
    ??1CellRendererSpinner@Gtk@@UEAA@XZ
    ??0CellRendererSpinner@Gtk@@IEAA@AEBVConstructParams@Glib@@@Z
    ??0CellRendererSpinner@Gtk@@IEAA@PEAU_GtkCellRendererSpinner@@@Z
    ?get_type@CellRendererSpinner@Gtk@@SA_KXZ
    ?get_base_type@CellRendererSpinner@Gtk@@SA_KXZ
    ??0CellRendererSpinner@Gtk@@QEAA@XZ
    ?property_active@CellRendererSpinner@Gtk@@QEAA?AV?$PropertyProxy@_N@Glib@@XZ
    ?property_active@CellRendererSpinner@Gtk@@QEBA?AV?$PropertyProxy_ReadOnly@_N@Glib@@XZ
    ?property_pulse@CellRendererSpinner@Gtk@@QEAA?AV?$PropertyProxy@I@Glib@@XZ
    ?property_pulse@CellRendererSpinner@Gtk@@QEBA?AV?$PropertyProxy_ReadOnly@I@Glib@@XZ
    ?property_size@CellRendererSpinner@Gtk@@QEAA?AV?$PropertyProxy@VIconSize@Gtk@@@Glib@@XZ
    ?property_size@CellRendererSpinner@Gtk@@QEBA?AV?$PropertyProxy_ReadOnly@VIconSize@Gtk@@@Glib@@XZ
    ??_DCellRendererSpinner@Gtk@@QEAAXXZ
    ?wrap@Glib@@YAPEAVCellRendererSpinner@Gtk@@PEAU_GtkCellRendererSpinner@@_N@Z
    ?init@CellRendererSpinner_Class@Gtk@@QEAAAEBVClass@Glib@@XZ
    ?class_init_function@CellRendererSpinner_Class@Gtk@@SAXPEAX0@Z
    ?wrap_new@CellRendererSpinner_Class@Gtk@@SAPEAVObjectBase@Glib@@PEAU_GObject@@@Z
    ??$manage@VCellRendererSpinner@Gtk@@@Gtk@@YAPEAVCellRendererSpinner@0@PEAV10@@Z
    ?destroy_notify_@Object@Gtk@@$2PPPPPPPM@A@EAAXXZ
    ?set_manage@Object@Gtk@@$4PPPPPPPM@A@EAAXXZ
    ??_7CellRendererSpinner@Gtk@@6BCellRenderer@1@@
    ??_7CellRendererSpinner@Gtk@@6BObject@1@@
    ??_8CellRendererSpinner@Gtk@@7BObject@Glib@@@
    ??_8CellRendererSpinner@Gtk@@7BObjectBase@Glib@@@
    ??_R0?AVObjectBase@Glib@@@8
    ??_R0?AVCellRendererSpinner@Gtk@@@8
    ??_C@_06MDLIGPKC@active?$AA@
    ??_C@_05ELOADNHC@pulse?$AA@
    ??_C@_04IAGNFIBA@size?$AA@
    ??_R4CellRendererSpinner@Gtk@@6BCellRenderer@1@@
    ??_R3CellRendererSpinner@Gtk@@8
    ??_R2CellRendererSpinner@Gtk@@8
    ??_R1A@?0A@EA@CellRendererSpinner@Gtk@@8
    ??_R1A@?0A@EA@CellRenderer@Gtk@@8
    ??_R0?AVCellRenderer@Gtk@@@8
    ??_R3CellRenderer@Gtk@@8
    ??_R2CellRenderer@Gtk@@8
    ??_R17?0A@EA@Object@Gtk@@8
    ??_R0?AVObject@Gtk@@@8
    ??_R3Object@Gtk@@8
    ??_R2Object@Gtk@@8
    ??_R1A@?0A@EA@Object@Gtk@@8
    ??_R1A@?0A@EA@Object@Glib@@8
    ??_R0?AVObject@Glib@@@8
    ??_R3Object@Glib@@8
    ??_R2Object@Glib@@8
    ??_R1A@A@7FA@ObjectBase@Glib@@8
    ??_R3ObjectBase@Glib@@8
    ??_R2ObjectBase@Glib@@8
    ??_R1A@?0A@EA@ObjectBase@Glib@@8
    ??_R1A@73FA@trackable@sigc@@8
    ??_R0?AUtrackable@sigc@@@8
    ??_R3trackable@sigc@@8
    ??_R2trackable@sigc@@8
    ??_R1A@?0A@EA@trackable@sigc@@8
    ??_R1A@A@3FA@trackable@sigc@@8
    ??_R17?0A@EA@Object@Glib@@8
    ??_R1A@77FA@ObjectBase@Glib@@8
    ??_R4CellRendererSpinner@Gtk@@6BObject@1@@
    ?cellrenderertext_class_@CellRendererText@Gtk@@0VCellRendererText_Class@2@A
    ??_C@_06BHIKILBA@edited?$AA@
    ?__empty_global_delete@@YAXPEAX@Z
    ?__empty_global_delete@@YAXPEAX_K@Z
    ?convert_const_gchar_ptr_to_ustring@Glib@@YA?AVustring@1@PEBD@Z
    ??1CellRendererText@Gtk@@UEAA@XZ
    ??0CellRendererText@Gtk@@IEAA@AEBVConstructParams@Glib@@@Z
    ??0CellRendererText@Gtk@@IEAA@PEAU_GtkCellRendererText@@@Z
    ?get_type@CellRendererText@Gtk@@SA_KXZ
    ?get_base_type@CellRendererText@Gtk@@SA_KXZ
    ?on_edited@CellRendererText@Gtk@@MEAAXAEBVustring@Glib@@0@Z
    ??0CellRendererText@Gtk@@QEAA@XZ
    ?set_fixed_height_from_font@CellRendererText@Gtk@@QEAAXH@Z
    ?signal_edited@CellRendererText@Gtk@@QEAA?AV?$SignalProxy2@XAEBVustring@Glib@@AEBV12@@Glib@@XZ
    ?property_text@CellRendererText@Gtk@@QEAA?AV?$PropertyProxy@Vustring@Glib@@@Glib@@XZ
    ?property_text@CellRendererText@Gtk@@QEBA?AV?$PropertyProxy_ReadOnly@Vustring@Glib@@@Glib@@XZ
    ?property_markup@CellRendererText@Gtk@@QEAA?AV?$PropertyProxy_WriteOnly@Vustring@Glib@@@Glib@@XZ
    ?property_attributes@CellRendererText@Gtk@@QEAA?AV?$PropertyProxy@VAttrList@Pango@@@Glib@@XZ
    ?property_attributes@CellRendererText@Gtk@@QEBA?AV?$PropertyProxy_ReadOnly@VAttrList@Pango@@@Glib@@XZ
    ?property_background@CellRendererText@Gtk@@QEAA?AV?$PropertyProxy_WriteOnly@Vustring@Glib@@@Glib@@XZ
    ?property_foreground@CellRendererText@Gtk@@QEAA?AV?$PropertyProxy_WriteOnly@Vustring@Glib@@@Glib@@XZ
    ?property_background_gdk@CellRendererText@Gtk@@QEAA?AV?$PropertyProxy@VColor@Gdk@@@Glib@@XZ
    ?property_background_gdk@CellRendererText@Gtk@@QEBA?AV?$PropertyProxy_ReadOnly@VColor@Gdk@@@Glib@@XZ
    ?property_foreground_gdk@CellRendererText@Gtk@@QEAA?AV?$PropertyProxy@VColor@Gdk@@@Glib@@XZ
    ?property_foreground_gdk@CellRendererText@Gtk@@QEBA?AV?$PropertyProxy_ReadOnly@VColor@Gdk@@@Glib@@XZ
    ?property_background_rgba@CellRendererText@Gtk@@QEAA?AV?$PropertyProxy@VRGBA@Gdk@@@Glib@@XZ
    ?property_background_rgba@CellRendererText@Gtk@@QEBA?AV?$PropertyProxy_ReadOnly@VRGBA@Gdk@@@Glib@@XZ
    ?property_foreground_rgba@CellRendererText@Gtk@@QEAA?AV?$PropertyProxy@VRGBA@Gdk@@@Glib@@XZ
    ?property_foreground_rgba@CellRendererText@Gtk@@QEBA?AV?$PropertyProxy_ReadOnly@VRGBA@Gdk@@@Glib@@XZ
    ?property_font@CellRendererText@Gtk@@QEAA?AV?$PropertyProxy@Vustring@Glib@@@Glib@@XZ
    ?property_font@CellRendererText@Gtk@@QEBA?AV?$PropertyProxy_ReadOnly@Vustring@Glib@@@Glib@@XZ
    ?property_font_desc@CellRendererText@Gtk@@QEAA?AV?$PropertyProxy@VFontDescription@Pango@@@Glib@@XZ
    ?property_font_desc@CellRendererText@Gtk@@QEBA?AV?$PropertyProxy_ReadOnly@VFontDescription@Pango@@@Glib@@XZ
    ?property_family@CellRendererText@Gtk@@QEAA?AV?$PropertyProxy@Vustring@Glib@@@Glib@@XZ
    ?property_family@CellRendererText@Gtk@@QEBA?AV?$PropertyProxy_ReadOnly@Vustring@Glib@@@Glib@@XZ
    ?property_style@CellRendererText@Gtk@@QEAA?AV?$PropertyProxy@W4Style@Pango@@@Glib@@XZ
    ?property_style@CellRendererText@Gtk@@QEBA?AV?$PropertyProxy_ReadOnly@W4Style@Pango@@@Glib@@XZ
    ?property_variant@CellRendererText@Gtk@@QEAA?AV?$PropertyProxy@W4Variant@Pango@@@Glib@@XZ
    ?property_variant@CellRendererText@Gtk@@QEBA?AV?$PropertyProxy_ReadOnly@W4Variant@Pango@@@Glib@@XZ
    ?property_weight@CellRendererText@Gtk@@QEAA?AV?$PropertyProxy@H@Glib@@XZ
    ?property_weight@CellRendererText@Gtk@@QEBA?AV?$PropertyProxy_ReadOnly@H@Glib@@XZ
    ?property_stretch@CellRendererText@Gtk@@QEAA?AV?$PropertyProxy@W4Stretch@Pango@@@Glib@@XZ
    ?property_stretch@CellRendererText@Gtk@@QEBA?AV?$PropertyProxy_ReadOnly@W4Stretch@Pango@@@Glib@@XZ
    ?property_size@CellRendererText@Gtk@@QEAA?AV?$PropertyProxy@H@Glib@@XZ
    ?property_size@CellRendererText@Gtk@@QEBA?AV?$PropertyProxy_ReadOnly@H@Glib@@XZ
    ?property_size_points@CellRendererText@Gtk@@QEAA?AV?$PropertyProxy@N@Glib@@XZ
    ?property_size_points@CellRendererText@Gtk@@QEBA?AV?$PropertyProxy_ReadOnly@N@Glib@@XZ
    ?property_scale@CellRendererText@Gtk@@QEAA?AV?$PropertyProxy@N@Glib@@XZ
    ?property_scale@CellRendererText@Gtk@@QEBA?AV?$PropertyProxy_ReadOnly@N@Glib@@XZ
    ?property_editable@CellRendererText@Gtk@@QEAA?AV?$PropertyProxy@_N@Glib@@XZ
    ?property_editable@CellRendererText@Gtk@@QEBA?AV?$PropertyProxy_ReadOnly@_N@Glib@@XZ
    ?property_strikethrough@CellRendererText@Gtk@@QEAA?AV?$PropertyProxy@_N@Glib@@XZ
    ?property_strikethrough@CellRendererText@Gtk@@QEBA?AV?$PropertyProxy_ReadOnly@_N@Glib@@XZ
    ?property_underline@CellRendererText@Gtk@@QEAA?AV?$PropertyProxy@W4Underline@Pango@@@Glib@@XZ
    ?property_underline@CellRendererText@Gtk@@QEBA?AV?$PropertyProxy_ReadOnly@W4Underline@Pango@@@Glib@@XZ
    ?property_rise@CellRendererText@Gtk@@QEAA?AV?$PropertyProxy@H@Glib@@XZ
    ?property_rise@CellRendererText@Gtk@@QEBA?AV?$PropertyProxy_ReadOnly@H@Glib@@XZ
    ?property_language@CellRendererText@Gtk@@QEAA?AV?$PropertyProxy@Vustring@Glib@@@Glib@@XZ
    ?property_language@CellRendererText@Gtk@@QEBA?AV?$PropertyProxy_ReadOnly@Vustring@Glib@@@Glib@@XZ
    ?property_ellipsize@CellRendererText@Gtk@@QEAA?AV?$PropertyProxy@W4EllipsizeMode@Pango@@@Glib@@XZ
    ?property_ellipsize@CellRendererText@Gtk@@QEBA?AV?$PropertyProxy_ReadOnly@W4EllipsizeMode@Pango@@@Glib@@XZ
    ?property_width_chars@CellRendererText@Gtk@@QEAA?AV?$PropertyProxy@H@Glib@@XZ
    ?property_width_chars@CellRendererText@Gtk@@QEBA?AV?$PropertyProxy_ReadOnly@H@Glib@@XZ
    ?property_max_width_chars@CellRendererText@Gtk@@QEAA?AV?$PropertyProxy@H@Glib@@XZ
    ?property_max_width_chars@CellRendererText@Gtk@@QEBA?AV?$PropertyProxy_ReadOnly@H@Glib@@XZ
    ?property_wrap_mode@CellRendererText@Gtk@@QEAA?AV?$PropertyProxy@W4WrapMode@Pango@@@Glib@@XZ
    ?property_wrap_mode@CellRendererText@Gtk@@QEBA?AV?$PropertyProxy_ReadOnly@W4WrapMode@Pango@@@Glib@@XZ
    ?property_wrap_width@CellRendererText@Gtk@@QEAA?AV?$PropertyProxy@H@Glib@@XZ
    ?property_wrap_width@CellRendererText@Gtk@@QEBA?AV?$PropertyProxy_ReadOnly@H@Glib@@XZ
    ?property_alignment@CellRendererText@Gtk@@QEAA?AV?$PropertyProxy@W4Alignment@Pango@@@Glib@@XZ
    ?property_alignment@CellRendererText@Gtk@@QEBA?AV?$PropertyProxy_ReadOnly@W4Alignment@Pango@@@Glib@@XZ
    ?property_background_set@CellRendererText@Gtk@@QEAA?AV?$PropertyProxy@_N@Glib@@XZ
    ?property_background_set@CellRendererText@Gtk@@QEBA?AV?$PropertyProxy_ReadOnly@_N@Glib@@XZ
    ?property_foreground_set@CellRendererText@Gtk@@QEAA?AV?$PropertyProxy@_N@Glib@@XZ
    ?property_foreground_set@CellRendererText@Gtk@@QEBA?AV?$PropertyProxy_ReadOnly@_N@Glib@@XZ
    ?property_family_set@CellRendererText@Gtk@@QEAA?AV?$PropertyProxy@_N@Glib@@XZ
    ?property_family_set@CellRendererText@Gtk@@QEBA?AV?$PropertyProxy_ReadOnly@_N@Glib@@XZ
    ?property_style_set@CellRendererText@Gtk@@QEAA?AV?$PropertyProxy@_N@Glib@@XZ
    ?property_style_set@CellRendererText@Gtk@@QEBA?AV?$PropertyProxy_ReadOnly@_N@Glib@@XZ
    ?property_variant_set@CellRendererText@Gtk@@QEAA?AV?$PropertyProxy@_N@Glib@@XZ
    ?property_variant_set@CellRendererText@Gtk@@QEBA?AV?$PropertyProxy_ReadOnly@_N@Glib@@XZ
    ?property_weight_set@CellRendererText@Gtk@@QEAA?AV?$PropertyProxy@_N@Glib@@XZ
    ?property_weight_set@CellRendererText@Gtk@@QEBA?AV?$PropertyProxy_ReadOnly@_N@Glib@@XZ
    ?property_stretch_set@CellRendererText@Gtk@@QEAA?AV?$PropertyProxy@_N@Glib@@XZ
    ?property_stretch_set@CellRendererText@Gtk@@QEBA?AV?$PropertyProxy_ReadOnly@_N@Glib@@XZ
    ?property_size_set@CellRendererText@Gtk@@QEAA?AV?$PropertyProxy@_N@Glib@@XZ
    ?property_size_set@CellRendererText@Gtk@@QEBA?AV?$PropertyProxy_ReadOnly@_N@Glib@@XZ
    ?property_scale_set@CellRendererText@Gtk@@QEAA?AV?$PropertyProxy@_N@Glib@@XZ
    ?property_scale_set@CellRendererText@Gtk@@QEBA?AV?$PropertyProxy_ReadOnly@_N@Glib@@XZ
    ?property_editable_set@CellRendererText@Gtk@@QEAA?AV?$PropertyProxy@_N@Glib@@XZ
    ?property_editable_set@CellRendererText@Gtk@@QEBA?AV?$PropertyProxy_ReadOnly@_N@Glib@@XZ
    ?property_strikethrough_set@CellRendererText@Gtk@@QEAA?AV?$PropertyProxy@_N@Glib@@XZ
    ?property_strikethrough_set@CellRendererText@Gtk@@QEBA?AV?$PropertyProxy_ReadOnly@_N@Glib@@XZ
    ?property_underline_set@CellRendererText@Gtk@@QEAA?AV?$PropertyProxy@_N@Glib@@XZ
    ?property_underline_set@CellRendererText@Gtk@@QEBA?AV?$PropertyProxy_ReadOnly@_N@Glib@@XZ
    ?property_rise_set@CellRendererText@Gtk@@QEAA?AV?$PropertyProxy@_N@Glib@@XZ
    ?property_rise_set@CellRendererText@Gtk@@QEBA?AV?$PropertyProxy_ReadOnly@_N@Glib@@XZ
    ?property_language_set@CellRendererText@Gtk@@QEAA?AV?$PropertyProxy@_N@Glib@@XZ
    ?property_language_set@CellRendererText@Gtk@@QEBA?AV?$PropertyProxy_ReadOnly@_N@Glib@@XZ
    ?property_ellipsize_set@CellRendererText@Gtk@@QEAA?AV?$PropertyProxy@_N@Glib@@XZ
    ?property_ellipsize_set@CellRendererText@Gtk@@QEBA?AV?$PropertyProxy_ReadOnly@_N@Glib@@XZ
    ?property_single_paragraph_mode@CellRendererText@Gtk@@QEAA?AV?$PropertyProxy@_N@Glib@@XZ
    ?property_single_paragraph_mode@CellRendererText@Gtk@@QEBA?AV?$PropertyProxy_ReadOnly@_N@Glib@@XZ
    ?property_align_set@CellRendererText@Gtk@@QEAA?AV?$PropertyProxy@_N@Glib@@XZ
    ?property_align_set@CellRendererText@Gtk@@QEBA?AV?$PropertyProxy_ReadOnly@_N@Glib@@XZ
    ?property_placeholder_text@CellRendererText@Gtk@@QEAA?AV?$PropertyProxy@Vustring@Glib@@@Glib@@XZ
    ?property_placeholder_text@CellRendererText@Gtk@@QEBA?AV?$PropertyProxy_ReadOnly@Vustring@Glib@@@Glib@@XZ
    ?_property_renderable@CellRendererText@Gtk@@UEAA?AVPropertyProxy_Base@Glib@@XZ
    ?edited@CellRendererText@Gtk@@IEAAXAEBVustring@Glib@@0@Z
    ??_DCellRendererText@Gtk@@QEAAXXZ
    ?wrap@Glib@@YAPEAVCellRendererText@Gtk@@PEAU_GtkCellRendererText@@_N@Z
    ?init@CellRendererText_Class@Gtk@@QEAAAEBVClass@Glib@@XZ
    ?class_init_function@CellRendererText_Class@Gtk@@SAXPEAX0@Z
    ?wrap_new@CellRendererText_Class@Gtk@@SAPEAVObjectBase@Glib@@PEAU_GObject@@@Z
    ?edited_callback@CellRendererText_Class@Gtk@@KAXPEAU_GtkCellRendererText@@PEBD1@Z
    ??$manage@VCellRendererText@Gtk@@@Gtk@@YAPEAVCellRendererText@0@PEAV10@@Z
    ?destroy_notify_@Object@Gtk@@$2PPPPPPPM@A@EAAXXZ
    ?set_manage@Object@Gtk@@$4PPPPPPPM@A@EAAXXZ
    ??_7CellRendererText@Gtk@@6BCellRenderer@1@@
    ??_7CellRendererText@Gtk@@6BObject@1@@
    ??_8CellRendererText@Gtk@@7BObject@Glib@@@
    ??_8CellRendererText@Gtk@@7BObjectBase@Glib@@@
    ??_R0?AVObjectBase@Glib@@@8
    ??_R0?AVCellRendererText@Gtk@@@8
    ??_C@_04CIMGMMMG@text?$AA@
    ??_C@_06FJGKMBLL@markup?$AA@
    ??_C@_0L@HNMJPKNA@attributes?$AA@
    ??_C@_0L@EGCKCJDC@background?$AA@
    ??_C@_0L@EGALCOAD@foreground?$AA@
    ??_C@_0P@MLBNJAFH@background?9gdk?$AA@
    ??_C@_0P@KFKAMPF@foreground?9gdk?$AA@
    ??_C@_0BA@DMEGAPLC@background?9rgba?$AA@
    ??_C@_0BA@EFPIKOK@foreground?9rgba?$AA@
    ??_C@_04EFPADHIC@font?$AA@
    ??_C@_09FNAPMFED@font?9desc?$AA@
    ??_C@_06NBOBHOCP@family?$AA@
    ??_C@_05IAKJCFIM@style?$AA@
    ??_C@_07IFGLIMJI@variant?$AA@
    ??_C@_06CMCBKMCB@weight?$AA@
    ??_C@_07LEPFLFDH@stretch?$AA@
    ??_C@_04IAGNFIBA@size?$AA@
    ??_C@_0M@GEHAHGAF@size?9points?$AA@
    ??_C@_05MHMEBBGO@scale?$AA@
    ??_C@_08LJAEALMJ@editable?$AA@
    ??_C@_0O@GPIKDHBE@strikethrough?$AA@
    ??_C@_09BDFOLJKH@underline?$AA@
    ??_C@_04LCNMEKCP@rise?$AA@
    ??_C@_08JGCCIMAA@language?$AA@
    ??_C@_09LKBEMLPM@ellipsize?$AA@
    ??_C@_0M@NAJJGLMC@width?9chars?$AA@
    ??_C@_0BA@KBFNDBNF@max?9width?9chars?$AA@
    ??_C@_09MIBNCMGK@wrap?9mode?$AA@
    ??_C@_0L@DAGCGJNP@wrap?9width?$AA@
    ??_C@_09EPAMMDLD@alignment?$AA@
    ??_C@_0P@NIPODEDG@background?9set?$AA@
    ??_C@_0P@BJLJKIJE@foreground?9set?$AA@
    ??_C@_0L@FFBLILCD@family?9set?$AA@
    ??_C@_09EOOAFIPG@style?9set?$AA@
    ??_C@_0M@MOJELPJC@variant?9set?$AA@
    ??_C@_0L@DDDPEEKB@weight?9set?$AA@
    ??_C@_0M@EODKMPHA@stretch?9set?$AA@
    ??_C@_08EKMJOPKD@size?9set?$AA@
    ??_C@_09CJBPFNNA@scale?9set?$AA@
    ??_C@_0N@JEFFNBLP@editable?9set?$AA@
    ??_C@_0BC@KHKKGOCL@strikethrough?9set?$AA@
    ??_C@_0O@PPCBIENJ@underline?9set?$AA@
    ??_C@_08MICKLODD@rise?9set?$AA@
    ??_C@_0N@BDGFMDEL@language?9set?$AA@
    ??_C@_0O@BBMEAMIH@ellipsize?9set?$AA@
    ??_C@_0BG@GNNJFAMF@single?9paragraph?9mode?$AA@
    ??_C@_09GONIHMFI@align?9set?$AA@
    ??_C@_0BB@LKJBDCIF@placeholder?9text?$AA@
    ??_R4CellRendererText@Gtk@@6BCellRenderer@1@@
    ??_R3CellRendererText@Gtk@@8
    ??_R2CellRendererText@Gtk@@8
    ??_R1A@?0A@EA@CellRendererText@Gtk@@8
    ??_R1A@?0A@EA@CellRenderer@Gtk@@8
    ??_R0?AVCellRenderer@Gtk@@@8
    ??_R3CellRenderer@Gtk@@8
    ??_R2CellRenderer@Gtk@@8
    ??_R17?0A@EA@Object@Gtk@@8
    ??_R0?AVObject@Gtk@@@8
    ??_R3Object@Gtk@@8
    ??_R2Object@Gtk@@8
    ??_R1A@?0A@EA@Object@Gtk@@8
    ??_R1A@?0A@EA@Object@Glib@@8
    ??_R0?AVObject@Glib@@@8
    ??_R3Object@Glib@@8
    ??_R2Object@Glib@@8
    ??_R1A@A@7FA@ObjectBase@Glib@@8
    ??_R3ObjectBase@Glib@@8
    ??_R2ObjectBase@Glib@@8
    ??_R1A@?0A@EA@ObjectBase@Glib@@8
    ??_R1A@73FA@trackable@sigc@@8
    ??_R0?AUtrackable@sigc@@@8
    ??_R3trackable@sigc@@8
    ??_R2trackable@sigc@@8
    ??_R1A@?0A@EA@trackable@sigc@@8
    ??_R1A@A@3FA@trackable@sigc@@8
    ??_R17?0A@EA@Object@Glib@@8
    ??_R1A@77FA@ObjectBase@Glib@@8
    ??_R4CellRendererText@Gtk@@6BObject@1@@
    ?cellrenderertoggle_class_@CellRendererToggle@Gtk@@0VCellRendererToggle_Class@2@A
    ??_C@_07MPKHPIJM@toggled?$AA@
    ?__empty_global_delete@@YAXPEAX@Z
    ?__empty_global_delete@@YAXPEAX_K@Z
    ?convert_const_gchar_ptr_to_ustring@Glib@@YA?AVustring@1@PEBD@Z
    ??1CellRendererToggle@Gtk@@UEAA@XZ
    ??0CellRendererToggle@Gtk@@IEAA@AEBVConstructParams@Glib@@@Z
    ??0CellRendererToggle@Gtk@@IEAA@PEAU_GtkCellRendererToggle@@@Z
    ?get_type@CellRendererToggle@Gtk@@SA_KXZ
    ?get_base_type@CellRendererToggle@Gtk@@SA_KXZ
    ?on_toggled@CellRendererToggle@Gtk@@MEAAXAEBVustring@Glib@@@Z
    ??0CellRendererToggle@Gtk@@QEAA@XZ
    ?get_radio@CellRendererToggle@Gtk@@QEBA_NXZ
    ?set_radio@CellRendererToggle@Gtk@@QEAAX_N@Z
    ?get_active@CellRendererToggle@Gtk@@QEBA_NXZ
    ?set_active@CellRendererToggle@Gtk@@QEAAX_N@Z
    ?get_activatable@CellRendererToggle@Gtk@@QEBA_NXZ
    ?set_activatable@CellRendererToggle@Gtk@@QEAAX_N@Z
    ?signal_toggled@CellRendererToggle@Gtk@@QEAA?AV?$SignalProxy1@XAEBVustring@Glib@@@Glib@@XZ
    ?property_activatable@CellRendererToggle@Gtk@@QEAA?AV?$PropertyProxy@_N@Glib@@XZ
    ?property_activatable@CellRendererToggle@Gtk@@QEBA?AV?$PropertyProxy_ReadOnly@_N@Glib@@XZ
    ?property_active@CellRendererToggle@Gtk@@QEAA?AV?$PropertyProxy@_N@Glib@@XZ
    ?property_active@CellRendererToggle@Gtk@@QEBA?AV?$PropertyProxy_ReadOnly@_N@Glib@@XZ
    ?property_inconsistent@CellRendererToggle@Gtk@@QEAA?AV?$PropertyProxy@_N@Glib@@XZ
    ?property_inconsistent@CellRendererToggle@Gtk@@QEBA?AV?$PropertyProxy_ReadOnly@_N@Glib@@XZ
    ?property_radio@CellRendererToggle@Gtk@@QEAA?AV?$PropertyProxy@_N@Glib@@XZ
    ?property_radio@CellRendererToggle@Gtk@@QEBA?AV?$PropertyProxy_ReadOnly@_N@Glib@@XZ
    ?property_indicator_size@CellRendererToggle@Gtk@@QEAA?AV?$PropertyProxy@H@Glib@@XZ
    ?property_indicator_size@CellRendererToggle@Gtk@@QEBA?AV?$PropertyProxy_ReadOnly@H@Glib@@XZ
    ?_property_renderable@CellRendererToggle@Gtk@@UEAA?AVPropertyProxy_Base@Glib@@XZ
    ??_DCellRendererToggle@Gtk@@QEAAXXZ
    ?wrap@Glib@@YAPEAVCellRendererToggle@Gtk@@PEAU_GtkCellRendererToggle@@_N@Z
    ?init@CellRendererToggle_Class@Gtk@@QEAAAEBVClass@Glib@@XZ
    ?class_init_function@CellRendererToggle_Class@Gtk@@SAXPEAX0@Z
    ?wrap_new@CellRendererToggle_Class@Gtk@@SAPEAVObjectBase@Glib@@PEAU_GObject@@@Z
    ?toggled_callback@CellRendererToggle_Class@Gtk@@KAXPEAU_GtkCellRendererToggle@@PEBD@Z
    ??$manage@VCellRendererToggle@Gtk@@@Gtk@@YAPEAVCellRendererToggle@0@PEAV10@@Z
    ?destroy_notify_@Object@Gtk@@$2PPPPPPPM@A@EAAXXZ
    ?set_manage@Object@Gtk@@$4PPPPPPPM@A@EAAXXZ
    ??_7CellRendererToggle@Gtk@@6BCellRenderer@1@@
    ??_7CellRendererToggle@Gtk@@6BObject@1@@
    ??_8CellRendererToggle@Gtk@@7BObject@Glib@@@
    ??_8CellRendererToggle@Gtk@@7BObjectBase@Glib@@@
    ??_R0?AVObjectBase@Glib@@@8
    ??_R0?AVCellRendererToggle@Gtk@@@8
    ??_C@_0M@EKPOKHJB@activatable?$AA@
    ??_C@_06MDLIGPKC@active?$AA@
    ??_C@_0N@HNACNIOD@inconsistent?$AA@
    ??_C@_05LNKCELPI@radio?$AA@
    ??_C@_0P@KHFKKMN@indicator?9size?$AA@
    ??_R4CellRendererToggle@Gtk@@6BCellRenderer@1@@
    ??_R3CellRendererToggle@Gtk@@8
    ??_R2CellRendererToggle@Gtk@@8
    ??_R1A@?0A@EA@CellRendererToggle@Gtk@@8
    ??_R1A@?0A@EA@CellRenderer@Gtk@@8
    ??_R0?AVCellRenderer@Gtk@@@8
    ??_R3CellRenderer@Gtk@@8
    ??_R2CellRenderer@Gtk@@8
    ??_R17?0A@EA@Object@Gtk@@8
    ??_R0?AVObject@Gtk@@@8
    ??_R3Object@Gtk@@8
    ??_R2Object@Gtk@@8
    ??_R1A@?0A@EA@Object@Gtk@@8
    ??_R1A@?0A@EA@Object@Glib@@8
    ??_R0?AVObject@Glib@@@8
    ??_R3Object@Glib@@8
    ??_R2Object@Glib@@8
    ??_R1A@A@7FA@ObjectBase@Glib@@8
    ??_R3ObjectBase@Glib@@8
    ??_R2ObjectBase@Glib@@8
    ??_R1A@?0A@EA@ObjectBase@Glib@@8
    ??_R1A@73FA@trackable@sigc@@8
    ??_R0?AUtrackable@sigc@@@8
    ??_R3trackable@sigc@@8
    ??_R2trackable@sigc@@8
    ??_R1A@?0A@EA@trackable@sigc@@8
    ??_R1A@A@3FA@trackable@sigc@@8
    ??_R17?0A@EA@Object@Glib@@8
    ??_R1A@77FA@ObjectBase@Glib@@8
    ??_R4CellRendererToggle@Gtk@@6BObject@1@@
    ?__empty_global_delete@@YAXPEAX@Z
    ?__empty_global_delete@@YAXPEAX_K@Z
    ??1?$Value@_N@Glib@@QEAA@XZ
    ??$generate_cellrenderer@_N@CellRenderer_Generation@Gtk@@YAPEAVCellRenderer@1@_N@Z
    ??$generate_cellrenderer@V?$RefPtr@VPixbuf@Gdk@@@Glib@@@CellRenderer_Generation@Gtk@@YAPEAVCellRenderer@1@_N@Z
    ??$generate_cellrenderer@VAccelKey@Gtk@@@CellRenderer_Generation@Gtk@@YAPEAVCellRenderer@1@_N@Z
    ?set_value@?$PropertyProxy@_N@Glib@@QEAAXAEB_N@Z
    ?cellview_class_@CellView@Gtk@@0VCellView_Class@2@A
    ?__empty_global_delete@@YAXPEAX@Z
    ?__empty_global_delete@@YAXPEAX_K@Z
    ??1?$Value@Vustring@Glib@@@Glib@@QEAA@XZ
    ??1CellView@Gtk@@UEAA@XZ
    ??0CellView@Gtk@@IEAA@AEBVConstructParams@Glib@@@Z
    ??0CellView@Gtk@@IEAA@PEAU_GtkCellView@@@Z
    ?get_type@CellView@Gtk@@SA_KXZ
    ?get_base_type@CellView@Gtk@@SA_KXZ
    ??0CellView@Gtk@@QEAA@XZ
    ??0CellView@Gtk@@QEAA@AEBVustring@Glib@@_N@Z
    ??0CellView@Gtk@@QEAA@AEBV?$RefPtr@VPixbuf@Gdk@@@Glib@@@Z
    ?set_model@CellView@Gtk@@QEAAXAEBV?$RefPtr@VTreeModel@Gtk@@@Glib@@@Z
    ?unset_model@CellView@Gtk@@QEAAXXZ
    ?get_model@CellView@Gtk@@QEAA?AV?$RefPtr@VTreeModel@Gtk@@@Glib@@XZ
    ?get_model@CellView@Gtk@@QEBA?AV?$RefPtr@$$CBVTreeModel@Gtk@@@Glib@@XZ
    ?set_displayed_row@CellView@Gtk@@QEAAXAEBVTreePath@2@@Z
    ?get_displayed_row@CellView@Gtk@@QEBA?AVTreePath@2@XZ
    ?set_background_color@CellView@Gtk@@QEAAXAEBVColor@Gdk@@@Z
    ?set_background_rgba@CellView@Gtk@@QEAAXAEBVRGBA@Gdk@@@Z
    ?get_draw_sensitive@CellView@Gtk@@QEBA_NXZ
    ?set_draw_sensitive@CellView@Gtk@@QEAAX_N@Z
    ?get_fit_model@CellView@Gtk@@QEBA_NXZ
    ?set_fit_model@CellView@Gtk@@QEAAX_N@Z
    ?property_background@CellView@Gtk@@QEAA?AV?$PropertyProxy_WriteOnly@Vustring@Glib@@@Glib@@XZ
    ?property_background_gdk@CellView@Gtk@@QEAA?AV?$PropertyProxy@VColor@Gdk@@@Glib@@XZ
    ?property_background_gdk@CellView@Gtk@@QEBA?AV?$PropertyProxy_ReadOnly@VColor@Gdk@@@Glib@@XZ
    ?property_background_rgba@CellView@Gtk@@QEAA?AV?$PropertyProxy@VRGBA@Gdk@@@Glib@@XZ
    ?property_background_rgba@CellView@Gtk@@QEBA?AV?$PropertyProxy_ReadOnly@VRGBA@Gdk@@@Glib@@XZ
    ?property_background_set@CellView@Gtk@@QEAA?AV?$PropertyProxy@_N@Glib@@XZ
    ?property_background_set@CellView@Gtk@@QEBA?AV?$PropertyProxy_ReadOnly@_N@Glib@@XZ
    ?property_model@CellView@Gtk@@QEAA?AV?$PropertyProxy@V?$RefPtr@VTreeModel@Gtk@@@Glib@@@Glib@@XZ
    ?property_model@CellView@Gtk@@QEBA?AV?$PropertyProxy_ReadOnly@V?$RefPtr@VTreeModel@Gtk@@@Glib@@@Glib@@XZ
    ?property_cell_area@CellView@Gtk@@QEBA?AV?$PropertyProxy_ReadOnly@V?$RefPtr@VCellArea@Gtk@@@Glib@@@Glib@@XZ
    ?property_cell_area_context@CellView@Gtk@@QEBA?AV?$PropertyProxy_ReadOnly@V?$RefPtr@VCellAreaContext@Gtk@@@Glib@@@Glib@@XZ
    ?property_draw_sensitive@CellView@Gtk@@QEAA?AV?$PropertyProxy@_N@Glib@@XZ
    ?property_draw_sensitive@CellView@Gtk@@QEBA?AV?$PropertyProxy_ReadOnly@_N@Glib@@XZ
    ?property_fit_model@CellView@Gtk@@QEAA?AV?$PropertyProxy@_N@Glib@@XZ
    ?property_fit_model@CellView@Gtk@@QEBA?AV?$PropertyProxy_ReadOnly@_N@Glib@@XZ
    ?wrap@Glib@@YAPEAVCellView@Gtk@@PEAU_GtkCellView@@_N@Z
    ?init@CellView_Class@Gtk@@QEAAAEBVClass@Glib@@XZ
    ?class_init_function@CellView_Class@Gtk@@SAXPEAX0@Z
    ?wrap_new@CellView_Class@Gtk@@SAPEAVObjectBase@Glib@@PEAU_GObject@@@Z
    ??$manage@VCellRendererText@Gtk@@@Gtk@@YAPEAVCellRendererText@0@PEAV10@@Z
    ?set_value@?$PropertyProxy_WriteOnly@Vustring@Glib@@@Glib@@QEAAXAEBVustring@2@@Z
    ?set_value@?$PropertyProxy@Vustring@Glib@@@Glib@@QEAAXAEBVustring@2@@Z
    ??$manage@VCellRendererPixbuf@Gtk@@@Gtk@@YAPEAVCellRendererPixbuf@0@PEAV10@@Z
    ?set_value@?$PropertyProxy@V?$RefPtr@VPixbuf@Gdk@@@Glib@@@Glib@@QEAAXAEBV?$RefPtr@VPixbuf@Gdk@@@2@@Z
    ??$manage@VCellView@Gtk@@@Gtk@@YAPEAVCellView@0@PEAV10@@Z
    ??1?$RefPtr@VTreeModel@Gtk@@@Glib@@QEAA@XZ
    ??1?$RefPtr@$$CBVTreeModel@Gtk@@@Glib@@QEAA@XZ
    ??1?$Value@V?$RefPtr@VPixbuf@Gdk@@@Glib@@@Glib@@QEAA@XZ
    ?destroy_notify_@Object@Gtk@@$2PPPPPPPM@CA@EAAXXZ
    ?set_manage@Object@Gtk@@$4PPPPPPPM@CA@EAAXXZ
    ??_7CellView@Gtk@@6BWidget@1@@
    ??_7CellView@Gtk@@6BCellLayout@1@@
    ??_7CellView@Gtk@@6BObject@1@@
    ??_8CellView@Gtk@@7BObject@Glib@@@
    ??_8CellView@Gtk@@7BInterface@Glib@@Widget@1@@
    ??_8CellView@Gtk@@7BInterface@Glib@@CellLayout@1@@
    ??_8CellView@Gtk@@7BInterface@Glib@@Orientable@1@@
    ??_8CellView@Gtk@@7BObjectBase@Glib@@@
    ??_R0?AVObjectBase@Glib@@@8
    ??_R0?AVCellView@Gtk@@@8
    ??_C@_0L@EGCKCJDC@background?$AA@
    ??_C@_0P@MLBNJAFH@background?9gdk?$AA@
    ??_C@_0BA@DMEGAPLC@background?9rgba?$AA@
    ??_C@_0P@NIPODEDG@background?9set?$AA@
    ??_C@_05NCCFOPHA@model?$AA@
    ??_C@_09BHKPAMFL@cell?9area?$AA@
    ??_C@_0BC@IGKHDJOD@cell?9area?9context?$AA@
    ??_C@_0P@BLMKKLFL@draw?9sensitive?$AA@
    ??_C@_09CKCEKCFL@fit?9model?$AA@
    ??_R4CellView@Gtk@@6BWidget@1@@
    ??_R3CellView@Gtk@@8
    ??_R2CellView@Gtk@@8
    ??_R1A@?0A@EA@CellView@Gtk@@8
    ??_R1A@?0A@EA@Widget@Gtk@@8
    ??_R0?AVWidget@Gtk@@@8
    ??_R3Widget@Gtk@@8
    ??_R2Widget@Gtk@@8
    ??_R17?0A@EA@Object@Gtk@@8
    ??_R0?AVObject@Gtk@@@8
    ??_R3Object@Gtk@@8
    ??_R2Object@Gtk@@8
    ??_R1A@?0A@EA@Object@Gtk@@8
    ??_R1A@?0A@EA@Object@Glib@@8
    ??_R0?AVObject@Glib@@@8
    ??_R3Object@Glib@@8
    ??_R2Object@Glib@@8
    ??_R1A@A@7FA@ObjectBase@Glib@@8
    ??_R3ObjectBase@Glib@@8
    ??_R2ObjectBase@Glib@@8
    ??_R1A@?0A@EA@ObjectBase@Glib@@8
    ??_R1A@73FA@trackable@sigc@@8
    ??_R0?AUtrackable@sigc@@@8
    ??_R3trackable@sigc@@8
    ??_R2trackable@sigc@@8
    ??_R1A@?0A@EA@trackable@sigc@@8
    ??_R1A@A@3FA@trackable@sigc@@8
    ??_R17?0A@EA@Object@Glib@@8
    ??_R1A@77FA@ObjectBase@Glib@@8
    ??_R1BI@?0A@EA@Buildable@Gtk@@8
    ??_R0?AVBuildable@Gtk@@@8
    ??_R3Buildable@Gtk@@8
    ??_R2Buildable@Gtk@@8
    ??_R1A@?0A@EA@Buildable@Gtk@@8
    ??_R1A@?0A@EA@Interface@Glib@@8
    ??_R0?AVInterface@Glib@@@8
    ??_R3Interface@Glib@@8
    ??_R2Interface@Glib@@8
    ??_R1BI@?0A@EA@Interface@Glib@@8
    ??_R1BI@?0A@EC@Interface@Glib@@8
    ??_R1CA@?0A@EA@CellLayout@Gtk@@8
    ??_R0?AVCellLayout@Gtk@@@8
    ??_R3CellLayout@Gtk@@8
    ??_R2CellLayout@Gtk@@8
    ??_R1A@?0A@EA@CellLayout@Gtk@@8
    ??_R17?0A@EA@Interface@Glib@@8
    ??_R1CI@?0A@EC@Interface@Glib@@8
    ??_R1DA@?0A@EA@Orientable@Gtk@@8
    ??_R0?AVOrientable@Gtk@@@8
    ??_R3Orientable@Gtk@@8
    ??_R2Orientable@Gtk@@8
    ??_R1A@?0A@EA@Orientable@Gtk@@8
    ??_R1DA@?0A@EC@Interface@Glib@@8
    ??_R4CellView@Gtk@@6BCellLayout@1@@
    ??_R4CellView@Gtk@@6BObject@1@@
    ?checkbutton_class_@CheckButton@Gtk@@0VCheckButton_Class@2@A
    ?__empty_global_delete@@YAXPEAX@Z
    ?__empty_global_delete@@YAXPEAX_K@Z
    ??1CheckButton@Gtk@@UEAA@XZ
    ??0CheckButton@Gtk@@IEAA@AEBVConstructParams@Glib@@@Z
    ??0CheckButton@Gtk@@IEAA@PEAU_GtkCheckButton@@@Z
    ?get_type@CheckButton@Gtk@@SA_KXZ
    ?get_base_type@CheckButton@Gtk@@SA_KXZ
    ??0CheckButton@Gtk@@QEAA@XZ
    ??0CheckButton@Gtk@@QEAA@AEBVustring@Glib@@_N@Z
    ?draw_indicator_vfunc@CheckButton@Gtk@@MEAAXAEBV?$RefPtr@VContext@Cairo@@@Cairo@@@Z
    ??_DCheckButton@Gtk@@QEAAXXZ
    ?wrap@Glib@@YAPEAVCheckButton@Gtk@@PEAU_GtkCheckButton@@_N@Z
    ?init@CheckButton_Class@Gtk@@QEAAAEBVClass@Glib@@XZ
    ?class_init_function@CheckButton_Class@Gtk@@SAXPEAX0@Z
    ?wrap_new@CheckButton_Class@Gtk@@SAPEAVObjectBase@Glib@@PEAU_GObject@@@Z
    ?draw_indicator_vfunc_callback@CheckButton_Class@Gtk@@KAXPEAU_GtkCheckButton@@PEAU_cairo@@@Z
    ??1?$RefPtr@VContext@Cairo@@@Cairo@@QEAA@XZ
    ??$manage@VCheckButton@Gtk@@@Gtk@@YAPEAVCheckButton@0@PEAV10@@Z
    ?destroy_notify_@Object@Gtk@@$2PPPPPPPM@BI@EAAXXZ
    ?set_manage@Object@Gtk@@$4PPPPPPPM@BI@EAAXXZ
    ??_7CheckButton@Gtk@@6BWidget@1@@
    ??_7CheckButton@Gtk@@6BActivatable@1@@
    ??_7CheckButton@Gtk@@6BObject@1@@
    ??_8CheckButton@Gtk@@7BObject@Glib@@@
    ??_8CheckButton@Gtk@@7BInterface@Glib@@Bin@1@@
    ??_8CheckButton@Gtk@@7BInterface@Glib@@Activatable@1@@
    ??_8CheckButton@Gtk@@7BObjectBase@Glib@@@
    ??_C@_0O@BDCKFHIO@use_underline?$AA@
    ??_C@_05IDCCNNGI@label?$AA@
    ??_R0?AVObjectBase@Glib@@@8
    ??_R0?AVCheckButton@Gtk@@@8
    ??_R4CheckButton@Gtk@@6BWidget@1@@
    ??_R3CheckButton@Gtk@@8
    ??_R2CheckButton@Gtk@@8
    ??_R1A@?0A@EA@CheckButton@Gtk@@8
    ??_R1A@?0A@EA@ToggleButton@Gtk@@8
    ??_R0?AVToggleButton@Gtk@@@8
    ??_R3ToggleButton@Gtk@@8
    ??_R2ToggleButton@Gtk@@8
    ??_R1A@?0A@EA@Button@Gtk@@8
    ??_R0?AVButton@Gtk@@@8
    ??_R3Button@Gtk@@8
    ??_R2Button@Gtk@@8
    ??_R1A@?0A@EA@Bin@Gtk@@8
    ??_R0?AVBin@Gtk@@@8
    ??_R3Bin@Gtk@@8
    ??_R2Bin@Gtk@@8
    ??_R1A@?0A@EA@Container@Gtk@@8
    ??_R0?AVContainer@Gtk@@@8
    ??_R3Container@Gtk@@8
    ??_R2Container@Gtk@@8
    ??_R1A@?0A@EA@Widget@Gtk@@8
    ??_R0?AVWidget@Gtk@@@8
    ??_R3Widget@Gtk@@8
    ??_R2Widget@Gtk@@8
    ??_R17?0A@EA@Object@Gtk@@8
    ??_R0?AVObject@Gtk@@@8
    ??_R3Object@Gtk@@8
    ??_R2Object@Gtk@@8
    ??_R1A@?0A@EA@Object@Gtk@@8
    ??_R1A@?0A@EA@Object@Glib@@8
    ??_R0?AVObject@Glib@@@8
    ??_R3Object@Glib@@8
    ??_R2Object@Glib@@8
    ??_R1A@A@7FA@ObjectBase@Glib@@8
    ??_R3ObjectBase@Glib@@8
    ??_R2ObjectBase@Glib@@8
    ??_R1A@?0A@EA@ObjectBase@Glib@@8
    ??_R1A@73FA@trackable@sigc@@8
    ??_R0?AUtrackable@sigc@@@8
    ??_R3trackable@sigc@@8
    ??_R2trackable@sigc@@8
    ??_R1A@?0A@EA@trackable@sigc@@8
    ??_R1A@A@3FA@trackable@sigc@@8
    ??_R17?0A@EA@Object@Glib@@8
    ??_R1A@77FA@ObjectBase@Glib@@8
    ??_R1BI@?0A@EA@Buildable@Gtk@@8
    ??_R0?AVBuildable@Gtk@@@8
    ??_R3Buildable@Gtk@@8
    ??_R2Buildable@Gtk@@8
    ??_R1A@?0A@EA@Buildable@Gtk@@8
    ??_R1A@?0A@EA@Interface@Glib@@8
    ??_R0?AVInterface@Glib@@@8
    ??_R3Interface@Glib@@8
    ??_R2Interface@Glib@@8
    ??_R1BI@?0A@EA@Interface@Glib@@8
    ??_R1BI@?0A@EC@Interface@Glib@@8
    ??_R1CA@?0A@EA@Activatable@Gtk@@8
    ??_R0?AVActivatable@Gtk@@@8
    ??_R3Activatable@Gtk@@8
    ??_R2Activatable@Gtk@@8
    ??_R1A@?0A@EA@Activatable@Gtk@@8
    ??_R17?0A@EA@Interface@Glib@@8
    ??_R1CI@?0A@EC@Interface@Glib@@8
    ??_R4CheckButton@Gtk@@6BActivatable@1@@
    ??_R4CheckButton@Gtk@@6BObject@1@@
    ?checkmenuitem_class_@CheckMenuItem@Gtk@@0VCheckMenuItem_Class@2@A
    ??_C@_07MPKHPIJM@toggled?$AA@
    ?__empty_global_delete@@YAXPEAX@Z
    ?__empty_global_delete@@YAXPEAX_K@Z
    ??1CheckMenuItem@Gtk@@UEAA@XZ
    ??0CheckMenuItem@Gtk@@IEAA@AEBVConstructParams@Glib@@@Z
    ??0CheckMenuItem@Gtk@@IEAA@PEAU_GtkCheckMenuItem@@@Z
    ?get_type@CheckMenuItem@Gtk@@SA_KXZ
    ?get_base_type@CheckMenuItem@Gtk@@SA_KXZ
    ?on_toggled@CheckMenuItem@Gtk@@MEAAXXZ
    ??0CheckMenuItem@Gtk@@QEAA@XZ
    ??0CheckMenuItem@Gtk@@QEAA@AEBVustring@Glib@@_N@Z
    ?set_active@CheckMenuItem@Gtk@@QEAAX_N@Z
    ?get_active@CheckMenuItem@Gtk@@QEBA_NXZ
    ?toggled@CheckMenuItem@Gtk@@QEAAXXZ
    ?set_inconsistent@CheckMenuItem@Gtk@@QEAAX_N@Z
    ?get_inconsistent@CheckMenuItem@Gtk@@QEBA_NXZ
    ?set_draw_as_radio@CheckMenuItem@Gtk@@QEAAX_N@Z
    ?get_draw_as_radio@CheckMenuItem@Gtk@@QEBA_NXZ
    ?signal_toggled@CheckMenuItem@Gtk@@QEAA?AV?$SignalProxy0@X@Glib@@XZ
    ?property_active@CheckMenuItem@Gtk@@QEAA?AV?$PropertyProxy@_N@Glib@@XZ
    ?property_active@CheckMenuItem@Gtk@@QEBA?AV?$PropertyProxy_ReadOnly@_N@Glib@@XZ
    ?property_inconsistent@CheckMenuItem@Gtk@@QEAA?AV?$PropertyProxy@_N@Glib@@XZ
    ?property_inconsistent@CheckMenuItem@Gtk@@QEBA?AV?$PropertyProxy_ReadOnly@_N@Glib@@XZ
    ?property_draw_as_radio@CheckMenuItem@Gtk@@QEAA?AV?$PropertyProxy@_N@Glib@@XZ
    ?property_draw_as_radio@CheckMenuItem@Gtk@@QEBA?AV?$PropertyProxy_ReadOnly@_N@Glib@@XZ
    ?draw_indicator_vfunc@CheckMenuItem@Gtk@@MEAAXAEBV?$RefPtr@VContext@Cairo@@@Cairo@@@Z
    ??_DCheckMenuItem@Gtk@@QEAAXXZ
    ?wrap@Glib@@YAPEAVCheckMenuItem@Gtk@@PEAU_GtkCheckMenuItem@@_N@Z
    ?init@CheckMenuItem_Class@Gtk@@QEAAAEBVClass@Glib@@XZ
    ?class_init_function@CheckMenuItem_Class@Gtk@@SAXPEAX0@Z
    ?wrap_new@CheckMenuItem_Class@Gtk@@SAPEAVObjectBase@Glib@@PEAU_GObject@@@Z
    ?toggled_callback@CheckMenuItem_Class@Gtk@@KAXPEAU_GtkCheckMenuItem@@@Z
    ?draw_indicator_vfunc_callback@CheckMenuItem_Class@Gtk@@KAXPEAU_GtkCheckMenuItem@@PEAU_cairo@@@Z
    ??1?$RefPtr@VContext@Cairo@@@Cairo@@QEAA@XZ
    ??$manage@VCheckMenuItem@Gtk@@@Gtk@@YAPEAVCheckMenuItem@0@PEAV10@@Z
    ?destroy_notify_@Object@Gtk@@$2PPPPPPPM@EA@EAAXXZ
    ?set_manage@Object@Gtk@@$4PPPPPPPM@EA@EAAXXZ
    ??_7CheckMenuItem@Gtk@@6BWidget@1@@
    ??_7CheckMenuItem@Gtk@@6BActivatable@1@@
    ??_7CheckMenuItem@Gtk@@6BObject@1@@
    ??_8CheckMenuItem@Gtk@@7BObject@Glib@@@
    ??_8CheckMenuItem@Gtk@@7BInterface@Glib@@Bin@1@@
    ??_8CheckMenuItem@Gtk@@7BInterface@Glib@@Activatable@1@@
    ??_8CheckMenuItem@Gtk@@7BObjectBase@Glib@@@
    ??_R0?AVObjectBase@Glib@@@8
    ??_R0?AVCheckMenuItem@Gtk@@@8
    ??_C@_06MDLIGPKC@active?$AA@
    ??_C@_0N@HNACNIOD@inconsistent?$AA@
    ??_C@_0O@ILOCOONO@draw?9as?9radio?$AA@
    ??_R4CheckMenuItem@Gtk@@6BWidget@1@@
    ??_R3CheckMenuItem@Gtk@@8
    ??_R2CheckMenuItem@Gtk@@8
    ??_R1A@?0A@EA@CheckMenuItem@Gtk@@8
    ??_R1A@?0A@EA@MenuItem@Gtk@@8
    ??_R0?AVMenuItem@Gtk@@@8
    ??_R3MenuItem@Gtk@@8
    ??_R2MenuItem@Gtk@@8
    ??_R1A@?0A@EA@Bin@Gtk@@8
    ??_R0?AVBin@Gtk@@@8
    ??_R3Bin@Gtk@@8
    ??_R2Bin@Gtk@@8
    ??_R1A@?0A@EA@Container@Gtk@@8
    ??_R0?AVContainer@Gtk@@@8
    ??_R3Container@Gtk@@8
    ??_R2Container@Gtk@@8
    ??_R1A@?0A@EA@Widget@Gtk@@8
    ??_R0?AVWidget@Gtk@@@8
    ??_R3Widget@Gtk@@8
    ??_R2Widget@Gtk@@8
    ??_R17?0A@EA@Object@Gtk@@8
    ??_R0?AVObject@Gtk@@@8
    ??_R3Object@Gtk@@8
    ??_R2Object@Gtk@@8
    ??_R1A@?0A@EA@Object@Gtk@@8
    ??_R1A@?0A@EA@Object@Glib@@8
    ??_R0?AVObject@Glib@@@8
    ??_R3Object@Glib@@8
    ??_R2Object@Glib@@8
    ??_R1A@A@7FA@ObjectBase@Glib@@8
    ??_R3ObjectBase@Glib@@8
    ??_R2ObjectBase@Glib@@8
    ??_R1A@?0A@EA@ObjectBase@Glib@@8
    ??_R1A@73FA@trackable@sigc@@8
    ??_R0?AUtrackable@sigc@@@8
    ??_R3trackable@sigc@@8
    ??_R2trackable@sigc@@8
    ??_R1A@?0A@EA@trackable@sigc@@8
    ??_R1A@A@3FA@trackable@sigc@@8
    ??_R17?0A@EA@Object@Glib@@8
    ??_R1A@77FA@ObjectBase@Glib@@8
    ??_R1BI@?0A@EA@Buildable@Gtk@@8
    ??_R0?AVBuildable@Gtk@@@8
    ??_R3Buildable@Gtk@@8
    ??_R2Buildable@Gtk@@8
    ??_R1A@?0A@EA@Buildable@Gtk@@8
    ??_R1A@?0A@EA@Interface@Glib@@8
    ??_R0?AVInterface@Glib@@@8
    ??_R3Interface@Glib@@8
    ??_R2Interface@Glib@@8
    ??_R1BI@?0A@EA@Interface@Glib@@8
    ??_R1BI@?0A@EC@Interface@Glib@@8
    ??_R1CA@?0A@EA@Activatable@Gtk@@8
    ??_R0?AVActivatable@Gtk@@@8
    ??_R3Activatable@Gtk@@8
    ??_R2Activatable@Gtk@@8
    ??_R1A@?0A@EA@Activatable@Gtk@@8
    ??_R17?0A@EA@Interface@Glib@@8
    ??_R1CI@?0A@EC@Interface@Glib@@8
    ??_R4CheckMenuItem@Gtk@@6BActivatable@1@@
    ??_R4CheckMenuItem@Gtk@@6BObject@1@@
    ?__empty_global_delete@@YAXPEAX@Z
    ?__empty_global_delete@@YAXPEAX_K@Z
    ?__empty_global_delete@@YAXPEAX@Z
    ?__empty_global_delete@@YAXPEAX_K@Z
    ??HGlib@@YA?AVustring@0@PEBDAEBV10@@Z
    ?connect@SignalProxyChildProperty@Gtk@@QEAA?AUconnection@sigc@@AEBV?$slot@XUnil@sigc@@U12@U12@U12@U12@U12@U12@@4@@Z
    ??0ChildPropertyProxy_Base@Gtk@@QEAA@PEAVContainer@1@AEAVWidget@1@PEBD@Z
    ??0ChildPropertyProxy_Base@Gtk@@QEAA@AEBV01@@Z
    ?signal_changed@ChildPropertyProxy_Base@Gtk@@QEAA?AVSignalProxyChildProperty@2@XZ
    ?set_property_@ChildPropertyProxy_Base@Gtk@@IEAAXAEBVValueBase@Glib@@@Z
    ?get_property_@ChildPropertyProxy_Base@Gtk@@IEBAXAEAVValueBase@Glib@@@Z
    ?reset_property_@ChildPropertyProxy_Base@Gtk@@IEAAXXZ
    ??_C@_0P@JMNNEPDH@child?9notify?3?3?$AA@
    ??_C@_0BA@DPOEOKJN@pParamSpec?5?$CB?$DN?50?$AA@
    ??_C@_0CO@BPFMIMNO@Gtk?3?3ChildPropertyProxy_Base?3?3re@
    ?clipboard_class_@Clipboard@Gtk@@0VClipboard_Class@2@A
    ??_C@_0N@JKKFOBJL@owner_change?$AA@
    ?__empty_global_delete@@YAXPEAX@Z
    ?__empty_global_delete@@YAXPEAX_K@Z
    ??3@YAXPEAX0@Z
    ?allocate@?$allocator@D@std@@QEAAPEAD_K@Z
    ?deallocate@?$_Wrap_alloc@V?$allocator@D@std@@@std@@QEAAXPEAD_K@Z
    ??4?$basic_string@DU?$char_traits@D@std@@V?$allocator@D@2@@std@@QEAAAEAV01@$$QEAV01@@Z
    ?_Assign_rv@?$basic_string@DU?$char_traits@D@std@@V?$allocator@D@2@@std@@QEAAX$$QEAV12@@Z
    ??1?$basic_string@DU?$char_traits@D@std@@V?$allocator@D@2@@std@@QEAA@XZ
    ?assign@?$basic_string@DU?$char_traits@D@std@@V?$allocator@D@2@@std@@QEAAAEAV12@AEBV12@_K1@Z
    ?assign@?$basic_string@DU?$char_traits@D@std@@V?$allocator@D@2@@std@@QEAAAEAV12@PEBD_K@Z
    ?erase@?$basic_string@DU?$char_traits@D@std@@V?$allocator@D@2@@std@@QEAAAEAV12@_K0@Z
    ?_Copy@?$basic_string@DU?$char_traits@D@std@@V?$allocator@D@2@@std@@QEAAX_K0@Z
    ??Bustring@Glib@@QEBA?AV?$basic_string@DU?$char_traits@D@std@@V?$allocator@D@2@@std@@XZ
    ?to_cpp_type@?$TypeTraits@Vustring@Glib@@@Container_Helpers@Glib@@SA?AVustring@3@PEBD@Z
    ?convert_return_gchar_ptr_to_ustring@Glib@@YA?AVustring@1@PEAD@Z
    ??1?$ScopedPtr@D@Glib@@QEAA@XZ
    ??0Clipboard@Gtk@@IEAA@AEBVConstructParams@Glib@@@Z
    ??0Clipboard@Gtk@@IEAA@PEAU_GtkClipboard@@@Z
    ??1Clipboard@Gtk@@UEAA@XZ
    ?get_type@Clipboard@Gtk@@SA_KXZ
    ?get_base_type@Clipboard@Gtk@@SA_KXZ
    ?gobj_copy@Clipboard@Gtk@@QEAAPEAU_GtkClipboard@@XZ
    ?get@Clipboard@Gtk@@SA?AV?$RefPtr@VClipboard@Gtk@@@Glib@@PEAU_GdkAtom@@@Z
    ?get_for_display@Clipboard@Gtk@@SA?AV?$RefPtr@VClipboard@Gtk@@@Glib@@AEBV?$RefPtr@VDisplay@Gdk@@@4@PEAU_GdkAtom@@@Z
    ?get_display@Clipboard@Gtk@@QEAA?AV?$RefPtr@VDisplay@Gdk@@@Glib@@XZ
    ?get_display@Clipboard@Gtk@@QEBA?AV?$RefPtr@$$CBVDisplay@Gdk@@@Glib@@XZ
    ?set@Clipboard@Gtk@@QEAA_NAEBV?$vector@VTargetEntry@Gtk@@V?$allocator@VTargetEntry@Gtk@@@std@@@std@@AEBV?$slot@XAEAVSelectionData@Gtk@@IUnil@sigc@@U34@U34@U34@U34@@sigc@@AEBV?$slot@XUnil@sigc@@U12@U12@U12@U12@U12@U12@@6@@Z
    ?get_owner@Clipboard@Gtk@@QEAA?AV?$RefPtr@VObject@Glib@@@Glib@@XZ
    ?get_owner@Clipboard@Gtk@@QEBA?AV?$RefPtr@$$CBVObject@Glib@@@Glib@@XZ
    ?clear@Clipboard@Gtk@@QEAAXXZ
    ?set_text@Clipboard@Gtk@@QEAAXAEBVustring@Glib@@@Z
    ?set_image@Clipboard@Gtk@@QEAAXAEBV?$RefPtr@VPixbuf@Gdk@@@Glib@@@Z
    ?request_contents@Clipboard@Gtk@@QEAAXAEBVustring@Glib@@AEBV?$slot@XAEBVSelectionData@Gtk@@Unil@sigc@@U34@U34@U34@U34@U34@@sigc@@@Z
    ?request_text@Clipboard@Gtk@@QEAAXAEBV?$slot@XAEBVustring@Glib@@Unil@sigc@@U34@U34@U34@U34@U34@@sigc@@@Z
    ?request_rich_text@Clipboard@Gtk@@QEAAXAEBV?$RefPtr@VTextBuffer@Gtk@@@Glib@@AEBV?$slot@XAEBVustring@Glib@@AEBV?$basic_string@DU?$char_traits@D@std@@V?$allocator@D@2@@std@@Unil@sigc@@U56@U56@U56@U56@@sigc@@@Z
    ?request_uris@Clipboard@Gtk@@QEAAXAEBV?$slot@XAEBV?$vector@Vustring@Glib@@V?$allocator@Vustring@Glib@@@std@@@std@@Unil@sigc@@U34@U34@U34@U34@U34@@sigc@@@Z
    ?request_image@Clipboard@Gtk@@QEAAXAEBV?$slot@XAEBV?$RefPtr@VPixbuf@Gdk@@@Glib@@Unil@sigc@@U34@U34@U34@U34@U34@@sigc@@@Z
    ?request_targets@Clipboard@Gtk@@QEAAXAEBV?$slot@XAEBV?$vector@Vustring@Glib@@V?$allocator@Vustring@Glib@@@std@@@std@@Unil@sigc@@U34@U34@U34@U34@U34@@sigc@@@Z
    ?wait_for_contents@Clipboard@Gtk@@QEBA?AVSelectionData@2@AEBVustring@Glib@@@Z
    ?wait_for_text@Clipboard@Gtk@@QEBA?AVustring@Glib@@XZ
    ?wait_for_rich_text@Clipboard@Gtk@@QEAA?AV?$basic_string@DU?$char_traits@D@std@@V?$allocator@D@2@@std@@AEBV?$RefPtr@VTextBuffer@Gtk@@@Glib@@AEAV34@@Z
    ?wait_for_image@Clipboard@Gtk@@QEBA?AV?$RefPtr@VPixbuf@Gdk@@@Glib@@XZ
    ?wait_is_text_available@Clipboard@Gtk@@QEBA_NXZ
    ?wait_is_rich_text_available@Clipboard@Gtk@@QEBA_NAEBV?$RefPtr@VTextBuffer@Gtk@@@Glib@@@Z
    ?wait_is_image_available@Clipboard@Gtk@@QEBA_NXZ
    ?wait_is_uris_available@Clipboard@Gtk@@QEBA_NXZ
    ?wait_is_target_available@Clipboard@Gtk@@QEAA_NAEBVustring@Glib@@@Z
    ?wait_for_targets@Clipboard@Gtk@@QEBA?AV?$vector@Vustring@Glib@@V?$allocator@Vustring@Glib@@@std@@@std@@XZ
    ?wait_for_uris@Clipboard@Gtk@@QEBA?AV?$vector@Vustring@Glib@@V?$allocator@Vustring@Glib@@@std@@@std@@XZ
    ?set_can_store@Clipboard@Gtk@@QEAAXAEBV?$vector@VTargetEntry@Gtk@@V?$allocator@VTargetEntry@Gtk@@@std@@@std@@@Z
    ?set_can_store@Clipboard@Gtk@@QEAAXXZ
    ?store@Clipboard@Gtk@@QEAAXXZ
    ?signal_owner_change@Clipboard@Gtk@@QEAA?AV?$SignalProxy1@XPEAU_GdkEventOwnerChange@@@Glib@@XZ
    ?wrap@Glib@@YA?AV?$RefPtr@VClipboard@Gtk@@@1@PEAU_GtkClipboard@@_N@Z
    ?init@Clipboard_Class@Gtk@@QEAAAEBVClass@Glib@@XZ
    ?class_init_function@Clipboard_Class@Gtk@@SAXPEAX0@Z
    ?wrap_new@Clipboard_Class@Gtk@@SAPEAVObjectBase@Glib@@PEAU_GObject@@@Z
    ??1?$slot@XAEAVSelectionData@Gtk@@IUnil@sigc@@U34@U34@U34@U34@@sigc@@QEAA@XZ
    ?array_to_vector@?$ArrayHandler@Vustring@Glib@@UAtomStringTraits@Gdk@@@Glib@@SA?AV?$vector@Vustring@Glib@@V?$allocator@Vustring@Glib@@@std@@@std@@PEBQEAU_GdkAtom@@_KW4OwnershipType@2@@Z
    ?deallocate@?$allocator@Vustring@Glib@@@std@@QEAAXPEAVustring@Glib@@_K@Z
    ?allocate@?$allocator@Vustring@Glib@@@std@@QEAAPEAVustring@Glib@@_K@Z
    ??1?$vector@Vustring@Glib@@V?$allocator@Vustring@Glib@@@std@@@std@@QEAA@XZ
    ?_Tidy@?$vector@Vustring@Glib@@V?$allocator@Vustring@Glib@@@std@@@std@@IEAAXXZ
    ?array_to_vector@?$ArrayHandler@Vustring@Glib@@U?$TypeTraits@Vustring@Glib@@@Container_Helpers@2@@Glib@@SA?AV?$vector@Vustring@Glib@@V?$allocator@Vustring@Glib@@@std@@@std@@PEBQEBD_KW4OwnershipType@2@@Z
    ?array_to_vector@?$ArrayHandler@Vustring@Glib@@U?$TypeTraits@Vustring@Glib@@@Container_Helpers@2@@Glib@@SA?AV?$vector@Vustring@Glib@@V?$allocator@Vustring@Glib@@@std@@@std@@PEBQEBDW4OwnershipType@2@@Z
    ??1?$RefPtr@VPixbuf@Gdk@@@Glib@@QEAA@XZ
    ?vector_to_array@?$ArrayHandler@VTargetEntry@Gtk@@UTargetEntryTraits@2@@Glib@@SA?AV?$ArrayKeeper@UTargetEntryTraits@Gtk@@@Container_Helpers@2@AEBV?$vector@VTargetEntry@Gtk@@V?$allocator@VTargetEntry@Gtk@@@std@@@std@@@Z
    ??1?$ArrayKeeper@UTargetEntryTraits@Gtk@@@Container_Helpers@Glib@@QEAA@XZ
    ??1?$RefPtr@VClipboard@Gtk@@@Glib@@QEAA@XZ
    ??1?$RefPtr@VDisplay@Gdk@@@Glib@@QEAA@XZ
    ??1?$RefPtr@$$CBVDisplay@Gdk@@@Glib@@QEAA@XZ
    ??1?$RefPtr@VObject@Glib@@@Glib@@QEAA@XZ
    ??1?$RefPtr@$$CBVObject@Glib@@@Glib@@QEAA@XZ
    ??1?$ArrayKeeper@UAtomStringTraits@Gdk@@@Container_Helpers@Glib@@QEAA@XZ
    ??D?$ArrayIterator@UAtomStringTraits@Gdk@@@Container_Helpers@Glib@@QEBA?AV?$basic_string@DU?$char_traits@D@std@@V?$allocator@D@2@@std@@XZ
    ??$create_array@UTargetEntryTraits@Gtk@@@Container_Helpers@Glib@@YAPEAU_GtkTargetEntry@@V?$_Vector_const_iterator@V?$_Vector_val@U?$_Simple_types@VTargetEntry@Gtk@@@std@@@std@@@std@@_K@Z
    ??1?$ArrayKeeper@U?$TypeTraits@Vustring@Glib@@@Container_Helpers@Glib@@@Container_Helpers@Glib@@QEAA@XZ
    ??D?$ArrayIterator@U?$TypeTraits@Vustring@Glib@@@Container_Helpers@Glib@@@Container_Helpers@Glib@@QEBA?AVustring@2@XZ
    ??$_Construct@V?$ArrayIterator@UAtomStringTraits@Gdk@@@Container_Helpers@Glib@@@?$vector@Vustring@Glib@@V?$allocator@Vustring@Glib@@@std@@@std@@QEAAXV?$ArrayIterator@UAtomStringTraits@Gdk@@@Container_Helpers@Glib@@0Uforward_iterator_tag@1@@Z
    ??$_Construct@V?$ArrayIterator@U?$TypeTraits@Vustring@Glib@@@Container_Helpers@Glib@@@Container_Helpers@Glib@@@?$vector@Vustring@Glib@@V?$allocator@Vustring@Glib@@@std@@@std@@QEAAXV?$ArrayIterator@U?$TypeTraits@Vustring@Glib@@@Container_Helpers@Glib@@@Container_Helpers@Glib@@0Uforward_iterator_tag@1@@Z
    ??$_Uninit_copy@V?$ArrayIterator@UAtomStringTraits@Gdk@@@Container_Helpers@Glib@@PEAVustring@3@V?$allocator@Vustring@Glib@@@std@@@std@@YAPEAVustring@Glib@@V?$ArrayIterator@UAtomStringTraits@Gdk@@@Container_Helpers@2@0PEAV12@AEAU?$_Wrap_alloc@V?$allocator@Vustring@Glib@@@std@@@0@U_Nonscalar_ptr_iterator_tag@0@@Z
    ??$_Uninit_copy@V?$ArrayIterator@U?$TypeTraits@Vustring@Glib@@@Container_Helpers@Glib@@@Container_Helpers@Glib@@PEAVustring@3@V?$allocator@Vustring@Glib@@@std@@@std@@YAPEAVustring@Glib@@V?$ArrayIterator@U?$TypeTraits@Vustring@Glib@@@Container_Helpers@Glib@@@Container_Helpers@2@0PEAV12@AEAU?$_Wrap_alloc@V?$allocator@Vustring@Glib@@@std@@@0@U_Nonscalar_ptr_iterator_tag@0@@Z
    ??_7Clipboard@Gtk@@6B@
    ??_8Clipboard@Gtk@@7BObject@Glib@@@
    ??_8Clipboard@Gtk@@7BObjectBase@Glib@@@
    ??_R0?AVObjectBase@Glib@@@8
    ??_R0?AVClipboard@Gtk@@@8
    ??_C@_0BI@CFPLBAOH@invalid?5string?5position?$AA@
    ??_C@_0BA@JFNIOLAK@string?5too?5long?$AA@
    ??_C@_0BD@OLBABOEK@vector?$DMT?$DO?5too?5long?$AA@
    ??_R4Clipboard@Gtk@@6B@
    ??_R3Clipboard@Gtk@@8
    ??_R2Clipboard@Gtk@@8
    ??_R1A@?0A@EA@Clipboard@Gtk@@8
    ??_R1A@?0A@EA@Object@Glib@@8
    ??_R0?AVObject@Glib@@@8
    ??_R3Object@Glib@@8
    ??_R2Object@Glib@@8
    ??_R1A@A@7FA@ObjectBase@Glib@@8
    ??_R3ObjectBase@Glib@@8
    ??_R2ObjectBase@Glib@@8
    ??_R1A@?0A@EA@ObjectBase@Glib@@8
    ??_R1A@73FA@trackable@sigc@@8
    ??_R0?AUtrackable@sigc@@@8
    ??_R3trackable@sigc@@8
    ??_R2trackable@sigc@@8
    ??_R1A@?0A@EA@trackable@sigc@@8
    ??_R1A@A@3FA@trackable@sigc@@8
    ??_C@_09FMLLBCED@color?9set?$AA@
    ?colorbutton_class_@ColorButton@Gtk@@0VColorButton_Class@2@A
    ?__empty_global_delete@@YAXPEAX@Z
    ?__empty_global_delete@@YAXPEAX_K@Z
    ?convert_const_gchar_ptr_to_ustring@Glib@@YA?AVustring@1@PEBD@Z
    ??1ColorButton@Gtk@@UEAA@XZ
    ??0ColorButton@Gtk@@IEAA@AEBVConstructParams@Glib@@@Z
    ??0ColorButton@Gtk@@IEAA@PEAU_GtkColorButton@@@Z
    ?get_type@ColorButton@Gtk@@SA_KXZ
    ?get_base_type@ColorButton@Gtk@@SA_KXZ
    ?on_color_set@ColorButton@Gtk@@MEAAXXZ
    ??0ColorButton@Gtk@@QEAA@XZ
    ??0ColorButton@Gtk@@QEAA@AEBVColor@Gdk@@@Z
    ??0ColorButton@Gtk@@QEAA@AEBVRGBA@Gdk@@@Z
    ?set_color@ColorButton@Gtk@@QEAAXAEBVColor@Gdk@@@Z
    ?set_alpha@ColorButton@Gtk@@QEAAXG@Z
    ?set_rgba@ColorButton@Gtk@@QEAAXAEBVRGBA@Gdk@@@Z
    ?get_color@ColorButton@Gtk@@QEBA?AVColor@Gdk@@XZ
    ?get_rgba@ColorButton@Gtk@@QEBA?AVRGBA@Gdk@@XZ
    ?get_alpha@ColorButton@Gtk@@QEBAGXZ
    ?set_use_alpha@ColorButton@Gtk@@QEAAX_N@Z
    ?get_use_alpha@ColorButton@Gtk@@QEBA_NXZ
    ?set_title@ColorButton@Gtk@@QEAAXAEBVustring@Glib@@@Z
    ?get_title@ColorButton@Gtk@@QEBA?AVustring@Glib@@XZ
    ?property_use_alpha@ColorButton@Gtk@@QEAA?AV?$PropertyProxy@_N@Glib@@XZ
    ?property_use_alpha@ColorButton@Gtk@@QEBA?AV?$PropertyProxy_ReadOnly@_N@Glib@@XZ
    ?property_title@ColorButton@Gtk@@QEAA?AV?$PropertyProxy@Vustring@Glib@@@Glib@@XZ
    ?property_title@ColorButton@Gtk@@QEBA?AV?$PropertyProxy_ReadOnly@Vustring@Glib@@@Glib@@XZ
    ?property_color@ColorButton@Gtk@@QEAA?AV?$PropertyProxy@VColor@Gdk@@@Glib@@XZ
    ?property_color@ColorButton@Gtk@@QEBA?AV?$PropertyProxy_ReadOnly@VColor@Gdk@@@Glib@@XZ
    ?property_rgba@ColorButton@Gtk@@QEAA?AV?$PropertyProxy@VRGBA@Gdk@@@Glib@@XZ
    ?property_rgba@ColorButton@Gtk@@QEBA?AV?$PropertyProxy_ReadOnly@VRGBA@Gdk@@@Glib@@XZ
    ?property_alpha@ColorButton@Gtk@@QEAA?AV?$PropertyProxy@G@Glib@@XZ
    ?property_alpha@ColorButton@Gtk@@QEBA?AV?$PropertyProxy_ReadOnly@G@Glib@@XZ
    ?signal_color_set@ColorButton@Gtk@@QEAA?AV?$SignalProxy0@X@Glib@@XZ
    ??_DColorButton@Gtk@@QEAAXXZ
    ?wrap@Glib@@YAPEAVColorButton@Gtk@@PEAU_GtkColorButton@@_N@Z
    ?init@ColorButton_Class@Gtk@@QEAAAEBVClass@Glib@@XZ
    ?class_init_function@ColorButton_Class@Gtk@@SAXPEAX0@Z
    ?wrap_new@ColorButton_Class@Gtk@@SAPEAVObjectBase@Glib@@PEAU_GObject@@@Z
    ?color_set_callback@ColorButton_Class@Gtk@@KAXPEAU_GtkColorButton@@@Z
    ??$manage@VColorButton@Gtk@@@Gtk@@YAPEAVColorButton@0@PEAV10@@Z
    ?destroy_notify_@Object@Gtk@@$2PPPPPPPM@BI@EAAXXZ
    ?set_manage@Object@Gtk@@$4PPPPPPPM@BI@EAAXXZ
    ??_7ColorButton@Gtk@@6BWidget@1@@
    ??_7ColorButton@Gtk@@6BActivatable@1@@
    ??_7ColorButton@Gtk@@6BObject@1@@
    ??_8ColorButton@Gtk@@7BObject@Glib@@@
    ??_8ColorButton@Gtk@@7BInterface@Glib@@Bin@1@@
    ??_8ColorButton@Gtk@@7BInterface@Glib@@Activatable@1@@
    ??_8ColorButton@Gtk@@7BObjectBase@Glib@@@
    ??_C@_05PEENBMOG@color?$AA@
    ??_R0?AVObjectBase@Glib@@@8
    ??_R0?AVColorButton@Gtk@@@8
    ??_C@_04CLILDBFP@rgba?$AA@
    ??_C@_09DNCNPGJH@use?9alpha?$AA@
    ??_C@_05PHLGJONK@title?$AA@
    ??_C@_05IAEKHIAN@alpha?$AA@
    ??_R4ColorButton@Gtk@@6BWidget@1@@
    ??_R3ColorButton@Gtk@@8
    ??_R2ColorButton@Gtk@@8
    ??_R1A@?0A@EA@ColorButton@Gtk@@8
    ??_R1A@?0A@EA@Button@Gtk@@8
    ??_R0?AVButton@Gtk@@@8
    ??_R3Button@Gtk@@8
    ??_R2Button@Gtk@@8
    ??_R1A@?0A@EA@Bin@Gtk@@8
    ??_R0?AVBin@Gtk@@@8
    ??_R3Bin@Gtk@@8
    ??_R2Bin@Gtk@@8
    ??_R1A@?0A@EA@Container@Gtk@@8
    ??_R0?AVContainer@Gtk@@@8
    ??_R3Container@Gtk@@8
    ??_R2Container@Gtk@@8
    ??_R1A@?0A@EA@Widget@Gtk@@8
    ??_R0?AVWidget@Gtk@@@8
    ??_R3Widget@Gtk@@8
    ??_R2Widget@Gtk@@8
    ??_R17?0A@EA@Object@Gtk@@8
    ??_R0?AVObject@Gtk@@@8
    ??_R3Object@Gtk@@8
    ??_R2Object@Gtk@@8
    ??_R1A@?0A@EA@Object@Gtk@@8
    ??_R1A@?0A@EA@Object@Glib@@8
    ??_R0?AVObject@Glib@@@8
    ??_R3Object@Glib@@8
    ??_R2Object@Glib@@8
    ??_R1A@A@7FA@ObjectBase@Glib@@8
    ??_R3ObjectBase@Glib@@8
    ??_R2ObjectBase@Glib@@8
    ??_R1A@?0A@EA@ObjectBase@Glib@@8
    ??_R1A@73FA@trackable@sigc@@8
    ??_R0?AUtrackable@sigc@@@8
    ??_R3trackable@sigc@@8
    ??_R2trackable@sigc@@8
    ??_R1A@?0A@EA@trackable@sigc@@8
    ??_R1A@A@3FA@trackable@sigc@@8
    ??_R17?0A@EA@Object@Glib@@8
    ??_R1A@77FA@ObjectBase@Glib@@8
    ??_R1BI@?0A@EA@Buildable@Gtk@@8
    ??_R0?AVBuildable@Gtk@@@8
    ??_R3Buildable@Gtk@@8
    ??_R2Buildable@Gtk@@8
    ??_R1A@?0A@EA@Buildable@Gtk@@8
    ??_R1A@?0A@EA@Interface@Glib@@8
    ??_R0?AVInterface@Glib@@@8
    ??_R3Interface@Glib@@8
    ??_R2Interface@Glib@@8
    ??_R1BI@?0A@EA@Interface@Glib@@8
    ??_R1BI@?0A@EC@Interface@Glib@@8
    ??_R1CA@?0A@EA@Activatable@Gtk@@8
    ??_R0?AVActivatable@Gtk@@@8
    ??_R3Activatable@Gtk@@8
    ??_R2Activatable@Gtk@@8
    ??_R1A@?0A@EA@Activatable@Gtk@@8
    ??_R17?0A@EA@Interface@Glib@@8
    ??_R1CI@?0A@EC@Interface@Glib@@8
    ??_R4ColorButton@Gtk@@6BActivatable@1@@
    ??_R4ColorButton@Gtk@@6BObject@1@@
    ??_C@_0BA@KAKPKDIE@color?9activated?$AA@
    ?colorchooser_class_@ColorChooser@Gtk@@0VColorChooser_Class@2@A
    ?__empty_global_delete@@YAXPEAX@Z
    ?__empty_global_delete@@YAXPEAX_K@Z
    ??0ColorChooser@Gtk@@IEAA@XZ
    ??0ColorChooser@Gtk@@IEAA@AEBVInterface_Class@Glib@@@Z
    ??0ColorChooser@Gtk@@QEAA@PEAU_GtkColorChooser@@@Z
    ??1ColorChooser@Gtk@@UEAA@XZ
    ?add_interface@ColorChooser@Gtk@@SAX_K@Z
    ?get_type@ColorChooser@Gtk@@SA_KXZ
    ?get_base_type@ColorChooser@Gtk@@SA_KXZ
    ?get_rgba@ColorChooser@Gtk@@QEBA?AVRGBA@Gdk@@XZ
    ?set_rgba@ColorChooser@Gtk@@QEAAXAEBVRGBA@Gdk@@@Z
    ?get_use_alpha@ColorChooser@Gtk@@QEBA_NXZ
    ?set_use_alpha@ColorChooser@Gtk@@QEAAX_N@Z
    ?add_palette@ColorChooser@Gtk@@QEAAXW4Orientation@2@HAEBV?$vector@VRGBA@Gdk@@V?$allocator@VRGBA@Gdk@@@std@@@std@@@Z
    ?signal_color_activated@ColorChooser@Gtk@@QEAA?AV?$SignalProxy1@XAEBVRGBA@Gdk@@@Glib@@XZ
    ?property_rgba@ColorChooser@Gtk@@QEAA?AV?$PropertyProxy@VRGBA@Gdk@@@Glib@@XZ
    ?property_rgba@ColorChooser@Gtk@@QEBA?AV?$PropertyProxy_ReadOnly@VRGBA@Gdk@@@Glib@@XZ
    ?property_use_alpha@ColorChooser@Gtk@@QEAA?AV?$PropertyProxy@_N@Glib@@XZ
    ?property_use_alpha@ColorChooser@Gtk@@QEBA?AV?$PropertyProxy_ReadOnly@_N@Glib@@XZ
    ?on_color_activated@ColorChooser@Gtk@@MEAAXAEBVRGBA@Gdk@@@Z
    ?wrap@Glib@@YA?AV?$RefPtr@VColorChooser@Gtk@@@1@PEAU_GtkColorChooser@@_N@Z
    ?init@ColorChooser_Class@Gtk@@QEAAAEBVInterface_Class@Glib@@XZ
    ?iface_init_function@ColorChooser_Class@Gtk@@SAXPEAX0@Z
    ?wrap_new@ColorChooser_Class@Gtk@@SAPEAVObjectBase@Glib@@PEAU_GObject@@@Z
    ?color_activated_callback@ColorChooser_Class@Gtk@@KAXPEAU_GtkColorChooser@@PEBU_GdkRGBA@@@Z
    ?vector_to_array@?$ArrayHandler@VRGBA@Gdk@@URGBATraits@2@@Glib@@SA?AV?$ArrayKeeper@URGBATraits@Gdk@@@Container_Helpers@2@AEBV?$vector@VRGBA@Gdk@@V?$allocator@VRGBA@Gdk@@@std@@@std@@@Z
    ??1?$ArrayKeeper@URGBATraits@Gdk@@@Container_Helpers@Glib@@QEAA@XZ
    ??$wrap_auto_interface@VColorChooser@Gtk@@@Glib@@YAPEAVColorChooser@Gtk@@PEAU_GObject@@_N@Z
    ??$create_array@URGBATraits@Gdk@@@Container_Helpers@Glib@@YAPEAU_GdkRGBA@@V?$_Vector_const_iterator@V?$_Vector_val@U?$_Simple_types@VRGBA@Gdk@@@std@@@std@@@std@@_K@Z
    ??_7ColorChooser@Gtk@@6B01@@
    ??_7ColorChooser@Gtk@@6BInterface@Glib@@@
    ??_8ColorChooser@Gtk@@7BInterface@Glib@@@
    ??_8ColorChooser@Gtk@@7BObjectBase@Glib@@@
    ??_R0?AVObjectBase@Glib@@@8
    ??_R0?AVColorChooser@Gtk@@@8
    ??_C@_0L@IGFGCBFO@klass?5?$CB?$DN?50?$AA@
    ??_C@_0CN@BLFFEILO@Gtk?3?3ColorChooser_Class?3?3iface_i@
    ??_C@_0BN@EBILLLL@?4?4?2gtk?2gtkmm?2colorchooser?4cc?$AA@
    ??_C@_04CLILDBFP@rgba?$AA@
    ??_C@_09DNCNPGJH@use?9alpha?$AA@
    ??_C@_0FM@MEPOJGMK@Glib?3?3wrap_auto_interface?$CI?$CJ?3?5The@
    ??_R4ColorChooser@Gtk@@6B01@@
    ??_R3ColorChooser@Gtk@@8
    ??_R2ColorChooser@Gtk@@8
    ??_R1A@?0A@EA@ColorChooser@Gtk@@8
    ??_R17?0A@EA@Interface@Glib@@8
    ??_R0?AVInterface@Glib@@@8
    ??_R3Interface@Glib@@8
    ??_R2Interface@Glib@@8
    ??_R1A@?0A@EA@Interface@Glib@@8
    ??_R1A@A@7FA@ObjectBase@Glib@@8
    ??_R3ObjectBase@Glib@@8
    ??_R2ObjectBase@Glib@@8
    ??_R1A@?0A@EA@ObjectBase@Glib@@8
    ??_R1A@73FA@trackable@sigc@@8
    ??_R0?AUtrackable@sigc@@@8
    ??_R3trackable@sigc@@8
    ??_R2trackable@sigc@@8
    ??_R1A@?0A@EA@trackable@sigc@@8
    ??_R1A@A@3FA@trackable@sigc@@8
    ??_R1A@77FA@ObjectBase@Glib@@8
    ??_R4ColorChooser@Gtk@@6BInterface@Glib@@@
    ?colorchooserdialog_class_@ColorChooserDialog@Gtk@@0VColorChooserDialog_Class@2@A
    ?__empty_global_delete@@YAXPEAX@Z
    ?__empty_global_delete@@YAXPEAX_K@Z
    ??1ColorChooserDialog@Gtk@@UEAA@XZ
    ??0ColorChooserDialog@Gtk@@IEAA@AEBVConstructParams@Glib@@@Z
    ??0ColorChooserDialog@Gtk@@IEAA@PEAU_GtkColorChooserDialog@@@Z
    ?get_type@ColorChooserDialog@Gtk@@SA_KXZ
    ?get_base_type@ColorChooserDialog@Gtk@@SA_KXZ
    ??0ColorChooserDialog@Gtk@@QEAA@XZ
    ??0ColorChooserDialog@Gtk@@QEAA@AEBVustring@Glib@@@Z
    ??0ColorChooserDialog@Gtk@@QEAA@AEBVustring@Glib@@AEAVWindow@1@@Z
    ?property_show_editor@ColorChooserDialog@Gtk@@QEAA?AV?$PropertyProxy@_N@Glib@@XZ
    ?property_show_editor@ColorChooserDialog@Gtk@@QEBA?AV?$PropertyProxy_ReadOnly@_N@Glib@@XZ
    ?wrap@Glib@@YAPEAVColorChooserDialog@Gtk@@PEAU_GtkColorChooserDialog@@_N@Z
    ?init@ColorChooserDialog_Class@Gtk@@QEAAAEBVClass@Glib@@XZ
    ?class_init_function@ColorChooserDialog_Class@Gtk@@SAXPEAX0@Z
    ?wrap_new@ColorChooserDialog_Class@Gtk@@SAPEAVObjectBase@Glib@@PEAU_GObject@@@Z
    ?destroy_notify_@Object@Gtk@@$2PPPPPPPM@CA@EAAXXZ
    ?set_manage@Window@Gtk@@$4PPPPPPPM@BA@EAAXXZ
    ??_7ColorChooserDialog@Gtk@@6BWidget@1@@
    ??_7ColorChooserDialog@Gtk@@6BColorChooser@1@@
    ??_7ColorChooserDialog@Gtk@@6BObject@1@@
    ??_8ColorChooserDialog@Gtk@@7BObject@Glib@@@
    ??_8ColorChooserDialog@Gtk@@7BInterface@Glib@@Dialog@1@@
    ??_8ColorChooserDialog@Gtk@@7BInterface@Glib@@ColorChooser@1@@
    ??_8ColorChooserDialog@Gtk@@7BObjectBase@Glib@@@
    ??_C@_05PHLGJONK@title?$AA@
    ??_R0?AVObjectBase@Glib@@@8
    ??_R0?AVColorChooserDialog@Gtk@@@8
    ??_C@_06MLKDMCBD@parent?$AA@
    ??_C@_0M@IPKCAABP@show?9editor?$AA@
    ??_R4ColorChooserDialog@Gtk@@6BWidget@1@@
    ??_R3ColorChooserDialog@Gtk@@8
    ??_R2ColorChooserDialog@Gtk@@8
    ??_R1A@?0A@EA@ColorChooserDialog@Gtk@@8
    ??_R1A@?0A@EA@Dialog@Gtk@@8
    ??_R0?AVDialog@Gtk@@@8
    ??_R3Dialog@Gtk@@8
    ??_R2Dialog@Gtk@@8
    ??_R1A@?0A@EA@Window@Gtk@@8
    ??_R0?AVWindow@Gtk@@@8
    ??_R3Window@Gtk@@8
    ??_R2Window@Gtk@@8
    ??_R1A@?0A@EA@Bin@Gtk@@8
    ??_R0?AVBin@Gtk@@@8
    ??_R3Bin@Gtk@@8
    ??_R2Bin@Gtk@@8
    ??_R1A@?0A@EA@Container@Gtk@@8
    ??_R0?AVContainer@Gtk@@@8
    ??_R3Container@Gtk@@8
    ??_R2Container@Gtk@@8
    ??_R1A@?0A@EA@Widget@Gtk@@8
    ??_R0?AVWidget@Gtk@@@8
    ??_R3Widget@Gtk@@8
    ??_R2Widget@Gtk@@8
    ??_R17?0A@EA@Object@Gtk@@8
    ??_R0?AVObject@Gtk@@@8
    ??_R3Object@Gtk@@8
    ??_R2Object@Gtk@@8
    ??_R1A@?0A@EA@Object@Gtk@@8
    ??_R1A@?0A@EA@Object@Glib@@8
    ??_R0?AVObject@Glib@@@8
    ??_R3Object@Glib@@8
    ??_R2Object@Glib@@8
    ??_R1A@A@7FA@ObjectBase@Glib@@8
    ??_R3ObjectBase@Glib@@8
    ??_R2ObjectBase@Glib@@8
    ??_R1A@?0A@EA@ObjectBase@Glib@@8
    ??_R1A@73FA@trackable@sigc@@8
    ??_R0?AUtrackable@sigc@@@8
    ??_R3trackable@sigc@@8
    ??_R2trackable@sigc@@8
    ??_R1A@?0A@EA@trackable@sigc@@8
    ??_R1A@A@3FA@trackable@sigc@@8
    ??_R17?0A@EA@Object@Glib@@8
    ??_R1A@77FA@ObjectBase@Glib@@8
    ??_R1BI@?0A@EA@Buildable@Gtk@@8
    ??_R0?AVBuildable@Gtk@@@8
    ??_R3Buildable@Gtk@@8
    ??_R2Buildable@Gtk@@8
    ??_R1A@?0A@EA@Buildable@Gtk@@8
    ??_R1A@?0A@EA@Interface@Glib@@8
    ??_R0?AVInterface@Glib@@@8
    ??_R3Interface@Glib@@8
    ??_R2Interface@Glib@@8
    ??_R1BI@?0A@EA@Interface@Glib@@8
    ??_R1BI@?0A@EC@Interface@Glib@@8
    ??_R1CI@?0A@EA@ColorChooser@Gtk@@8
    ??_R0?AVColorChooser@Gtk@@@8
    ??_R3ColorChooser@Gtk@@8
    ??_R2ColorChooser@Gtk@@8
    ??_R1A@?0A@EA@ColorChooser@Gtk@@8
    ??_R17?0A@EA@Interface@Glib@@8
    ??_R1DA@?0A@EC@Interface@Glib@@8
    ??_R4ColorChooserDialog@Gtk@@6BColorChooser@1@@
    ??_R4ColorChooserDialog@Gtk@@6BObject@1@@
    ??_C@_0O@KMLDGDAP@color_changed?$AA@
    ?colorselection_class_@ColorSelection@Gtk@@0VColorSelection_Class@2@A
    ?colorselectiondialog_class_@ColorSelectionDialog@Gtk@@0VColorSelectionDialog_Class@2@A
    ?__empty_global_delete@@YAXPEAX@Z
    ?__empty_global_delete@@YAXPEAX_K@Z
    ??3@YAXPEAX0@Z
    ??1?$ScopedPtr@D@Glib@@QEAA@XZ
    ?to_cpp_type@ColorTraits@Gdk@@SA?AVColor@2@AEBU_GdkColor@@@Z
    ??1ColorSelection@Gtk@@UEAA@XZ
    ??0ColorSelection@Gtk@@IEAA@AEBVConstructParams@Glib@@@Z
    ??0ColorSelection@Gtk@@IEAA@PEAU_GtkColorSelection@@@Z
    ?get_type@ColorSelection@Gtk@@SA_KXZ
    ?get_base_type@ColorSelection@Gtk@@SA_KXZ
    ?on_color_changed@ColorSelection@Gtk@@MEAAXXZ
    ??0ColorSelection@Gtk@@QEAA@XZ
    ?get_has_opacity_control@ColorSelection@Gtk@@QEBA_NXZ
    ?set_has_opacity_control@ColorSelection@Gtk@@QEAAX_N@Z
    ?get_has_palette@ColorSelection@Gtk@@QEBA_NXZ
    ?set_has_palette@ColorSelection@Gtk@@QEAAX_N@Z
    ?set_current_color@ColorSelection@Gtk@@QEAAXAEBVColor@Gdk@@@Z
    ?set_current_alpha@ColorSelection@Gtk@@QEAAXG@Z
    ?get_current_color@ColorSelection@Gtk@@QEBA?AVColor@Gdk@@XZ
    ?get_current_alpha@ColorSelection@Gtk@@QEBAGXZ
    ?set_previous_color@ColorSelection@Gtk@@QEAAXAEBVColor@Gdk@@@Z
    ?set_previous_alpha@ColorSelection@Gtk@@QEAAXG@Z
    ?get_previous_color@ColorSelection@Gtk@@QEBA?AVColor@Gdk@@XZ
    ?get_previous_alpha@ColorSelection@Gtk@@QEBAGXZ
    ?get_current_rgba@ColorSelection@Gtk@@QEBA?AVRGBA@Gdk@@XZ
    ?get_previous_rgba@ColorSelection@Gtk@@QEBA?AVRGBA@Gdk@@XZ
    ?set_current_rgba@ColorSelection@Gtk@@QEAAXAEBVRGBA@Gdk@@@Z
    ?set_previous_rgba@ColorSelection@Gtk@@QEAAXAEBVRGBA@Gdk@@@Z
    ?is_adjusting@ColorSelection@Gtk@@QEBA_NXZ
    ?palette_from_string@ColorSelection@Gtk@@SA?AV?$vector@VColor@Gdk@@V?$allocator@VColor@Gdk@@@std@@@std@@AEBVustring@Glib@@@Z
    ?palette_to_string@ColorSelection@Gtk@@SA?AVustring@Glib@@AEBV?$vector@VColor@Gdk@@V?$allocator@VColor@Gdk@@@std@@@std@@@Z
    ?set_change_palette_hook@ColorSelection@Gtk@@SA?AV?$slot@XAEBV?$RefPtr@VScreen@Gdk@@@Glib@@AEBV?$vector@VColor@Gdk@@V?$allocator@VColor@Gdk@@@std@@@std@@Unil@sigc@@U56@U56@U56@U56@@sigc@@AEBV34@@Z
    ?signal_color_changed@ColorSelection@Gtk@@QEAA?AV?$SignalProxy0@X@Glib@@XZ
    ?property_has_palette@ColorSelection@Gtk@@QEAA?AV?$PropertyProxy@_N@Glib@@XZ
    ?property_has_palette@ColorSelection@Gtk@@QEBA?AV?$PropertyProxy_ReadOnly@_N@Glib@@XZ
    ?property_has_opacity_control@ColorSelection@Gtk@@QEAA?AV?$PropertyProxy@_N@Glib@@XZ
    ?property_has_opacity_control@ColorSelection@Gtk@@QEBA?AV?$PropertyProxy_ReadOnly@_N@Glib@@XZ
    ?property_current_color@ColorSelection@Gtk@@QEAA?AV?$PropertyProxy@VColor@Gdk@@@Glib@@XZ
    ?property_current_color@ColorSelection@Gtk@@QEBA?AV?$PropertyProxy_ReadOnly@VColor@Gdk@@@Glib@@XZ
    ?property_current_alpha@ColorSelection@Gtk@@QEAA?AV?$PropertyProxy@I@Glib@@XZ
    ?property_current_alpha@ColorSelection@Gtk@@QEBA?AV?$PropertyProxy_ReadOnly@I@Glib@@XZ
    ??_DColorSelection@Gtk@@QEAAXXZ
    ??1ColorSelectionDialog@Gtk@@UEAA@XZ
    ??0ColorSelectionDialog@Gtk@@IEAA@AEBVConstructParams@Glib@@@Z
    ??0ColorSelectionDialog@Gtk@@IEAA@PEAU_GtkColorSelectionDialog@@@Z
    ?get_type@ColorSelectionDialog@Gtk@@SA_KXZ
    ?get_base_type@ColorSelectionDialog@Gtk@@SA_KXZ
    ??0ColorSelectionDialog@Gtk@@QEAA@XZ
    ??0ColorSelectionDialog@Gtk@@QEAA@AEBVustring@Glib@@@Z
    ?get_color_selection@ColorSelectionDialog@Gtk@@QEAAPEAVColorSelection@2@XZ
    ?get_color_selection@ColorSelectionDialog@Gtk@@QEBAPEBVColorSelection@2@XZ
    ?property_color_selection@ColorSelectionDialog@Gtk@@QEBA?AV?$PropertyProxy_ReadOnly@PEAVColorSelection@Gtk@@@Glib@@XZ
    ?property_ok_button@ColorSelectionDialog@Gtk@@QEBA?AV?$PropertyProxy_ReadOnly@PEAVButton@Gtk@@@Glib@@XZ
    ?property_cancel_button@ColorSelectionDialog@Gtk@@QEBA?AV?$PropertyProxy_ReadOnly@PEAVButton@Gtk@@@Glib@@XZ
    ?property_help_button@ColorSelectionDialog@Gtk@@QEBA?AV?$PropertyProxy_ReadOnly@PEAVButton@Gtk@@@Glib@@XZ
    ??_DColorSelectionDialog@Gtk@@QEAAXXZ
    ?wrap@Glib@@YAPEAVColorSelection@Gtk@@PEAU_GtkColorSelection@@_N@Z
    ?wrap@Glib@@YAPEAVColorSelectionDialog@Gtk@@PEAU_GtkColorSelectionDialog@@_N@Z
    ?init@ColorSelection_Class@Gtk@@QEAAAEBVClass@Glib@@XZ
    ?class_init_function@ColorSelection_Class@Gtk@@SAXPEAX0@Z
    ?wrap_new@ColorSelection_Class@Gtk@@SAPEAVObjectBase@Glib@@PEAU_GObject@@@Z
    ?color_changed_callback@ColorSelection_Class@Gtk@@KAXPEAU_GtkColorSelection@@@Z
    ?init@ColorSelectionDialog_Class@Gtk@@QEAAAEBVClass@Glib@@XZ
    ?class_init_function@ColorSelectionDialog_Class@Gtk@@SAXPEAX0@Z
    ?wrap_new@ColorSelectionDialog_Class@Gtk@@SAPEAVObjectBase@Glib@@PEAU_GObject@@@Z
    ??1?$RefPtr@VScreen@Gdk@@@Glib@@QEAA@XZ
    ?array_to_vector@?$ArrayHandler@VColor@Gdk@@UColorTraits@2@@Glib@@SA?AV?$vector@VColor@Gdk@@V?$allocator@VColor@Gdk@@@std@@@std@@PEBU_GdkColor@@_KW4OwnershipType@2@@Z
    ?vector_to_array@?$ArrayHandler@VColor@Gdk@@UColorTraits@2@@Glib@@SA?AV?$ArrayKeeper@UColorTraits@Gdk@@@Container_Helpers@2@AEBV?$vector@VColor@Gdk@@V?$allocator@VColor@Gdk@@@std@@@std@@@Z
    ?allocate@?$allocator@VColor@Gdk@@@std@@QEAAPEAVColor@Gdk@@_K@Z
    ??1?$vector@VColor@Gdk@@V?$allocator@VColor@Gdk@@@std@@@std@@QEAA@XZ
    ?_Tidy@?$vector@VColor@Gdk@@V?$allocator@VColor@Gdk@@@std@@@std@@IEAAXXZ
    ??1?$slot@XAEBV?$RefPtr@VScreen@Gdk@@@Glib@@AEBV?$vector@VColor@Gdk@@V?$allocator@VColor@Gdk@@@std@@@std@@Unil@sigc@@U56@U56@U56@U56@@sigc@@QEAA@XZ
    ??1?$ArrayKeeper@UColorTraits@Gdk@@@Container_Helpers@Glib@@QEAA@XZ
    ??R?$pointer_functor3@AEBV?$RefPtr@VScreen@Gdk@@@Glib@@AEBV?$vector@VColor@Gdk@@V?$allocator@VColor@Gdk@@@std@@@std@@P6AXPEAU_GdkScreen@@PEBU_GdkColor@@H@ZX@sigc@@QEBAXAEBV?$RefPtr@VScreen@Gdk@@@Glib@@AEBV?$vector@VColor@Gdk@@V?$allocator@VColor@Gdk@@@std@@@std@@AEBQ6AXPEAU_GdkScreen@@PEBU_GdkColor@@H@Z@Z
    ??$manage@VColorSelection@Gtk@@@Gtk@@YAPEAVColorSelection@0@PEAV10@@Z
    ??$_Deallocate@VColor@Gdk@@@std@@YAXPEAVColor@Gdk@@_K@Z
    ??D?$ArrayIterator@UColorTraits@Gdk@@@Container_Helpers@Glib@@QEBA?AVColor@Gdk@@XZ
    ??$create_array@UColorTraits@Gdk@@@Container_Helpers@Glib@@YAPEAU_GdkColor@@V?$_Vector_const_iterator@V?$_Vector_val@U?$_Simple_types@VColor@Gdk@@@std@@@std@@@std@@_K@Z
    ?destroy@?$typed_slot_rep@U?$bind_functor@$0?0V?$pointer_functor3@AEBV?$RefPtr@VScreen@Gdk@@@Glib@@AEBV?$vector@VColor@Gdk@@V?$allocator@VColor@Gdk@@@std@@@std@@P6AXPEAU_GdkScreen@@PEBU_GdkColor@@H@ZX@sigc@@P6AXPEAU_GdkScreen@@PEBU_GdkColor@@H@ZUnil@2@U52@U52@U52@U52@U52@@sigc@@@internal@sigc@@SAPEAXPEAX@Z
    ?dup@?$typed_slot_rep@U?$bind_functor@$0?0V?$pointer_functor3@AEBV?$RefPtr@VScreen@Gdk@@@Glib@@AEBV?$vector@VColor@Gdk@@V?$allocator@VColor@Gdk@@@std@@@std@@P6AXPEAU_GdkScreen@@PEBU_GdkColor@@H@ZX@sigc@@P6AXPEAU_GdkScreen@@PEBU_GdkColor@@H@ZUnil@2@U52@U52@U52@U52@U52@@sigc@@@internal@sigc@@SAPEAXPEAX@Z
    ?call_it@?$slot_call2@U?$bind_functor@$0?0V?$pointer_functor3@AEBV?$RefPtr@VScreen@Gdk@@@Glib@@AEBV?$vector@VColor@Gdk@@V?$allocator@VColor@Gdk@@@std@@@std@@P6AXPEAU_GdkScreen@@PEBU_GdkColor@@H@ZX@sigc@@P6AXPEAU_GdkScreen@@PEBU_GdkColor@@H@ZUnil@2@U52@U52@U52@U52@U52@@sigc@@XAEBV?$RefPtr@VScreen@Gdk@@@Glib@@AEBV?$vector@VColor@Gdk@@V?$allocator@VColor@Gdk@@@std@@@std@@@internal@sigc@@SAXPEAUslot_rep@23@AEBV?$RefPtr@VScreen@Gdk@@@Glib@@AEBV?$vector@VColor@Gdk@@V?$allocator@VColor@Gdk@@@std@@@std@@@Z
    ??$visit_each_type@PEAUtrackable@sigc@@Uslot_do_bind@internal@2@U?$bind_functor@$0?0V?$pointer_functor3@AEBV?$RefPtr@VScreen@Gdk@@@Glib@@AEBV?$vector@VColor@Gdk@@V?$allocator@VColor@Gdk@@@std@@@std@@P6AXPEAU_GdkScreen@@PEBU_GdkColor@@H@ZX@sigc@@P6AXPEAU_GdkScreen@@PEBU_GdkColor@@H@ZUnil@2@U52@U52@U52@U52@U52@@2@@sigc@@YAXAEBUslot_do_bind@internal@0@AEBU?$bind_functor@$0?0V?$pointer_functor3@AEBV?$RefPtr@VScreen@Gdk@@@Glib@@AEBV?$vector@VColor@Gdk@@V?$allocator@VColor@Gdk@@@std@@@std@@P6AXPEAU_GdkScreen@@PEBU_GdkColor@@H@ZX@sigc@@P6AXPEAU_GdkScreen@@PEBU_GdkColor@@H@ZUnil@2@U52@U52@U52@U52@U52@@0@@Z
    ??$visit_each_type@PEAUtrackable@sigc@@Uslot_do_unbind@internal@2@U?$bind_functor@$0?0V?$pointer_functor3@AEBV?$RefPtr@VScreen@Gdk@@@Glib@@AEBV?$vector@VColor@Gdk@@V?$allocator@VColor@Gdk@@@std@@@std@@P6AXPEAU_GdkScreen@@PEBU_GdkColor@@H@ZX@sigc@@P6AXPEAU_GdkScreen@@PEBU_GdkColor@@H@ZUnil@2@U52@U52@U52@U52@U52@@2@@sigc@@YAXAEBUslot_do_unbind@internal@0@AEBU?$bind_functor@$0?0V?$pointer_functor3@AEBV?$RefPtr@VScreen@Gdk@@@Glib@@AEBV?$vector@VColor@Gdk@@V?$allocator@VColor@Gdk@@@std@@@std@@P6AXPEAU_GdkScreen@@PEBU_GdkColor@@H@ZX@sigc@@P6AXPEAU_GdkScreen@@PEBU_GdkColor@@H@ZUnil@2@U52@U52@U52@U52@U52@@0@@Z
    ??$_Construct@V?$ArrayIterator@UColorTraits@Gdk@@@Container_Helpers@Glib@@@?$vector@VColor@Gdk@@V?$allocator@VColor@Gdk@@@std@@@std@@QEAAXV?$ArrayIterator@UColorTraits@Gdk@@@Container_Helpers@Glib@@0Uforward_iterator_tag@1@@Z
    ??$visit_each@U?$limit_derived_target@PEAUtrackable@sigc@@Uslot_do_bind@internal@2@@internal@sigc@@U?$bind_functor@$0?0V?$pointer_functor3@AEBV?$RefPtr@VScreen@Gdk@@@Glib@@AEBV?$vector@VColor@Gdk@@V?$allocator@VColor@Gdk@@@std@@@std@@P6AXPEAU_GdkScreen@@PEBU_GdkColor@@H@ZX@sigc@@P6AXPEAU_GdkScreen@@PEBU_GdkColor@@H@ZUnil@2@U52@U52@U52@U52@U52@@3@@sigc@@YAXAEBU?$limit_derived_target@PEAUtrackable@sigc@@Uslot_do_bind@internal@2@@internal@0@AEBU?$bind_functor@$0?0V?$pointer_functor3@AEBV?$RefPtr@VScreen@Gdk@@@Glib@@AEBV?$vector@VColor@Gdk@@V?$allocator@VColor@Gdk@@@std@@@std@@P6AXPEAU_GdkScreen@@PEBU_GdkColor@@H@ZX@sigc@@P6AXPEAU_GdkScreen@@PEBU_GdkColor@@H@ZUnil@2@U52@U52@U52@U52@U52@@0@@Z
    ??$visit_each@U?$limit_derived_target@PEAUtrackable@sigc@@Uslot_do_unbind@internal@2@@internal@sigc@@U?$bind_functor@$0?0V?$pointer_functor3@AEBV?$RefPtr@VScreen@Gdk@@@Glib@@AEBV?$vector@VColor@Gdk@@V?$allocator@VColor@Gdk@@@std@@@std@@P6AXPEAU_GdkScreen@@PEBU_GdkColor@@H@ZX@sigc@@P6AXPEAU_GdkScreen@@PEBU_GdkColor@@H@ZUnil@2@U52@U52@U52@U52@U52@@3@@sigc@@YAXAEBU?$limit_derived_target@PEAUtrackable@sigc@@Uslot_do_unbind@internal@2@@internal@0@AEBU?$bind_functor@$0?0V?$pointer_functor3@AEBV?$RefPtr@VScreen@Gdk@@@Glib@@AEBV?$vector@VColor@Gdk@@V?$allocator@VColor@Gdk@@@std@@@std@@P6AXPEAU_GdkScreen@@PEBU_GdkColor@@H@ZX@sigc@@P6AXPEAU_GdkScreen@@PEBU_GdkColor@@H@ZUnil@2@U52@U52@U52@U52@U52@@0@@Z
    ??$visit_each@U?$limit_derived_target@PEAUtrackable@sigc@@Uslot_do_bind@internal@2@@internal@sigc@@U?$adaptor_functor@V?$pointer_functor3@AEBV?$RefPtr@VScreen@Gdk@@@Glib@@AEBV?$vector@VColor@Gdk@@V?$allocator@VColor@Gdk@@@std@@@std@@P6AXPEAU_GdkScreen@@PEBU_GdkColor@@H@ZX@sigc@@@3@@sigc@@YAXAEBU?$limit_derived_target@PEAUtrackable@sigc@@Uslot_do_bind@internal@2@@internal@0@AEBU?$adaptor_functor@V?$pointer_functor3@AEBV?$RefPtr@VScreen@Gdk@@@Glib@@AEBV?$vector@VColor@Gdk@@V?$allocator@VColor@Gdk@@@std@@@std@@P6AXPEAU_GdkScreen@@PEBU_GdkColor@@H@ZX@sigc@@@0@@Z
    ??$visit_each@U?$limit_derived_target@PEAUtrackable@sigc@@Uslot_do_bind@internal@2@@internal@sigc@@V?$bound_argument@P6AXPEAU_GdkScreen@@PEBU_GdkColor@@H@Z@3@@sigc@@YAXAEBU?$limit_derived_target@PEAUtrackable@sigc@@Uslot_do_bind@internal@2@@internal@0@AEBV?$bound_argument@P6AXPEAU_GdkScreen@@PEBU_GdkColor@@H@Z@0@@Z
    ??$visit_each@U?$limit_derived_target@PEAUtrackable@sigc@@Uslot_do_unbind@internal@2@@internal@sigc@@U?$adaptor_functor@V?$pointer_functor3@AEBV?$RefPtr@VScreen@Gdk@@@Glib@@AEBV?$vector@VColor@Gdk@@V?$allocator@VColor@Gdk@@@std@@@std@@P6AXPEAU_GdkScreen@@PEBU_GdkColor@@H@ZX@sigc@@@3@@sigc@@YAXAEBU?$limit_derived_target@PEAUtrackable@sigc@@Uslot_do_unbind@internal@2@@internal@0@AEBU?$adaptor_functor@V?$pointer_functor3@AEBV?$RefPtr@VScreen@Gdk@@@Glib@@AEBV?$vector@VColor@Gdk@@V?$allocator@VColor@Gdk@@@std@@@std@@P6AXPEAU_GdkScreen@@PEBU_GdkColor@@H@ZX@sigc@@@0@@Z
    ??$visit_each@U?$limit_derived_target@PEAUtrackable@sigc@@Uslot_do_unbind@internal@2@@internal@sigc@@V?$bound_argument@P6AXPEAU_GdkScreen@@PEBU_GdkColor@@H@Z@3@@sigc@@YAXAEBU?$limit_derived_target@PEAUtrackable@sigc@@Uslot_do_unbind@internal@2@@internal@0@AEBV?$bound_argument@P6AXPEAU_GdkScreen@@PEBU_GdkColor@@H@Z@0@@Z
    ??$_Uninit_copy@V?$ArrayIterator@UColorTraits@Gdk@@@Container_Helpers@Glib@@PEAVColor@Gdk@@V?$allocator@VColor@Gdk@@@std@@@std@@YAPEAVColor@Gdk@@V?$ArrayIterator@UColorTraits@Gdk@@@Container_Helpers@Glib@@0PEAV12@AEAU?$_Wrap_alloc@V?$allocator@VColor@Gdk@@@std@@@0@U_Nonscalar_ptr_iterator_tag@0@@Z
    ??$visit_each@U?$limit_derived_target@PEAUtrackable@sigc@@Uslot_do_bind@internal@2@@internal@sigc@@V?$pointer_functor3@AEBV?$RefPtr@VScreen@Gdk@@@Glib@@AEBV?$vector@VColor@Gdk@@V?$allocator@VColor@Gdk@@@std@@@std@@P6AXPEAU_GdkScreen@@PEBU_GdkColor@@H@ZX@3@@sigc@@YAXAEBU?$limit_derived_target@PEAUtrackable@sigc@@Uslot_do_bind@internal@2@@internal@0@AEBV?$pointer_functor3@AEBV?$RefPtr@VScreen@Gdk@@@Glib@@AEBV?$vector@VColor@Gdk@@V?$allocator@VColor@Gdk@@@std@@@std@@P6AXPEAU_GdkScreen@@PEBU_GdkColor@@H@ZX@0@@Z
    ??$visit_each@U?$limit_derived_target@PEAUtrackable@sigc@@Uslot_do_bind@internal@2@@internal@sigc@@P6AXPEAU_GdkScreen@@PEBU_GdkColor@@H@Z@sigc@@YAXAEBU?$limit_derived_target@PEAUtrackable@sigc@@Uslot_do_bind@internal@2@@internal@0@AEBQ6AXPEAU_GdkScreen@@PEBU_GdkColor@@H@Z@Z
    ??$visit_each@U?$limit_derived_target@PEAUtrackable@sigc@@Uslot_do_unbind@internal@2@@internal@sigc@@V?$pointer_functor3@AEBV?$RefPtr@VScreen@Gdk@@@Glib@@AEBV?$vector@VColor@Gdk@@V?$allocator@VColor@Gdk@@@std@@@std@@P6AXPEAU_GdkScreen@@PEBU_GdkColor@@H@ZX@3@@sigc@@YAXAEBU?$limit_derived_target@PEAUtrackable@sigc@@Uslot_do_unbind@internal@2@@internal@0@AEBV?$pointer_functor3@AEBV?$RefPtr@VScreen@Gdk@@@Glib@@AEBV?$vector@VColor@Gdk@@V?$allocator@VColor@Gdk@@@std@@@std@@P6AXPEAU_GdkScreen@@PEBU_GdkColor@@H@ZX@0@@Z
    ??$visit_each@U?$limit_derived_target@PEAUtrackable@sigc@@Uslot_do_unbind@internal@2@@internal@sigc@@P6AXPEAU_GdkScreen@@PEBU_GdkColor@@H@Z@sigc@@YAXAEBU?$limit_derived_target@PEAUtrackable@sigc@@Uslot_do_unbind@internal@2@@internal@0@AEBQ6AXPEAU_GdkScreen@@PEBU_GdkColor@@H@Z@Z
    ?destroy_notify_@Object@Gtk@@$2PPPPPPPM@BA@EAAXXZ
    ?set_manage@Object@Gtk@@$4PPPPPPPM@BA@EAAXXZ
    ?set_manage@Window@Gtk@@$4PPPPPPPM@A@EAAXXZ
    ??_7ColorSelection@Gtk@@6BWidget@1@@
    ??_7ColorSelection@Gtk@@6BObject@1@@
    ??_8ColorSelection@Gtk@@7BObject@Glib@@@
    ??_8ColorSelection@Gtk@@7BInterface@Glib@@Container@1@@
    ??_8ColorSelection@Gtk@@7BInterface@Glib@@Orientable@1@@
    ??_8ColorSelection@Gtk@@7BObjectBase@Glib@@@
    ??_7ColorSelectionDialog@Gtk@@6BWidget@1@@
    ??_7ColorSelectionDialog@Gtk@@6BObject@1@@
    ??_8ColorSelectionDialog@Gtk@@7BObject@Glib@@@
    ??_8ColorSelectionDialog@Gtk@@7BInterface@Glib@@@
    ??_8ColorSelectionDialog@Gtk@@7BObjectBase@Glib@@@
    ??_C@_0CA@KOFCCFNC@global_change_palette_hook?5?$CB?$DN?50?$AA@
    ??_C@_0DL@LNCCOPCA@?$GAanonymous?9namespace?8?3?3global_ch@
    ??_C@_09BLMANCDI@func?5?$CB?$DN?50?$AA@
    ??_C@_0DI@BGLNNPMP@?$GAanonymous?9namespace?8?3?3old_chang@
    ??_R0?AVObjectBase@Glib@@@8
    ??_R0?AVColorSelection@Gtk@@@8
    ??_C@_0M@FFLELIIJ@has?9palette?$AA@
    ??_C@_0BE@CGFFKHDL@has?9opacity?9control?$AA@
    ??_C@_0O@IIHDAHIK@current?9color?$AA@
    ??_C@_0O@PMHEGDGB@current?9alpha?$AA@
    ??_R0?AVColorSelectionDialog@Gtk@@@8
    ??_C@_05PHLGJONK@title?$AA@
    ??_C@_0BA@DGAAKCPF@color?9selection?$AA@
    ??_C@_09JHOANKME@ok?9button?$AA@
    ??_C@_0O@PNBONAHD@cancel?9button?$AA@
    ??_C@_0M@MFMADDPO@help?9button?$AA@
    ??_C@_0BD@OLBABOEK@vector?$DMT?$DO?5too?5long?$AA@
    ??_R4ColorSelection@Gtk@@6BWidget@1@@
    ??_R3ColorSelection@Gtk@@8
    ??_R2ColorSelection@Gtk@@8
    ??_R1A@?0A@EA@ColorSelection@Gtk@@8
    ??_R1A@?0A@EA@VBox@Gtk@@8
    ??_R0?AVVBox@Gtk@@@8
    ??_R3VBox@Gtk@@8
    ??_R2VBox@Gtk@@8
    ??_R1A@?0A@EA@Box@Gtk@@8
    ??_R0?AVBox@Gtk@@@8
    ??_R3Box@Gtk@@8
    ??_R2Box@Gtk@@8
    ??_R1A@?0A@EA@Container@Gtk@@8
    ??_R0?AVContainer@Gtk@@@8
    ??_R3Container@Gtk@@8
    ??_R2Container@Gtk@@8
    ??_R1A@?0A@EA@Widget@Gtk@@8
    ??_R0?AVWidget@Gtk@@@8
    ??_R3Widget@Gtk@@8
    ??_R2Widget@Gtk@@8
    ??_R17?0A@EA@Object@Gtk@@8
    ??_R0?AVObject@Gtk@@@8
    ??_R3Object@Gtk@@8
    ??_R2Object@Gtk@@8
    ??_R1A@?0A@EA@Object@Gtk@@8
    ??_R1A@?0A@EA@Object@Glib@@8
    ??_R0?AVObject@Glib@@@8
    ??_R3Object@Glib@@8
    ??_R2Object@Glib@@8
    ??_R1A@A@7FA@ObjectBase@Glib@@8
    ??_R3ObjectBase@Glib@@8
    ??_R2ObjectBase@Glib@@8
    ??_R1A@?0A@EA@ObjectBase@Glib@@8
    ??_R1A@73FA@trackable@sigc@@8
    ??_R0?AUtrackable@sigc@@@8
    ??_R3trackable@sigc@@8
    ??_R2trackable@sigc@@8
    ??_R1A@?0A@EA@trackable@sigc@@8
    ??_R1A@A@3FA@trackable@sigc@@8
    ??_R17?0A@EA@Object@Glib@@8
    ??_R1A@77FA@ObjectBase@Glib@@8
    ??_R1BI@?0A@EA@Buildable@Gtk@@8
    ??_R0?AVBuildable@Gtk@@@8
    ??_R3Buildable@Gtk@@8
    ??_R2Buildable@Gtk@@8
    ??_R1A@?0A@EA@Buildable@Gtk@@8
    ??_R1A@?0A@EA@Interface@Glib@@8
    ??_R0?AVInterface@Glib@@@8
    ??_R3Interface@Glib@@8
    ??_R2Interface@Glib@@8
    ??_R1BI@?0A@EA@Interface@Glib@@8
    ??_R1BI@?0A@EC@Interface@Glib@@8
    ??_R1CA@?0A@EA@Orientable@Gtk@@8
    ??_R0?AVOrientable@Gtk@@@8
    ??_R3Orientable@Gtk@@8
    ??_R2Orientable@Gtk@@8
    ??_R1A@?0A@EA@Orientable@Gtk@@8
    ??_R1CA@?0A@EC@Interface@Glib@@8
    ??_R4ColorSelection@Gtk@@6BObject@1@@
    ??_R4ColorSelectionDialog@Gtk@@6BWidget@1@@
    ??_R3ColorSelectionDialog@Gtk@@8
    ??_R2ColorSelectionDialog@Gtk@@8
    ??_R1A@?0A@EA@ColorSelectionDialog@Gtk@@8
    ??_R1A@?0A@EA@Dialog@Gtk@@8
    ??_R0?AVDialog@Gtk@@@8
    ??_R3Dialog@Gtk@@8
    ??_R2Dialog@Gtk@@8
    ??_R1A@?0A@EA@Window@Gtk@@8
    ??_R0?AVWindow@Gtk@@@8
    ??_R3Window@Gtk@@8
    ??_R2Window@Gtk@@8
    ??_R1A@?0A@EA@Bin@Gtk@@8
    ??_R0?AVBin@Gtk@@@8
    ??_R3Bin@Gtk@@8
    ??_R2Bin@Gtk@@8
    ??_R4ColorSelectionDialog@Gtk@@6BObject@1@@
    ?combobox_class_@ComboBox@Gtk@@0VComboBox_Class@2@A
    ??_C@_07HADGPIEN@changed?$AA@
    ??_C@_0BC@LBINGOML@format?9entry?9text?$AA@
    ?__empty_global_delete@@YAXPEAX@Z
    ?__empty_global_delete@@YAXPEAX_K@Z
    ?convert_const_gchar_ptr_to_ustring@Glib@@YA?AVustring@1@PEBD@Z
    ??1?$RefPtr@VTreeModel@Gtk@@@Glib@@QEAA@XZ
    ??1ComboBox@Gtk@@UEAA@XZ
    ??0ComboBox@Gtk@@IEAA@AEBVConstructParams@Glib@@@Z
    ??0ComboBox@Gtk@@IEAA@PEAU_GtkComboBox@@@Z
    ?get_type@ComboBox@Gtk@@SA_KXZ
    ?get_base_type@ComboBox@Gtk@@SA_KXZ
    ?on_changed@ComboBox@Gtk@@MEAAXXZ
    ??0ComboBox@Gtk@@QEAA@_N@Z
    ??0ComboBox@Gtk@@QEAA@AEBV?$RefPtr@VTreeModel@Gtk@@@Glib@@_N@Z
    ??0ComboBox@Gtk@@QEAA@AEBV?$RefPtr@VCellArea@Gtk@@@Glib@@_N@Z
    ?set_wrap_width@ComboBox@Gtk@@QEAAXH@Z
    ?get_wrap_width@ComboBox@Gtk@@QEBAHXZ
    ?set_row_span_column@ComboBox@Gtk@@QEAAXH@Z
    ?get_row_span_column@ComboBox@Gtk@@QEBAHXZ
    ?set_column_span_column@ComboBox@Gtk@@QEAAXH@Z
    ?get_column_span_column@ComboBox@Gtk@@QEBAHXZ
    ?get_add_tearoffs@ComboBox@Gtk@@QEBA_NXZ
    ?set_add_tearoffs@ComboBox@Gtk@@QEAAX_N@Z
    ?get_title@ComboBox@Gtk@@QEBA?AVustring@Glib@@XZ
    ?set_title@ComboBox@Gtk@@QEAAXAEBVustring@Glib@@@Z
    ?get_focus_on_click@ComboBox@Gtk@@QEBA_NXZ
    ?set_focus_on_click@ComboBox@Gtk@@QEAAX_N@Z
    ?get_active_row_number@ComboBox@Gtk@@QEBAHXZ
    ?get_active@ComboBox@Gtk@@QEAA?AVTreeIter@2@XZ
    ?get_active@ComboBox@Gtk@@QEBA?AVTreeIter@2@XZ
    ?set_active@ComboBox@Gtk@@QEAAXH@Z
    ?set_active@ComboBox@Gtk@@QEAAXAEBVTreeIter@2@@Z
    ?get_entry_text@ComboBox@Gtk@@QEBA?AVustring@Glib@@XZ
    ?unset_active@ComboBox@Gtk@@QEAAXXZ
    ?get_model@ComboBox@Gtk@@QEAA?AV?$RefPtr@VTreeModel@Gtk@@@Glib@@XZ
    ?get_model@ComboBox@Gtk@@QEBA?AV?$RefPtr@$$CBVTreeModel@Gtk@@@Glib@@XZ
    ?set_model@ComboBox@Gtk@@QEAAXAEBV?$RefPtr@VTreeModel@Gtk@@@Glib@@@Z
    ?unset_model@ComboBox@Gtk@@QEAAXXZ
    ?set_row_separator_func@ComboBox@Gtk@@QEAAXAEBV?$slot@_NAEBV?$RefPtr@VTreeModel@Gtk@@@Glib@@AEBVTreeIter@Gtk@@Unil@sigc@@U56@U56@U56@U56@@sigc@@@Z
    ?unset_row_separator_func@ComboBox@Gtk@@QEAAXXZ
    ?set_button_sensitivity@ComboBox@Gtk@@QEAAXW4SensitivityType@2@@Z
    ?get_button_sensitivity@ComboBox@Gtk@@QEBA?AW4SensitivityType@2@XZ
    ?get_has_entry@ComboBox@Gtk@@QEBA_NXZ
    ?set_entry_text_column@ComboBox@Gtk@@QEBAXAEBVTreeModelColumnBase@2@@Z
    ?set_entry_text_column@ComboBox@Gtk@@QEAAXH@Z
    ?get_entry_text_column@ComboBox@Gtk@@QEBAHXZ
    ?set_popup_fixed_width@ComboBox@Gtk@@QEAAX_N@Z
    ?get_popup_fixed_width@ComboBox@Gtk@@QEBA_NXZ
    ?popup@ComboBox@Gtk@@QEAAXXZ
    ?popup@ComboBox@Gtk@@QEAAXAEBV?$RefPtr@VDevice@Gdk@@@Glib@@@Z
    ?popdown@ComboBox@Gtk@@QEAAXXZ
    ?get_id_column@ComboBox@Gtk@@QEBAHXZ
    ?set_id_column@ComboBox@Gtk@@QEAAXH@Z
    ?get_active_id@ComboBox@Gtk@@QEBA?AVustring@Glib@@XZ
    ?get_active_id@ComboBox@Gtk@@QEAAXAEBVustring@Glib@@@Z
    ?set_active_id@ComboBox@Gtk@@QEAA_NAEBVustring@Glib@@@Z
    ?get_entry@ComboBox@Gtk@@QEAAPEAVEntry@2@XZ
    ?get_entry@ComboBox@Gtk@@QEBAPEBVEntry@2@XZ
    ?property_model@ComboBox@Gtk@@QEAA?AV?$PropertyProxy@V?$RefPtr@VTreeModel@Gtk@@@Glib@@@Glib@@XZ
    ?property_model@ComboBox@Gtk@@QEBA?AV?$PropertyProxy_ReadOnly@V?$RefPtr@VTreeModel@Gtk@@@Glib@@@Glib@@XZ
    ?property_wrap_width@ComboBox@Gtk@@QEAA?AV?$PropertyProxy@H@Glib@@XZ
    ?property_wrap_width@ComboBox@Gtk@@QEBA?AV?$PropertyProxy_ReadOnly@H@Glib@@XZ
    ?property_row_span_column@ComboBox@Gtk@@QEAA?AV?$PropertyProxy@H@Glib@@XZ
    ?property_row_span_column@ComboBox@Gtk@@QEBA?AV?$PropertyProxy_ReadOnly@H@Glib@@XZ
    ?property_column_span_column@ComboBox@Gtk@@QEAA?AV?$PropertyProxy@H@Glib@@XZ
    ?property_column_span_column@ComboBox@Gtk@@QEBA?AV?$PropertyProxy_ReadOnly@H@Glib@@XZ
    ?property_active@ComboBox@Gtk@@QEAA?AV?$PropertyProxy@H@Glib@@XZ
    ?property_active@ComboBox@Gtk@@QEBA?AV?$PropertyProxy_ReadOnly@H@Glib@@XZ
    ?property_add_tearoffs@ComboBox@Gtk@@QEAA?AV?$PropertyProxy@_N@Glib@@XZ
    ?property_add_tearoffs@ComboBox@Gtk@@QEBA?AV?$PropertyProxy_ReadOnly@_N@Glib@@XZ
    ?property_has_frame@ComboBox@Gtk@@QEAA?AV?$PropertyProxy@_N@Glib@@XZ
    ?property_has_frame@ComboBox@Gtk@@QEBA?AV?$PropertyProxy_ReadOnly@_N@Glib@@XZ
    ?property_focus_on_click@ComboBox@Gtk@@QEAA?AV?$PropertyProxy@_N@Glib@@XZ
    ?property_focus_on_click@ComboBox@Gtk@@QEBA?AV?$PropertyProxy_ReadOnly@_N@Glib@@XZ
    ?property_tearoff_title@ComboBox@Gtk@@QEAA?AV?$PropertyProxy@Vustring@Glib@@@Glib@@XZ
    ?property_tearoff_title@ComboBox@Gtk@@QEBA?AV?$PropertyProxy_ReadOnly@Vustring@Glib@@@Glib@@XZ
    ?property_popup_shown@ComboBox@Gtk@@QEBA?AV?$PropertyProxy_ReadOnly@_N@Glib@@XZ
    ?property_button_sensitivity@ComboBox@Gtk@@QEAA?AV?$PropertyProxy@W4SensitivityType@Gtk@@@Glib@@XZ
    ?property_button_sensitivity@ComboBox@Gtk@@QEBA?AV?$PropertyProxy_ReadOnly@W4SensitivityType@Gtk@@@Glib@@XZ
    ?property_popup_fixed_width@ComboBox@Gtk@@QEAA?AV?$PropertyProxy@_N@Glib@@XZ
    ?property_popup_fixed_width@ComboBox@Gtk@@QEBA?AV?$PropertyProxy_ReadOnly@_N@Glib@@XZ
    ?property_cell_area@ComboBox@Gtk@@QEBA?AV?$PropertyProxy_ReadOnly@V?$RefPtr@VCellArea@Gtk@@@Glib@@@Glib@@XZ
    ?property_has_entry@ComboBox@Gtk@@QEBA?AV?$PropertyProxy_ReadOnly@_N@Glib@@XZ
    ?property_entry_text_column@ComboBox@Gtk@@QEAA?AV?$PropertyProxy@H@Glib@@XZ
    ?property_entry_text_column@ComboBox@Gtk@@QEBA?AV?$PropertyProxy_ReadOnly@H@Glib@@XZ
    ?property_id_column@ComboBox@Gtk@@QEAA?AV?$PropertyProxy@H@Glib@@XZ
    ?property_id_column@ComboBox@Gtk@@QEBA?AV?$PropertyProxy_ReadOnly@H@Glib@@XZ
    ?property_active_id@ComboBox@Gtk@@QEAA?AV?$PropertyProxy@Vustring@Glib@@@Glib@@XZ
    ?property_active_id@ComboBox@Gtk@@QEBA?AV?$PropertyProxy_ReadOnly@Vustring@Glib@@@Glib@@XZ
    ?signal_changed@ComboBox@Gtk@@QEAA?AV?$SignalProxy0@X@Glib@@XZ
    ?signal_format_entry_text@ComboBox@Gtk@@QEAA?AV?$SignalProxy1@Vustring@Glib@@AEBVTreePath@Gtk@@@Glib@@XZ
    ?wrap@Glib@@YAPEAVComboBox@Gtk@@PEAU_GtkComboBox@@_N@Z
    ?init@ComboBox_Class@Gtk@@QEAAAEBVClass@Glib@@XZ
    ?class_init_function@ComboBox_Class@Gtk@@SAXPEAX0@Z
    ?wrap_new@ComboBox_Class@Gtk@@SAPEAVObjectBase@Glib@@PEAU_GObject@@@Z
    ?changed_callback@ComboBox_Class@Gtk@@KAXPEAU_GtkComboBox@@@Z
    ??1?$RefPtr@$$CBVTreeModel@Gtk@@@Glib@@QEAA@XZ
    ??R?$slot1@Vustring@Glib@@AEBVTreePath@Gtk@@@sigc@@QEBA?AVustring@Glib@@AEBVTreePath@Gtk@@@Z
    ??$manage@VComboBox@Gtk@@@Gtk@@YAPEAVComboBox@0@PEAV10@@Z
    ?destroy_notify_@Object@Gtk@@$2PPPPPPPM@CI@EAAXXZ
    ?set_manage@Object@Gtk@@$4PPPPPPPM@CI@EAAXXZ
    ??_7ComboBox@Gtk@@6BWidget@1@@
    ??_7ComboBox@Gtk@@6BCellLayout@1@@
    ??_7ComboBox@Gtk@@6BCellEditable@1@@
    ??_7ComboBox@Gtk@@6BObject@1@@
    ??_8ComboBox@Gtk@@7BObject@Glib@@@
    ??_8ComboBox@Gtk@@7BInterface@Glib@@Bin@1@@
    ??_8ComboBox@Gtk@@7BInterface@Glib@@CellLayout@1@@
    ??_8ComboBox@Gtk@@7BInterface@Glib@@CellEditable@1@@
    ??_8ComboBox@Gtk@@7BObjectBase@Glib@@@
    ??_C@_09CKAGJGEK@has?9entry?$AA@
    ??_C@_05NCCFOPHA@model?$AA@
    ??_C@_09BHKPAMFL@cell?9area?$AA@
    ??_R0?AVWidget@Gtk@@@8
    ??_R0?AVEntry@Gtk@@@8
    ??_R0?AVObjectBase@Glib@@@8
    ??_R0?AVComboBox@Gtk@@@8
    ??_C@_0L@DAGCGJNP@wrap?9width?$AA@
    ??_C@_0BA@LLGLOKOH@row?9span?9column?$AA@
    ??_C@_0BD@CPNAKNOH@column?9span?9column?$AA@
    ??_C@_06MDLIGPKC@active?$AA@
    ??_C@_0N@EBBMICHC@add?9tearoffs?$AA@
    ??_C@_09JPEIIANK@has?9frame?$AA@
    ??_C@_0P@PANHJGLE@focus?9on?9click?$AA@
    ??_C@_0O@NFBCIOEL@tearoff?9title?$AA@
    ??_C@_0M@MAHKIMBO@popup?9shown?$AA@
    ??_C@_0BD@LPICCCMO@button?9sensitivity?$AA@
    ??_C@_0BC@DNKBHACM@popup?9fixed?9width?$AA@
    ??_C@_0BC@GIDBFKDM@entry?9text?9column?$AA@
    ??_C@_09KKNFCAFD@id?9column?$AA@
    ??_C@_09OJOMOMPE@active?9id?$AA@
    ??_R4ComboBox@Gtk@@6BWidget@1@@
    ??_R3ComboBox@Gtk@@8
    ??_R2ComboBox@Gtk@@8
    ??_R1A@?0A@EA@ComboBox@Gtk@@8
    ??_R1A@?0A@EA@Bin@Gtk@@8
    ??_R0?AVBin@Gtk@@@8
    ??_R3Bin@Gtk@@8
    ??_R2Bin@Gtk@@8
    ??_R1A@?0A@EA@Container@Gtk@@8
    ??_R0?AVContainer@Gtk@@@8
    ??_R3Container@Gtk@@8
    ??_R2Container@Gtk@@8
    ??_R1A@?0A@EA@Widget@Gtk@@8
    ??_R3Widget@Gtk@@8
    ??_R2Widget@Gtk@@8
    ??_R17?0A@EA@Object@Gtk@@8
    ??_R0?AVObject@Gtk@@@8
    ??_R3Object@Gtk@@8
    ??_R2Object@Gtk@@8
    ??_R1A@?0A@EA@Object@Gtk@@8
    ??_R1A@?0A@EA@Object@Glib@@8
    ??_R0?AVObject@Glib@@@8
    ??_R3Object@Glib@@8
    ??_R2Object@Glib@@8
    ??_R1A@A@7FA@ObjectBase@Glib@@8
    ??_R3ObjectBase@Glib@@8
    ??_R2ObjectBase@Glib@@8
    ??_R1A@?0A@EA@ObjectBase@Glib@@8
    ??_R1A@73FA@trackable@sigc@@8
    ??_R0?AUtrackable@sigc@@@8
    ??_R3trackable@sigc@@8
    ??_R2trackable@sigc@@8
    ??_R1A@?0A@EA@trackable@sigc@@8
    ??_R1A@A@3FA@trackable@sigc@@8
    ??_R17?0A@EA@Object@Glib@@8
    ??_R1A@77FA@ObjectBase@Glib@@8
    ??_R1BI@?0A@EA@Buildable@Gtk@@8
    ??_R0?AVBuildable@Gtk@@@8
    ??_R3Buildable@Gtk@@8
    ??_R2Buildable@Gtk@@8
    ??_R1A@?0A@EA@Buildable@Gtk@@8
    ??_R1A@?0A@EA@Interface@Glib@@8
    ??_R0?AVInterface@Glib@@@8
    ??_R3Interface@Glib@@8
    ??_R2Interface@Glib@@8
    ??_R1BI@?0A@EA@Interface@Glib@@8
    ??_R1BI@?0A@EC@Interface@Glib@@8
    ??_R1CA@?0A@EA@CellLayout@Gtk@@8
    ??_R0?AVCellLayout@Gtk@@@8
    ??_R3CellLayout@Gtk@@8
    ??_R2CellLayout@Gtk@@8
    ??_R1A@?0A@EA@CellLayout@Gtk@@8
    ??_R17?0A@EA@Interface@Glib@@8
    ??_R1CI@?0A@EC@Interface@Glib@@8
    ??_R1DA@?0A@EA@CellEditable@Gtk@@8
    ??_R0?AVCellEditable@Gtk@@@8
    ??_R3CellEditable@Gtk@@8
    ??_R2CellEditable@Gtk@@8
    ??_R1A@?0A@EA@CellEditable@Gtk@@8
    ??_R1DI@?0A@EC@Interface@Glib@@8
    ??_R4ComboBox@Gtk@@6BCellLayout@1@@
    ??_R4ComboBox@Gtk@@6BCellEditable@1@@
    ??_R4ComboBox@Gtk@@6BObject@1@@
    ?comboboxtext_class_@ComboBoxText@Gtk@@0VComboBoxText_Class@2@A
    ?__empty_global_delete@@YAXPEAX@Z
    ?__empty_global_delete@@YAXPEAX_K@Z
    ?get@?$Value@Vustring@Glib@@@Glib@@QEBA?AVustring@2@XZ
    ??1?$Value@Vustring@Glib@@@Glib@@QEAA@XZ
    ?convert_return_gchar_ptr_to_ustring@Glib@@YA?AVustring@1@PEAD@Z
    ??1?$ScopedPtr@D@Glib@@QEAA@XZ
    ??1?$RefPtr@VTreeModel@Gtk@@@Glib@@QEAA@XZ
    ??1ComboBoxText@Gtk@@UEAA@XZ
    ??0ComboBoxText@Gtk@@IEAA@AEBVConstructParams@Glib@@@Z
    ??0ComboBoxText@Gtk@@IEAA@PEAU_GtkComboBoxText@@@Z
    ?get_type@ComboBoxText@Gtk@@SA_KXZ
    ?get_base_type@ComboBoxText@Gtk@@SA_KXZ
    ??0ComboBoxText@Gtk@@QEAA@_N@Z
    ?append@ComboBoxText@Gtk@@QEAAXAEBVustring@Glib@@@Z
    ?append@ComboBoxText@Gtk@@QEAAXAEBVustring@Glib@@0@Z
    ?insert@ComboBoxText@Gtk@@QEAAXHAEBVustring@Glib@@@Z
    ?insert@ComboBoxText@Gtk@@QEAAXHAEBVustring@Glib@@0@Z
    ?prepend@ComboBoxText@Gtk@@QEAAXAEBVustring@Glib@@@Z
    ?prepend@ComboBoxText@Gtk@@QEAAXAEBVustring@Glib@@0@Z
    ?remove_text@ComboBoxText@Gtk@@QEAAXH@Z
    ?get_active_text@ComboBoxText@Gtk@@QEBA?AVustring@Glib@@XZ
    ?remove_all@ComboBoxText@Gtk@@QEAAXXZ
    ?set_active_text@ComboBoxText@Gtk@@QEAAXAEBVustring@Glib@@@Z
    ?wrap@Glib@@YAPEAVComboBoxText@Gtk@@PEAU_GtkComboBoxText@@_N@Z
    ?init@ComboBoxText_Class@Gtk@@QEAAAEBVClass@Glib@@XZ
    ?class_init_function@ComboBoxText_Class@Gtk@@SAXPEAX0@Z
    ?wrap_new@ComboBoxText_Class@Gtk@@SAPEAVObjectBase@Glib@@PEAU_GObject@@@Z
    ??$get_value@Vustring@Glib@@@TreeRow@Gtk@@QEBAXHAEAVustring@Glib@@@Z
    ??$manage@VComboBoxText@Gtk@@@Gtk@@YAPEAVComboBoxText@0@PEAV10@@Z
    ?destroy_notify_@Object@Gtk@@$2PPPPPPPM@CI@EAAXXZ
    ?set_manage@Object@Gtk@@$4PPPPPPPM@CI@EAAXXZ
    ??_7ComboBoxText@Gtk@@6BWidget@1@@
    ??_7ComboBoxText@Gtk@@6BCellLayout@1@@
    ??_7ComboBoxText@Gtk@@6BCellEditable@1@@
    ??_7ComboBoxText@Gtk@@6BObject@1@@
    ??_8ComboBoxText@Gtk@@7BObject@Glib@@@
    ??_8ComboBoxText@Gtk@@7BInterface@Glib@@Bin@1@@
    ??_8ComboBoxText@Gtk@@7BInterface@Glib@@CellLayout@1@@
    ??_8ComboBoxText@Gtk@@7BInterface@Glib@@CellEditable@1@@
    ??_8ComboBoxText@Gtk@@7BObjectBase@Glib@@@
    ??_C@_09CKAGJGEK@has?9entry?$AA@
    ??_R0?AVObjectBase@Glib@@@8
    ??_R0?AVComboBoxText@Gtk@@@8
    ??_R4ComboBoxText@Gtk@@6BWidget@1@@
    ??_R3ComboBoxText@Gtk@@8
    ??_R2ComboBoxText@Gtk@@8
    ??_R1A@?0A@EA@ComboBoxText@Gtk@@8
    ??_R1A@?0A@EA@ComboBox@Gtk@@8
    ??_R0?AVComboBox@Gtk@@@8
    ??_R3ComboBox@Gtk@@8
    ??_R2ComboBox@Gtk@@8
    ??_R1A@?0A@EA@Bin@Gtk@@8
    ??_R0?AVBin@Gtk@@@8
    ??_R3Bin@Gtk@@8
    ??_R2Bin@Gtk@@8
    ??_R1A@?0A@EA@Container@Gtk@@8
    ??_R0?AVContainer@Gtk@@@8
    ??_R3Container@Gtk@@8
    ??_R2Container@Gtk@@8
    ??_R1A@?0A@EA@Widget@Gtk@@8
    ??_R0?AVWidget@Gtk@@@8
    ??_R3Widget@Gtk@@8
    ??_R2Widget@Gtk@@8
    ??_R17?0A@EA@Object@Gtk@@8
    ??_R0?AVObject@Gtk@@@8
    ??_R3Object@Gtk@@8
    ??_R2Object@Gtk@@8
    ??_R1A@?0A@EA@Object@Gtk@@8
    ??_R1A@?0A@EA@Object@Glib@@8
    ??_R0?AVObject@Glib@@@8
    ??_R3Object@Glib@@8
    ??_R2Object@Glib@@8
    ??_R1A@A@7FA@ObjectBase@Glib@@8
    ??_R3ObjectBase@Glib@@8
    ??_R2ObjectBase@Glib@@8
    ??_R1A@?0A@EA@ObjectBase@Glib@@8
    ??_R1A@73FA@trackable@sigc@@8
    ??_R0?AUtrackable@sigc@@@8
    ??_R3trackable@sigc@@8
    ??_R2trackable@sigc@@8
    ??_R1A@?0A@EA@trackable@sigc@@8
    ??_R1A@A@3FA@trackable@sigc@@8
    ??_R17?0A@EA@Object@Glib@@8
    ??_R1A@77FA@ObjectBase@Glib@@8
    ??_R1BI@?0A@EA@Buildable@Gtk@@8
    ??_R0?AVBuildable@Gtk@@@8
    ??_R3Buildable@Gtk@@8
    ??_R2Buildable@Gtk@@8
    ??_R1A@?0A@EA@Buildable@Gtk@@8
    ??_R1A@?0A@EA@Interface@Glib@@8
    ??_R0?AVInterface@Glib@@@8
    ??_R3Interface@Glib@@8
    ??_R2Interface@Glib@@8
    ??_R1BI@?0A@EA@Interface@Glib@@8
    ??_R1BI@?0A@EC@Interface@Glib@@8
    ??_R1CA@?0A@EA@CellLayout@Gtk@@8
    ??_R0?AVCellLayout@Gtk@@@8
    ??_R3CellLayout@Gtk@@8
    ??_R2CellLayout@Gtk@@8
    ??_R1A@?0A@EA@CellLayout@Gtk@@8
    ??_R17?0A@EA@Interface@Glib@@8
    ??_R1CI@?0A@EC@Interface@Glib@@8
    ??_R1DA@?0A@EA@CellEditable@Gtk@@8
    ??_R0?AVCellEditable@Gtk@@@8
    ??_R3CellEditable@Gtk@@8
    ??_R2CellEditable@Gtk@@8
    ??_R1A@?0A@EA@CellEditable@Gtk@@8
    ??_R1DI@?0A@EC@Interface@Glib@@8
    ??_R4ComboBoxText@Gtk@@6BCellLayout@1@@
    ??_R4ComboBoxText@Gtk@@6BCellEditable@1@@
    ??_R4ComboBoxText@Gtk@@6BObject@1@@
    ??_C@_03BDGOHNNK@add?$AA@
    ??_C@_06LEMKAMD@remove?$AA@
    ??_C@_0N@LOPBGBBI@check_resize?$AA@
    ?container_class_@Container@Gtk@@0VContainer_Class@2@A
    ??_C@_0BA@BLNPGOPH@set_focus_child?$AA@
    ?__empty_global_delete@@YAXPEAX@Z
    ?__empty_global_delete@@YAXPEAX_K@Z
    ??1Container@Gtk@@UEAA@XZ
    ??0Container@Gtk@@IEAA@AEBVConstructParams@Glib@@@Z
    ??0Container@Gtk@@IEAA@PEAU_GtkContainer@@@Z
    ?get_type@Container@Gtk@@SA_KXZ
    ?get_base_type@Container@Gtk@@SA_KXZ
    ?on_add@Container@Gtk@@MEAAXPEAVWidget@2@@Z
    ?on_remove@Container@Gtk@@MEAAXPEAVWidget@2@@Z
    ?on_check_resize@Container@Gtk@@MEAAXXZ
    ?on_set_focus_child@Container@Gtk@@MEAAXPEAVWidget@2@@Z
    ?set_border_width@Container@Gtk@@QEAAXI@Z
    ?get_border_width@Container@Gtk@@QEBAIXZ
    ?add@Container@Gtk@@UEAAXAEAVWidget@2@@Z
    ?remove@Container@Gtk@@QEAAXAEAVWidget@2@@Z
    ?set_resize_mode@Container@Gtk@@QEAAXW4ResizeMode@2@@Z
    ?get_resize_mode@Container@Gtk@@QEBA?AW4ResizeMode@2@XZ
    ?check_resize@Container@Gtk@@QEAAXXZ
    ?foreach@Container@Gtk@@QEAAXAEBV?$slot@XAEAVWidget@Gtk@@Unil@sigc@@U34@U34@U34@U34@U34@@sigc@@@Z
    ?forall@Container@Gtk@@QEAAXAEBV?$slot@XAEAVWidget@Gtk@@Unil@sigc@@U34@U34@U34@U34@U34@@sigc@@@Z
    ?get_children@Container@Gtk@@QEAA?AV?$vector@PEAVWidget@Gtk@@V?$allocator@PEAVWidget@Gtk@@@std@@@std@@XZ
    ?get_children@Container@Gtk@@QEBA?AV?$vector@PEBVWidget@Gtk@@V?$allocator@PEBVWidget@Gtk@@@std@@@std@@XZ
    ?propagate_draw@Container@Gtk@@QEAAXAEAVWidget@2@AEBV?$RefPtr@VContext@Cairo@@@Cairo@@@Z
    ?set_focus_chain@Container@Gtk@@QEAAXAEBV?$vector@PEAVWidget@Gtk@@V?$allocator@PEAVWidget@Gtk@@@std@@@std@@@Z
    ?has_focus_chain@Container@Gtk@@QEBA_NXZ
    ?get_focus_chain@Container@Gtk@@QEAA?AV?$vector@PEAVWidget@Gtk@@V?$allocator@PEAVWidget@Gtk@@@std@@@std@@XZ
    ?get_focus_chain@Container@Gtk@@QEBA?AV?$vector@PEBVWidget@Gtk@@V?$allocator@PEBVWidget@Gtk@@@std@@@std@@XZ
    ?unset_focus_chain@Container@Gtk@@QEAAXXZ
    ?set_reallocate_redraws@Container@Gtk@@QEAAX_N@Z
    ?set_focus_child@Container@Gtk@@QEAAXAEAVWidget@2@@Z
    ?get_focus_child@Container@Gtk@@QEAAPEAVWidget@2@XZ
    ?get_focus_child@Container@Gtk@@QEBAPEBVWidget@2@XZ
    ?set_focus_vadjustment@Container@Gtk@@QEAAXAEBV?$RefPtr@VAdjustment@Gtk@@@Glib@@@Z
    ?get_focus_vadjustment@Container@Gtk@@QEAA?AV?$RefPtr@VAdjustment@Gtk@@@Glib@@XZ
    ?get_focus_vadjustment@Container@Gtk@@QEBA?AV?$RefPtr@$$CBVAdjustment@Gtk@@@Glib@@XZ
    ?set_focus_hadjustment@Container@Gtk@@QEAAXAEBV?$RefPtr@VAdjustment@Gtk@@@Glib@@@Z
    ?get_focus_hadjustment@Container@Gtk@@QEAA?AV?$RefPtr@VAdjustment@Gtk@@@Glib@@XZ
    ?get_focus_hadjustment@Container@Gtk@@QEBA?AV?$RefPtr@$$CBVAdjustment@Gtk@@@Glib@@XZ
    ?resize_children@Container@Gtk@@QEAAXXZ
    ?child_type@Container@Gtk@@QEBA_KXZ
    ?get_path_for_child@Container@Gtk@@QEBA?AVWidgetPath@2@AEBVWidget@2@@Z
    ?signal_add@Container@Gtk@@QEAA?AV?$SignalProxy1@XPEAVWidget@Gtk@@@Glib@@XZ
    ?signal_remove@Container@Gtk@@QEAA?AV?$SignalProxy1@XPEAVWidget@Gtk@@@Glib@@XZ
    ?signal_check_resize@Container@Gtk@@QEAA?AV?$SignalProxy0@X@Glib@@XZ
    ?signal_set_focus_child@Container@Gtk@@QEAA?AV?$SignalProxy1@XPEAVWidget@Gtk@@@Glib@@XZ
    ?show_all_children@Container@Gtk@@QEAAX_N@Z
    ??0Container@Gtk@@IEAA@XZ
    ?child_type_vfunc@Container@Gtk@@MEBA_KXZ
    ?forall_vfunc@Container@Gtk@@MEAAXHP6AXPEAU_GtkWidget@@PEAX@Z1@Z
    ?composite_name_vfunc@Container@Gtk@@MEAAPEADPEAU_GtkWidget@@@Z
    ?set_child_property_vfunc@Container@Gtk@@MEAAXPEAU_GtkWidget@@IPEBU_GValue@@PEAU_GParamSpec@@@Z
    ?get_child_property_vfunc@Container@Gtk@@MEBAXPEAU_GtkWidget@@IPEAU_GValue@@PEAU_GParamSpec@@@Z
    ?property_border_width@Container@Gtk@@IEAA?AV?$PropertyProxy@I@Glib@@XZ
    ?property_border_width@Container@Gtk@@IEBA?AV?$PropertyProxy_ReadOnly@I@Glib@@XZ
    ?property_resize_mode@Container@Gtk@@IEAA?AV?$PropertyProxy@W4ResizeMode@Gtk@@@Glib@@XZ
    ?property_resize_mode@Container@Gtk@@IEBA?AV?$PropertyProxy_ReadOnly@W4ResizeMode@Gtk@@@Glib@@XZ
    ?property_child@Container@Gtk@@IEAA?AV?$PropertyProxy_WriteOnly@PEAVWidget@Gtk@@@Glib@@XZ
    ??_DContainer@Gtk@@QEAAXXZ
    ?wrap@Glib@@YAPEAVContainer@Gtk@@PEAU_GtkContainer@@_N@Z
    ?init@Container_Class@Gtk@@QEAAAEBVClass@Glib@@XZ
    ?class_init_function@Container_Class@Gtk@@SAXPEAX0@Z
    ?wrap_new@Container_Class@Gtk@@SAPEAVObjectBase@Glib@@PEAU_GObject@@@Z
    ?add_callback@Container_Class@Gtk@@KAXPEAU_GtkContainer@@PEAU_GtkWidget@@@Z
    ?remove_callback@Container_Class@Gtk@@KAXPEAU_GtkContainer@@PEAU_GtkWidget@@@Z
    ?check_resize_callback@Container_Class@Gtk@@KAXPEAU_GtkContainer@@@Z
    ?set_focus_child_callback@Container_Class@Gtk@@KAXPEAU_GtkContainer@@PEAU_GtkWidget@@@Z
    ?remove_callback_normal@Container_Class@Gtk@@KAXPEAU_GtkContainer@@PEAU_GtkWidget@@@Z
    ?child_type_vfunc_callback@Container_Class@Gtk@@KA_KPEAU_GtkContainer@@@Z
    ?forall_vfunc_callback@Container_Class@Gtk@@KAXPEAU_GtkContainer@@HP6AXPEAU_GtkWidget@@PEAX@Z2@Z
    ?composite_name_vfunc_callback@Container_Class@Gtk@@KAPEADPEAU_GtkContainer@@PEAU_GtkWidget@@@Z
    ?set_child_property_vfunc_callback@Container_Class@Gtk@@KAXPEAU_GtkContainer@@PEAU_GtkWidget@@IPEBU_GValue@@PEAU_GParamSpec@@@Z
    ?get_child_property_vfunc_callback@Container_Class@Gtk@@KAXPEAU_GtkContainer@@PEAU_GtkWidget@@IPEAU_GValue@@PEAU_GParamSpec@@@Z
    ??1?$slot@XAEAVWidget@Gtk@@Unil@sigc@@U34@U34@U34@U34@U34@@sigc@@QEAA@XZ
    ?allocate@?$allocator@PEAVWidget@Gtk@@@std@@QEAAPEAPEAVWidget@Gtk@@_K@Z
    ?list_to_vector@?$ListHandler@PEAVWidget@Gtk@@U?$TypeTraits@PEAVWidget@Gtk@@@Container_Helpers@Glib@@@Glib@@SA?AV?$vector@PEAVWidget@Gtk@@V?$allocator@PEAVWidget@Gtk@@@std@@@std@@PEAU_GList@@W4OwnershipType@2@@Z
    ?vector_to_list@?$ListHandler@PEAVWidget@Gtk@@U?$TypeTraits@PEAVWidget@Gtk@@@Container_Helpers@Glib@@@Glib@@SA?AV?$GListKeeper@U?$TypeTraits@PEAVWidget@Gtk@@@Container_Helpers@Glib@@@Container_Helpers@2@AEBV?$vector@PEAVWidget@Gtk@@V?$allocator@PEAVWidget@Gtk@@@std@@@std@@@Z
    ?allocate@?$allocator@PEBVWidget@Gtk@@@std@@QEAAPEAPEBVWidget@Gtk@@_K@Z
    ?list_to_vector@?$ListHandler@PEBVWidget@Gtk@@U?$TypeTraits@PEBVWidget@Gtk@@@Container_Helpers@Glib@@@Glib@@SA?AV?$vector@PEBVWidget@Gtk@@V?$allocator@PEBVWidget@Gtk@@@std@@@std@@PEAU_GList@@W4OwnershipType@2@@Z
    ??$manage@VContainer@Gtk@@@Gtk@@YAPEAVContainer@0@PEAV10@@Z
    ??1?$GListKeeper@U?$TypeTraits@PEAVWidget@Gtk@@@Container_Helpers@Glib@@@Container_Helpers@Glib@@QEAA@XZ
    ??1?$RefPtr@VAdjustment@Gtk@@@Glib@@QEAA@XZ
    ??1?$RefPtr@$$CBVAdjustment@Gtk@@@Glib@@QEAA@XZ
    ??$_Deallocate@PEBVWidget@Gtk@@@std@@YAXPEAPEBVWidget@Gtk@@_K@Z
    ??$_Deallocate@PEAVWidget@Gtk@@@std@@YAXPEAPEAVWidget@Gtk@@_K@Z
    ??$create_glist@U?$TypeTraits@PEAVWidget@Gtk@@@Container_Helpers@Glib@@@Container_Helpers@Glib@@YAPEAU_GList@@V?$_Vector_const_iterator@V?$_Vector_val@U?$_Simple_types@PEAVWidget@Gtk@@@std@@@std@@@std@@V34@@Z
    ??1?$GListKeeper@U?$TypeTraits@PEBVWidget@Gtk@@@Container_Helpers@Glib@@@Container_Helpers@Glib@@QEAA@XZ
    ?destroy@?$typed_slot_rep@V?$mem_functor0@XVWidget@Gtk@@@sigc@@@internal@sigc@@SAPEAXPEAX@Z
    ?dup@?$typed_slot_rep@V?$mem_functor0@XVWidget@Gtk@@@sigc@@@internal@sigc@@SAPEAXPEAX@Z
    ?call_it@?$slot_call1@V?$mem_functor0@XVWidget@Gtk@@@sigc@@XAEAVWidget@Gtk@@@internal@sigc@@SAXPEAUslot_rep@23@AEAVWidget@Gtk@@@Z
    ??$visit_each_type@PEAUtrackable@sigc@@Uslot_do_bind@internal@2@U?$adaptor_functor@V?$mem_functor0@XVWidget@Gtk@@@sigc@@@2@@sigc@@YAXAEBUslot_do_bind@internal@0@AEBU?$adaptor_functor@V?$mem_functor0@XVWidget@Gtk@@@sigc@@@0@@Z
    ??$visit_each_type@PEAUtrackable@sigc@@Uslot_do_unbind@internal@2@U?$adaptor_functor@V?$mem_functor0@XVWidget@Gtk@@@sigc@@@2@@sigc@@YAXAEBUslot_do_unbind@internal@0@AEBU?$adaptor_functor@V?$mem_functor0@XVWidget@Gtk@@@sigc@@@0@@Z
    ??$_Construct@V?$ListIterator@U?$TypeTraits@PEAVWidget@Gtk@@@Container_Helpers@Glib@@@Container_Helpers@Glib@@@?$vector@PEAVWidget@Gtk@@V?$allocator@PEAVWidget@Gtk@@@std@@@std@@QEAAXV?$ListIterator@U?$TypeTraits@PEAVWidget@Gtk@@@Container_Helpers@Glib@@@Container_Helpers@Glib@@0Uforward_iterator_tag@1@@Z
    ??$_Construct@V?$ListIterator@U?$TypeTraits@PEBVWidget@Gtk@@@Container_Helpers@Glib@@@Container_Helpers@Glib@@@?$vector@PEBVWidget@Gtk@@V?$allocator@PEBVWidget@Gtk@@@std@@@std@@QEAAXV?$ListIterator@U?$TypeTraits@PEBVWidget@Gtk@@@Container_Helpers@Glib@@@Container_Helpers@Glib@@0Uforward_iterator_tag@1@@Z
    ??$visit_each@U?$limit_derived_target@PEAUtrackable@sigc@@Uslot_do_bind@internal@2@@internal@sigc@@U?$adaptor_functor@V?$mem_functor0@XVWidget@Gtk@@@sigc@@@3@@sigc@@YAXAEBU?$limit_derived_target@PEAUtrackable@sigc@@Uslot_do_bind@internal@2@@internal@0@AEBU?$adaptor_functor@V?$mem_functor0@XVWidget@Gtk@@@sigc@@@0@@Z
    ??$visit_each@U?$limit_derived_target@PEAUtrackable@sigc@@Uslot_do_unbind@internal@2@@internal@sigc@@U?$adaptor_functor@V?$mem_functor0@XVWidget@Gtk@@@sigc@@@3@@sigc@@YAXAEBU?$limit_derived_target@PEAUtrackable@sigc@@Uslot_do_unbind@internal@2@@internal@0@AEBU?$adaptor_functor@V?$mem_functor0@XVWidget@Gtk@@@sigc@@@0@@Z
    ??$visit_each@U?$limit_derived_target@PEAUtrackable@sigc@@Uslot_do_bind@internal@2@@internal@sigc@@V?$mem_functor0@XVWidget@Gtk@@@3@@sigc@@YAXAEBU?$limit_derived_target@PEAUtrackable@sigc@@Uslot_do_bind@internal@2@@internal@0@AEBV?$mem_functor0@XVWidget@Gtk@@@0@@Z
    ??$visit_each@U?$limit_derived_target@PEAUtrackable@sigc@@Uslot_do_unbind@internal@2@@internal@sigc@@V?$mem_functor0@XVWidget@Gtk@@@3@@sigc@@YAXAEBU?$limit_derived_target@PEAUtrackable@sigc@@Uslot_do_unbind@internal@2@@internal@0@AEBV?$mem_functor0@XVWidget@Gtk@@@0@@Z
    ??$_Uninit_copy@V?$ListIterator@U?$TypeTraits@PEAVWidget@Gtk@@@Container_Helpers@Glib@@@Container_Helpers@Glib@@PEAPEAVWidget@Gtk@@V?$allocator@PEAVWidget@Gtk@@@std@@@std@@YAPEAPEAVWidget@Gtk@@V?$ListIterator@U?$TypeTraits@PEAVWidget@Gtk@@@Container_Helpers@Glib@@@Container_Helpers@Glib@@0PEAPEAV12@AEAU?$_Wrap_alloc@V?$allocator@PEAVWidget@Gtk@@@std@@@0@U_Nonscalar_ptr_iterator_tag@0@@Z
    ??$_Uninit_copy@V?$ListIterator@U?$TypeTraits@PEBVWidget@Gtk@@@Container_Helpers@Glib@@@Container_Helpers@Glib@@PEAPEBVWidget@Gtk@@V?$allocator@PEBVWidget@Gtk@@@std@@@std@@YAPEAPEBVWidget@Gtk@@V?$ListIterator@U?$TypeTraits@PEBVWidget@Gtk@@@Container_Helpers@Glib@@@Container_Helpers@Glib@@0PEAPEBV12@AEAU?$_Wrap_alloc@V?$allocator@PEBVWidget@Gtk@@@std@@@0@U_Nonscalar_ptr_iterator_tag@0@@Z
    ?destroy_notify_@Object@Gtk@@$2PPPPPPPM@7EAAXXZ
    ?set_manage@Object@Gtk@@$4PPPPPPPM@7EAAXXZ
    ??_7Container@Gtk@@6BWidget@1@@
    ??_7Container@Gtk@@6BObject@1@@
    ??_8Container@Gtk@@7BObject@Glib@@@
    ??_8Container@Gtk@@7BInterface@Glib@@@
    ??_8Container@Gtk@@7BObjectBase@Glib@@@
    ??_C@_0M@IBAELIDL@widget?5?$CB?$DN?50?$AA@
    ??_C@_0DC@LKHACJMM@?$GAanonymous?9namespace?8?3?3container@
    ??_R0?AVObjectBase@Glib@@@8
    ??_R0?AVContainer@Gtk@@@8
    ??_C@_0N@CENGAJEB@border?9width?$AA@
    ??_C@_0M@IKPJEFKA@resize?9mode?$AA@
    ??_C@_05GPGNDLEK@child?$AA@
    ??_C@_0BD@OLBABOEK@vector?$DMT?$DO?5too?5long?$AA@
    ??_R0?AVWidget@Gtk@@@8
    ??_R4Container@Gtk@@6BWidget@1@@
    ??_R3Container@Gtk@@8
    ??_R2Container@Gtk@@8
    ??_R1A@?0A@EA@Container@Gtk@@8
    ??_R1A@?0A@EA@Widget@Gtk@@8
    ??_R3Widget@Gtk@@8
    ??_R2Widget@Gtk@@8
    ??_R17?0A@EA@Object@Gtk@@8
    ??_R0?AVObject@Gtk@@@8
    ??_R3Object@Gtk@@8
    ??_R2Object@Gtk@@8
    ??_R1A@?0A@EA@Object@Gtk@@8
    ??_R1A@?0A@EA@Object@Glib@@8
    ??_R0?AVObject@Glib@@@8
    ??_R3Object@Glib@@8
    ??_R2Object@Glib@@8
    ??_R1A@A@7FA@ObjectBase@Glib@@8
    ??_R3ObjectBase@Glib@@8
    ??_R2ObjectBase@Glib@@8
    ??_R1A@?0A@EA@ObjectBase@Glib@@8
    ??_R1A@73FA@trackable@sigc@@8
    ??_R0?AUtrackable@sigc@@@8
    ??_R3trackable@sigc@@8
    ??_R2trackable@sigc@@8
    ??_R1A@?0A@EA@trackable@sigc@@8
    ??_R1A@A@3FA@trackable@sigc@@8
    ??_R17?0A@EA@Object@Glib@@8
    ??_R1A@77FA@ObjectBase@Glib@@8
    ??_R1BI@?0A@EA@Buildable@Gtk@@8
    ??_R0?AVBuildable@Gtk@@@8
    ??_R3Buildable@Gtk@@8
    ??_R2Buildable@Gtk@@8
    ??_R1A@?0A@EA@Buildable@Gtk@@8
    ??_R1A@?0A@EA@Interface@Glib@@8
    ??_R0?AVInterface@Glib@@@8
    ??_R3Interface@Glib@@8
    ??_R2Interface@Glib@@8
    ??_R1BI@?0A@EA@Interface@Glib@@8
    ??_R4Container@Gtk@@6BObject@1@@
    ??_C@_0O@DBHHELHF@parsing?9error?$AA@
    ?cssprovider_class_@CssProvider@Gtk@@0VCssProvider_Class@2@A
    ?__empty_global_delete@@YAXPEAX@Z
    ?__empty_global_delete@@YAXPEAX_K@Z
    ??0Exception@Glib@@QEAA@AEBV01@@Z
    ?convert_return_gchar_ptr_to_ustring@Glib@@YA?AVustring@1@PEAD@Z
    ??1?$ScopedPtr@D@Glib@@QEAA@XZ
    ??0CssProviderError@Gtk@@QEAA@W4Code@01@AEBVustring@Glib@@@Z
    ??0CssProviderError@Gtk@@QEAA@PEAU_GError@@@Z
    ?code@CssProviderError@Gtk@@QEBA?AW4Code@12@XZ
    ?throw_func@CssProviderError@Gtk@@CAXPEAU_GError@@@Z
    ??1CssProviderError@Gtk@@UEAA@XZ
    ??0CssProviderError@Gtk@@QEAA@AEBV01@@Z
    ?value_type@?$Value@W4Code@CssProviderError@Gtk@@@Glib@@SA_KXZ
    ??0CssProvider@Gtk@@IEAA@AEBVConstructParams@Glib@@@Z
    ??0CssProvider@Gtk@@IEAA@PEAU_GtkCssProvider@@@Z
    ??1CssProvider@Gtk@@UEAA@XZ
    ?get_type@CssProvider@Gtk@@SA_KXZ
    ?get_base_type@CssProvider@Gtk@@SA_KXZ
    ?gobj_copy@CssProvider@Gtk@@QEAAPEAU_GtkCssProvider@@XZ
    ??0CssProvider@Gtk@@IEAA@XZ
    ?create@CssProvider@Gtk@@SA?AV?$RefPtr@VCssProvider@Gtk@@@Glib@@XZ
    ?to_string@CssProvider@Gtk@@QEBA?AVustring@Glib@@XZ
    ?load_from_data@CssProvider@Gtk@@QEAA_NAEBV?$basic_string@DU?$char_traits@D@std@@V?$allocator@D@2@@std@@@Z
    ?load_from_file@CssProvider@Gtk@@QEAA_NAEBV?$RefPtr@$$CBVFile@Gio@@@Glib@@@Z
    ?load_from_path@CssProvider@Gtk@@QEAA_NAEBV?$basic_string@DU?$char_traits@D@std@@V?$allocator@D@2@@std@@@Z
    ?load_from_resource@CssProvider@Gtk@@QEAAXAEBV?$basic_string@DU?$char_traits@D@std@@V?$allocator@D@2@@std@@@Z
    ?get_default@CssProvider@Gtk@@SA?AV?$RefPtr@VCssProvider@Gtk@@@Glib@@XZ
    ?get_named@CssProvider@Gtk@@SA?AV?$RefPtr@VCssProvider@Gtk@@@Glib@@AEBVustring@4@0@Z
    ?signal_parsing_error@CssProvider@Gtk@@QEAA?AV?$SignalProxy2@XAEBV?$RefPtr@$$CBVCssSection@Gtk@@@Glib@@AEBVError@2@@Glib@@XZ
    ?wrap@Glib@@YA?AV?$RefPtr@VCssProvider@Gtk@@@1@PEAU_GtkCssProvider@@_N@Z
    ?init@CssProvider_Class@Gtk@@QEAAAEBVClass@Glib@@XZ
    ?class_init_function@CssProvider_Class@Gtk@@SAXPEAX0@Z
    ?wrap_new@CssProvider_Class@Gtk@@SAPEAVObjectBase@Glib@@PEAU_GObject@@@Z
    ??1?$RefPtr@VCssSection@Gtk@@@Glib@@QEAA@XZ
    ??1?$RefPtr@$$CBVCssSection@Gtk@@@Glib@@QEAA@XZ
    ??1?$RefPtr@VCssProvider@Gtk@@@Glib@@QEAA@XZ
    ??_7Exception@Glib@@6B@
    ??_7CssProviderError@Gtk@@6B@
    ??_7CssProvider@Gtk@@6B@
    ??_8CssProvider@Gtk@@7BObject@Glib@@@
    ??_8CssProvider@Gtk@@7BInterface@Glib@@@
    ??_8CssProvider@Gtk@@7BObjectBase@Glib@@@
    ??_R0?AVObjectBase@Glib@@@8
    ??_R0?AVCssProvider@Gtk@@@8
    ??_R0?AVError@Glib@@@8
    _TI3?AVCssProviderError@Gtk@@
    _CTA3?AVCssProviderError@Gtk@@
    ??_R0?AVCssProviderError@Gtk@@@8
    _CT??_R0?AVCssProviderError@Gtk@@@8??0CssProviderError@Gtk@@QEAA@AEBV01@@Z16
    _CT??_R0?AVError@Glib@@@8??0Error@Glib@@QEAA@AEBV01@@Z16
    ??_R0?AVException@Glib@@@8
    _CT??_R0?AVException@Glib@@@8??0Exception@Glib@@QEAA@AEBV01@@Z8
    ??_R4Exception@Glib@@6B@
    ??_R3Exception@Glib@@8
    ??_R2Exception@Glib@@8
    ??_R1A@?0A@EA@Exception@Glib@@8
    ??_R4CssProviderError@Gtk@@6B@
    ??_R3CssProviderError@Gtk@@8
    ??_R2CssProviderError@Gtk@@8
    ??_R1A@?0A@EA@CssProviderError@Gtk@@8
    ??_R1A@?0A@EA@Error@Glib@@8
    ??_R3Error@Glib@@8
    ??_R2Error@Glib@@8
    ??_R4CssProvider@Gtk@@6B@
    ??_R3CssProvider@Gtk@@8
    ??_R2CssProvider@Gtk@@8
    ??_R1A@?0A@EA@CssProvider@Gtk@@8
    ??_R1A@?0A@EA@Object@Glib@@8
    ??_R0?AVObject@Glib@@@8
    ??_R3Object@Glib@@8
    ??_R2Object@Glib@@8
    ??_R1A@A@7FA@ObjectBase@Glib@@8
    ??_R3ObjectBase@Glib@@8
    ??_R2ObjectBase@Glib@@8
    ??_R1A@?0A@EA@ObjectBase@Glib@@8
    ??_R1A@73FA@trackable@sigc@@8
    ??_R0?AUtrackable@sigc@@@8
    ??_R3trackable@sigc@@8
    ??_R2trackable@sigc@@8
    ??_R1A@?0A@EA@trackable@sigc@@8
    ??_R1A@A@3FA@trackable@sigc@@8
    ??_R17?0A@EA@StyleProvider@Gtk@@8
    ??_R0?AVStyleProvider@Gtk@@@8
    ??_R3StyleProvider@Gtk@@8
    ??_R2StyleProvider@Gtk@@8
    ??_R1A@?0A@EA@StyleProvider@Gtk@@8
    ??_R1A@?0A@EA@Interface@Glib@@8
    ??_R0?AVInterface@Glib@@@8
    ??_R3Interface@Glib@@8
    ??_R2Interface@Glib@@8
    ??_R17?0A@EA@Interface@Glib@@8
    ?__empty_global_delete@@YAXPEAX@Z
    ?__empty_global_delete@@YAXPEAX_K@Z
    ??1?$RefPtr@VFile@Gio@@@Glib@@QEAA@XZ
    ??1?$RefPtr@$$CBVFile@Gio@@@Glib@@QEAA@XZ
    ?value_type@?$Value@W4CssSectionType@Gtk@@@Glib@@SA_KXZ
    ?reference@CssSection@Gtk@@QEBAXXZ
    ?unreference@CssSection@Gtk@@QEBAXXZ
    ?gobj@CssSection@Gtk@@QEAAPEAU_GtkCssSection@@XZ
    ?gobj@CssSection@Gtk@@QEBAPEBU_GtkCssSection@@XZ
    ?gobj_copy@CssSection@Gtk@@QEBAPEAU_GtkCssSection@@XZ
    ?get_section_type@CssSection@Gtk@@QEBA?AW4CssSectionType@2@XZ
    ?get_parent@CssSection@Gtk@@QEAA?AV?$RefPtr@VCssSection@Gtk@@@Glib@@XZ
    ?get_parent@CssSection@Gtk@@QEBA?AV?$RefPtr@$$CBVCssSection@Gtk@@@Glib@@XZ
    ?get_file@CssSection@Gtk@@QEAA?AV?$RefPtr@VFile@Gio@@@Glib@@XZ
    ?get_file@CssSection@Gtk@@QEBA?AV?$RefPtr@$$CBVFile@Gio@@@Glib@@XZ
    ?get_start_line@CssSection@Gtk@@QEBAIXZ
    ?get_start_position@CssSection@Gtk@@QEBAIXZ
    ?get_end_line@CssSection@Gtk@@QEBAIXZ
    ?get_end_position@CssSection@Gtk@@QEBAIXZ
    ?wrap@Glib@@YA?AV?$RefPtr@VCssSection@Gtk@@@1@PEAU_GtkCssSection@@_N@Z
    ??_C@_08HKMEAON@response?$AA@
    ?dialog_class_@Dialog@Gtk@@0VDialog_Class@2@A
    ?__empty_global_delete@@YAXPEAX@Z
    ?__empty_global_delete@@YAXPEAX_K@Z
    ??1?$Value@_N@Glib@@QEAA@XZ
    ?value_type@?$Value@W4DialogFlags@Gtk@@@Glib@@SA_KXZ
    ?value_type@?$Value@W4ResponseType@Gtk@@@Glib@@SA_KXZ
    ??1Dialog@Gtk@@UEAA@XZ
    ??0Dialog@Gtk@@IEAA@AEBVConstructParams@Glib@@@Z
    ??0Dialog@Gtk@@IEAA@PEAU_GtkDialog@@@Z
    ?get_type@Dialog@Gtk@@SA_KXZ
    ?get_base_type@Dialog@Gtk@@SA_KXZ
    ?on_response@Dialog@Gtk@@MEAAXH@Z
    ??0Dialog@Gtk@@QEAA@XZ
    ??0Dialog@Gtk@@QEAA@AEBVustring@Glib@@_N@Z
    ??0Dialog@Gtk@@QEAA@AEBVustring@Glib@@AEAVWindow@1@_N@Z
    ??0Dialog@Gtk@@QEAA@AEBVustring@Glib@@W4DialogFlags@1@@Z
    ??0Dialog@Gtk@@QEAA@AEBVustring@Glib@@AEAVWindow@1@W4DialogFlags@1@@Z
    ?add_action_widget@Dialog@Gtk@@QEAAXAEAVWidget@2@H@Z
    ?add_button@Dialog@Gtk@@QEAAPEAVButton@2@AEBVustring@Glib@@H@Z
    ?add_button@Dialog@Gtk@@QEAAPEAVButton@2@AEBVStockID@2@H@Z
    ?set_response_sensitive@Dialog@Gtk@@QEAAXH_N@Z
    ?set_default_response@Dialog@Gtk@@QEAAXH@Z
    ?get_widget_for_response@Dialog@Gtk@@QEAAPEAVWidget@2@H@Z
    ?get_widget_for_response@Dialog@Gtk@@QEBAPEBVWidget@2@H@Z
    ?get_response_for_widget@Dialog@Gtk@@QEBAHAEBVWidget@2@@Z
    ?alternative_button_order@Dialog@Gtk@@SA_NAEBV?$RefPtr@$$CBVScreen@Gdk@@@Glib@@@Z
    ?set_alternative_button_order_from_array@Dialog@Gtk@@QEAAXAEBV?$vector@HV?$allocator@H@std@@@std@@@Z
    ?response@Dialog@Gtk@@QEAAXH@Z
    ?run@Dialog@Gtk@@QEAAHXZ
    ?get_action_area@Dialog@Gtk@@QEAAPEAVButtonBox@2@XZ
    ?get_action_area@Dialog@Gtk@@QEBAPEBVButtonBox@2@XZ
    ?get_vbox@Dialog@Gtk@@QEAAPEAVBox@2@XZ
    ?get_vbox@Dialog@Gtk@@QEBAPEBVBox@2@XZ
    ?get_content_area@Dialog@Gtk@@QEAAPEAVBox@2@XZ
    ?get_content_area@Dialog@Gtk@@QEBAPEBVBox@2@XZ
    ?get_header_bar@Dialog@Gtk@@QEAAPEAVHeaderBar@2@XZ
    ?get_header_bar@Dialog@Gtk@@QEBAPEBVHeaderBar@2@XZ
    ?signal_response@Dialog@Gtk@@QEAA?AV?$SignalProxy1@XH@Glib@@XZ
    ?property_use_header_bar@Dialog@Gtk@@QEBA?AV?$PropertyProxy_ReadOnly@_N@Glib@@XZ
    ??_DDialog@Gtk@@QEAAXXZ
    ?wrap@Glib@@YAPEAVDialog@Gtk@@PEAU_GtkDialog@@_N@Z
    ?init@Dialog_Class@Gtk@@QEAAAEBVClass@Glib@@XZ
    ?class_init_function@Dialog_Class@Gtk@@SAXPEAX0@Z
    ?wrap_new@Dialog_Class@Gtk@@SAPEAVObjectBase@Glib@@PEAU_GObject@@@Z
    ?response_callback@Dialog_Class@Gtk@@KAXPEAU_GtkDialog@@H@Z
    ?set_value@?$PropertyProxy@_N@Glib@@QEAAXAEB_N@Z
    ?vector_to_array@?$ArrayHandler@HU?$TypeTraits@H@Container_Helpers@Glib@@@Glib@@SA?AV?$ArrayKeeper@U?$TypeTraits@H@Container_Helpers@Glib@@@Container_Helpers@2@AEBV?$vector@HV?$allocator@H@std@@@std@@@Z
    ??1?$ArrayKeeper@U?$TypeTraits@H@Container_Helpers@Glib@@@Container_Helpers@Glib@@QEAA@XZ
    ??$create_array@U?$TypeTraits@H@Container_Helpers@Glib@@@Container_Helpers@Glib@@YAPEAHV?$_Vector_const_iterator@V?$_Vector_val@U?$_Simple_types@H@std@@@std@@@std@@_K@Z
    ?destroy_notify_@Object@Gtk@@$2PPPPPPPM@BA@EAAXXZ
    ?set_manage@Window@Gtk@@$4PPPPPPPM@A@EAAXXZ
    ??_7Dialog@Gtk@@6BWidget@1@@
    ??_7Dialog@Gtk@@6BObject@1@@
    ??_8Dialog@Gtk@@7BObject@Glib@@@
    ??_8Dialog@Gtk@@7BInterface@Glib@@@
    ??_8Dialog@Gtk@@7BObjectBase@Glib@@@
    ??_C@_05PHLGJONK@title?$AA@
    ??_C@_0P@LPNNJPMD@use?9header?9bar?$AA@
    ??_R0?AVObjectBase@Glib@@@8
    ??_R0?AVDialog@Gtk@@@8
    ??_R4Dialog@Gtk@@6BWidget@1@@
    ??_R3Dialog@Gtk@@8
    ??_R2Dialog@Gtk@@8
    ??_R1A@?0A@EA@Dialog@Gtk@@8
    ??_R1A@?0A@EA@Window@Gtk@@8
    ??_R0?AVWindow@Gtk@@@8
    ??_R3Window@Gtk@@8
    ??_R2Window@Gtk@@8
    ??_R1A@?0A@EA@Bin@Gtk@@8
    ??_R0?AVBin@Gtk@@@8
    ??_R3Bin@Gtk@@8
    ??_R2Bin@Gtk@@8
    ??_R1A@?0A@EA@Container@Gtk@@8
    ??_R0?AVContainer@Gtk@@@8
    ??_R3Container@Gtk@@8
    ??_R2Container@Gtk@@8
    ??_R1A@?0A@EA@Widget@Gtk@@8
    ??_R0?AVWidget@Gtk@@@8
    ??_R3Widget@Gtk@@8
    ??_R2Widget@Gtk@@8
    ??_R17?0A@EA@Object@Gtk@@8
    ??_R0?AVObject@Gtk@@@8
    ??_R3Object@Gtk@@8
    ??_R2Object@Gtk@@8
    ??_R1A@?0A@EA@Object@Gtk@@8
    ??_R1A@?0A@EA@Object@Glib@@8
    ??_R0?AVObject@Glib@@@8
    ??_R3Object@Glib@@8
    ??_R2Object@Glib@@8
    ??_R1A@A@7FA@ObjectBase@Glib@@8
    ??_R3ObjectBase@Glib@@8
    ??_R2ObjectBase@Glib@@8
    ??_R1A@?0A@EA@ObjectBase@Glib@@8
    ??_R1A@73FA@trackable@sigc@@8
    ??_R0?AUtrackable@sigc@@@8
    ??_R3trackable@sigc@@8
    ??_R2trackable@sigc@@8
    ??_R1A@?0A@EA@trackable@sigc@@8
    ??_R1A@A@3FA@trackable@sigc@@8
    ??_R17?0A@EA@Object@Glib@@8
    ??_R1A@77FA@ObjectBase@Glib@@8
    ??_R1BI@?0A@EA@Buildable@Gtk@@8
    ??_R0?AVBuildable@Gtk@@@8
    ??_R3Buildable@Gtk@@8
    ??_R2Buildable@Gtk@@8
    ??_R1A@?0A@EA@Buildable@Gtk@@8
    ??_R1A@?0A@EA@Interface@Glib@@8
    ??_R0?AVInterface@Glib@@@8
    ??_R3Interface@Glib@@8
    ??_R2Interface@Glib@@8
    ??_R1BI@?0A@EA@Interface@Glib@@8
    ??_R4Dialog@Gtk@@6BObject@1@@
    ?drawingarea_class_@DrawingArea@Gtk@@0VDrawingArea_Class@2@A
    ?__empty_global_delete@@YAXPEAX@Z
    ?__empty_global_delete@@YAXPEAX_K@Z
    ??1DrawingArea@Gtk@@UEAA@XZ
    ??0DrawingArea@Gtk@@IEAA@AEBVConstructParams@Glib@@@Z
    ??0DrawingArea@Gtk@@IEAA@PEAU_GtkDrawingArea@@@Z
    ?get_type@DrawingArea@Gtk@@SA_KXZ
    ?get_base_type@DrawingArea@Gtk@@SA_KXZ
    ??0DrawingArea@Gtk@@QEAA@XZ
    ??_DDrawingArea@Gtk@@QEAAXXZ
    ?wrap@Glib@@YAPEAVDrawingArea@Gtk@@PEAU_GtkDrawingArea@@_N@Z
    ?init@DrawingArea_Class@Gtk@@QEAAAEBVClass@Glib@@XZ
    ?class_init_function@DrawingArea_Class@Gtk@@SAXPEAX0@Z
    ?wrap_new@DrawingArea_Class@Gtk@@SAPEAVObjectBase@Glib@@PEAU_GObject@@@Z
    ??$manage@VDrawingArea@Gtk@@@Gtk@@YAPEAVDrawingArea@0@PEAV10@@Z
    ?destroy_notify_@Object@Gtk@@$2PPPPPPPM@7EAAXXZ
    ?set_manage@Object@Gtk@@$4PPPPPPPM@7EAAXXZ
    ??_7DrawingArea@Gtk@@6BWidget@1@@
    ??_7DrawingArea@Gtk@@6BObject@1@@
    ??_8DrawingArea@Gtk@@7BObject@Glib@@@
    ??_8DrawingArea@Gtk@@7BInterface@Glib@@@
    ??_8DrawingArea@Gtk@@7BObjectBase@Glib@@@
    ??_R0?AVObjectBase@Glib@@@8
    ??_R0?AVDrawingArea@Gtk@@@8
    ??_R4DrawingArea@Gtk@@6BWidget@1@@
    ??_R3DrawingArea@Gtk@@8
    ??_R2DrawingArea@Gtk@@8
    ??_R1A@?0A@EA@DrawingArea@Gtk@@8
    ??_R1A@?0A@EA@Widget@Gtk@@8
    ??_R0?AVWidget@Gtk@@@8
    ??_R3Widget@Gtk@@8
    ??_R2Widget@Gtk@@8
    ??_R17?0A@EA@Object@Gtk@@8
    ??_R0?AVObject@Gtk@@@8
    ??_R3Object@Gtk@@8
    ??_R2Object@Gtk@@8
    ??_R1A@?0A@EA@Object@Gtk@@8
    ??_R1A@?0A@EA@Object@Glib@@8
    ??_R0?AVObject@Glib@@@8
    ??_R3Object@Glib@@8
    ??_R2Object@Glib@@8
    ??_R1A@A@7FA@ObjectBase@Glib@@8
    ??_R3ObjectBase@Glib@@8
    ??_R2ObjectBase@Glib@@8
    ??_R1A@?0A@EA@ObjectBase@Glib@@8
    ??_R1A@73FA@trackable@sigc@@8
    ??_R0?AUtrackable@sigc@@@8
    ??_R3trackable@sigc@@8
    ??_R2trackable@sigc@@8
    ??_R1A@?0A@EA@trackable@sigc@@8
    ??_R1A@A@3FA@trackable@sigc@@8
    ??_R17?0A@EA@Object@Glib@@8
    ??_R1A@77FA@ObjectBase@Glib@@8
    ??_R1BI@?0A@EA@Buildable@Gtk@@8
    ??_R0?AVBuildable@Gtk@@@8
    ??_R3Buildable@Gtk@@8
    ??_R2Buildable@Gtk@@8
    ??_R1A@?0A@EA@Buildable@Gtk@@8
    ??_R1A@?0A@EA@Interface@Glib@@8
    ??_R0?AVInterface@Glib@@@8
    ??_R3Interface@Glib@@8
    ??_R2Interface@Glib@@8
    ??_R1BI@?0A@EA@Interface@Glib@@8
    ??_R4DrawingArea@Gtk@@6BObject@1@@
    ??_C@_0M@CCGIDEJE@insert_text?$AA@
    ??_C@_0M@EOIFPGKG@delete_text?$AA@
    ??_C@_07HADGPIEN@changed?$AA@
    ?editable_class_@Editable@Gtk@@0VEditable_Class@2@A
    ?__empty_global_delete@@YAXPEAX@Z
    ?__empty_global_delete@@YAXPEAX_K@Z
    ?allocate@?$allocator@D@std@@QEAAPEAD_K@Z
    ?deallocate@?$_Wrap_alloc@V?$allocator@D@std@@@std@@QEAAXPEAD_K@Z
    ?_Assign_rv@?$basic_string@DU?$char_traits@D@std@@V?$allocator@D@2@@std@@QEAAX$$QEAV12@@Z
    ?assign@?$basic_string@DU?$char_traits@D@std@@V?$allocator@D@2@@std@@QEAAAEAV12@AEBV12@_K1@Z
    ?assign@?$basic_string@DU?$char_traits@D@std@@V?$allocator@D@2@@std@@QEAAAEAV12@PEBD_K@Z
    ?erase@?$basic_string@DU?$char_traits@D@std@@V?$allocator@D@2@@std@@QEAAAEAV12@_K0@Z
    ?_Copy@?$basic_string@DU?$char_traits@D@std@@V?$allocator@D@2@@std@@QEAAX_K0@Z
    ?convert_const_gchar_ptr_to_ustring@Glib@@YA?AVustring@1@PEBD@Z
    ?convert_return_gchar_ptr_to_ustring@Glib@@YA?AVustring@1@PEAD@Z
    ??1?$ScopedPtr@D@Glib@@QEAA@XZ
    ??0Editable@Gtk@@IEAA@XZ
    ??0Editable@Gtk@@IEAA@AEBVInterface_Class@Glib@@@Z
    ??0Editable@Gtk@@QEAA@PEAU_GtkEditable@@@Z
    ??1Editable@Gtk@@UEAA@XZ
    ?add_interface@Editable@Gtk@@SAX_K@Z
    ?get_type@Editable@Gtk@@SA_KXZ
    ?get_base_type@Editable@Gtk@@SA_KXZ
    ?cut_clipboard@Editable@Gtk@@QEAAXXZ
    ?copy_clipboard@Editable@Gtk@@QEAAXXZ
    ?paste_clipboard@Editable@Gtk@@QEAAXXZ
    ?delete_selection@Editable@Gtk@@QEAAXXZ
    ?set_editable@Editable@Gtk@@QEAAX_N@Z
    ?get_editable@Editable@Gtk@@QEBA_NXZ
    ?insert_text@Editable@Gtk@@QEAAXAEBVustring@Glib@@HAEAH@Z
    ?delete_text@Editable@Gtk@@QEAAXHH@Z
    ?get_chars@Editable@Gtk@@QEBA?AVustring@Glib@@HH@Z
    ?select_region@Editable@Gtk@@QEAAXHH@Z
    ?get_selection_bounds@Editable@Gtk@@QEBA_NAEAH0@Z
    ?set_position@Editable@Gtk@@QEAAXH@Z
    ?get_position@Editable@Gtk@@QEBAHXZ
    ?signal_insert_text@Editable@Gtk@@QEAA?AV?$SignalProxy2@XAEBVustring@Glib@@PEAH@Glib@@XZ
    ?signal_delete_text@Editable@Gtk@@QEAA?AV?$SignalProxy2@XHH@Glib@@XZ
    ?signal_changed@Editable@Gtk@@QEAA?AV?$SignalProxy0@X@Glib@@XZ
    ?delete_text_vfunc@Editable@Gtk@@MEAAXHH@Z
    ?get_chars_vfunc@Editable@Gtk@@MEBA?AVustring@Glib@@HH@Z
    ?select_region_vfunc@Editable@Gtk@@MEAAXHH@Z
    ?get_selection_bounds_vfunc@Editable@Gtk@@MEBA_NAEAH0@Z
    ?set_position_vfunc@Editable@Gtk@@MEAAXH@Z
    ?get_position_vfunc@Editable@Gtk@@MEBAHXZ
    ?insert_text_vfunc@Editable@Gtk@@MEAAXAEBVustring@Glib@@AEAH@Z
    ?on_insert_text@Editable@Gtk@@MEAAXAEBVustring@Glib@@PEAH@Z
    ?on_delete_text@Editable@Gtk@@MEAAXHH@Z
    ?on_changed@Editable@Gtk@@MEAAXXZ
    ?wrap@Glib@@YA?AV?$RefPtr@VEditable@Gtk@@@1@PEAU_GtkEditable@@_N@Z
    ?init@Editable_Class@Gtk@@QEAAAEBVInterface_Class@Glib@@XZ
    ?iface_init_function@Editable_Class@Gtk@@SAXPEAX0@Z
    ?wrap_new@Editable_Class@Gtk@@SAPEAVObjectBase@Glib@@PEAU_GObject@@@Z
    ?insert_text_callback@Editable_Class@Gtk@@KAXPEAU_GtkEditable@@PEBDHPEAH@Z
    ?delete_text_callback@Editable_Class@Gtk@@KAXPEAU_GtkEditable@@HH@Z
    ?changed_callback@Editable_Class@Gtk@@KAXPEAU_GtkEditable@@@Z
    ?do_insert_text_vfunc_callback@Editable_Class@Gtk@@KAXPEAU_GtkEditable@@PEBDHPEAH@Z
    ?do_delete_text_vfunc_callback@Editable_Class@Gtk@@KAXPEAU_GtkEditable@@HH@Z
    ?get_chars_vfunc_callback@Editable_Class@Gtk@@KAPEADPEAU_GtkEditable@@HH@Z
    ?set_selection_bounds_vfunc_callback@Editable_Class@Gtk@@KAXPEAU_GtkEditable@@HH@Z
    ?get_selection_bounds_vfunc_callback@Editable_Class@Gtk@@KAHPEAU_GtkEditable@@PEAH1@Z
    ?set_position_vfunc_callback@Editable_Class@Gtk@@KAXPEAU_GtkEditable@@H@Z
    ?get_position_vfunc_callback@Editable_Class@Gtk@@KAHPEAU_GtkEditable@@@Z
    ??$?0PEBD@ustring@Glib@@QEAA@PEBD0@Z
    ??$wrap_auto_interface@VEditable@Gtk@@@Glib@@YAPEAVEditable@Gtk@@PEAU_GObject@@_N@Z
    ??0?$SequenceToString@PEBDD@ustring@Glib@@QEAA@PEBD0@Z
    ??_7Editable@Gtk@@6B01@@
    ??_7Editable@Gtk@@6BInterface@Glib@@@
    ??_8Editable@Gtk@@7BInterface@Glib@@@
    ??_8Editable@Gtk@@7BObjectBase@Glib@@@
    ??_R0?AVObjectBase@Glib@@@8
    ??_R0?AVEditable@Gtk@@@8
    ??_C@_0L@IGFGCBFO@klass?5?$CB?$DN?50?$AA@
    ??_C@_0CJ@IAHKCPCJ@Gtk?3?3Editable_Class?3?3iface_init_@
    ??_C@_0BJ@BJDJCHHL@?4?4?2gtk?2gtkmm?2editable?4cc?$AA@
    ??_C@_0BI@CFPLBAOH@invalid?5string?5position?$AA@
    ??_C@_0BA@JFNIOLAK@string?5too?5long?$AA@
    ??_C@_0FM@MEPOJGMK@Glib?3?3wrap_auto_interface?$CI?$CJ?3?5The@
    ??_R4Editable@Gtk@@6B01@@
    ??_R3Editable@Gtk@@8
    ??_R2Editable@Gtk@@8
    ??_R1A@?0A@EA@Editable@Gtk@@8
    ??_R17?0A@EA@Interface@Glib@@8
    ??_R0?AVInterface@Glib@@@8
    ??_R3Interface@Glib@@8
    ??_R2Interface@Glib@@8
    ??_R1A@?0A@EA@Interface@Glib@@8
    ??_R1A@A@7FA@ObjectBase@Glib@@8
    ??_R3ObjectBase@Glib@@8
    ??_R2ObjectBase@Glib@@8
    ??_R1A@?0A@EA@ObjectBase@Glib@@8
    ??_R1A@73FA@trackable@sigc@@8
    ??_R0?AUtrackable@sigc@@@8
    ??_R3trackable@sigc@@8
    ??_R2trackable@sigc@@8
    ??_R1A@?0A@EA@trackable@sigc@@8
    ??_R1A@A@3FA@trackable@sigc@@8
    ??_R1A@77FA@ObjectBase@Glib@@8
    ??_R4Editable@Gtk@@6BInterface@Glib@@@
    ??_C@_0BB@GOLKFAMJ@insert_at_cursor?$AA@
    ??_C@_08IFCMKJCD@activate?$AA@
    ??_C@_0N@INCFPPME@icon?9release?$AA@
    ??_C@_0L@LLINLIBO@icon?9press?$AA@
    ?entry_class_@Entry@Gtk@@0VEntry_Class@2@A
    ??_C@_0P@HAGMMHGO@populate_popup?$AA@
    ?__empty_global_delete@@YAXPEAX@Z
    ?__empty_global_delete@@YAXPEAX_K@Z
    ?convert_const_gchar_ptr_to_ustring@Glib@@YA?AVustring@1@PEBD@Z
    ?convert_return_gchar_ptr_to_ustring@Glib@@YA?AVustring@1@PEAD@Z
    ??1?$ScopedPtr@D@Glib@@QEAA@XZ
    ?value_type@?$Value@W4EntryIconPosition@Gtk@@@Glib@@SA_KXZ
    ??1Entry@Gtk@@UEAA@XZ
    ??0Entry@Gtk@@IEAA@AEBVConstructParams@Glib@@@Z
    ??0Entry@Gtk@@IEAA@PEAU_GtkEntry@@@Z
    ?get_type@Entry@Gtk@@SA_KXZ
    ?get_base_type@Entry@Gtk@@SA_KXZ
    ?on_populate_popup@Entry@Gtk@@MEAAXPEAVMenu@2@@Z
    ?on_insert_at_cursor@Entry@Gtk@@MEAAXAEBVustring@Glib@@@Z
    ?on_activate@Entry@Gtk@@MEAAXXZ
    ??0Entry@Gtk@@QEAA@XZ
    ??0Entry@Gtk@@QEAA@AEBV?$RefPtr@VEntryBuffer@Gtk@@@Glib@@@Z
    ?get_buffer@Entry@Gtk@@QEAA?AV?$RefPtr@VEntryBuffer@Gtk@@@Glib@@XZ
    ?get_buffer@Entry@Gtk@@QEBA?AV?$RefPtr@$$CBVEntryBuffer@Gtk@@@Glib@@XZ
    ?get_text_area@Entry@Gtk@@QEBA?AVRectangle@Gdk@@XZ
    ?set_buffer@Entry@Gtk@@QEAAXAEBV?$RefPtr@VEntryBuffer@Gtk@@@Glib@@@Z
    ?set_visibility@Entry@Gtk@@QEAAX_N@Z
    ?get_visibility@Entry@Gtk@@QEBA_NXZ
    ?set_invisible_char@Entry@Gtk@@QEAAXI@Z
    ?unset_invisible_char@Entry@Gtk@@QEAAXXZ
    ?get_invisible_char@Entry@Gtk@@QEBAIXZ
    ?set_has_frame@Entry@Gtk@@QEAAX_N@Z
    ?get_has_frame@Entry@Gtk@@QEBA_NXZ
    ?set_inner_border@Entry@Gtk@@QEAAXAEBVBorder@2@@Z
    ?get_inner_border@Entry@Gtk@@QEBA?AVBorder@2@XZ
    ?set_overwrite_mode@Entry@Gtk@@QEAAX_N@Z
    ?get_overwrite_mode@Entry@Gtk@@QEBA_NXZ
    ?set_max_length@Entry@Gtk@@QEAAXH@Z
    ?get_max_length@Entry@Gtk@@QEBAHXZ
    ?get_text_length@Entry@Gtk@@QEBAGXZ
    ?set_activates_default@Entry@Gtk@@QEAAX_N@Z
    ?get_activates_default@Entry@Gtk@@QEBAHXZ
    ?set_width_chars@Entry@Gtk@@QEAAXH@Z
    ?get_width_chars@Entry@Gtk@@QEBAHXZ
    ?set_max_width_chars@Entry@Gtk@@QEAAXH@Z
    ?get_max_width_chars@Entry@Gtk@@QEBAHXZ
    ?set_text@Entry@Gtk@@QEAAXAEBVustring@Glib@@@Z
    ?get_text@Entry@Gtk@@QEBA?AVustring@Glib@@XZ
    ?get_layout@Entry@Gtk@@QEAA?AV?$RefPtr@VLayout@Pango@@@Glib@@XZ
    ?get_layout@Entry@Gtk@@QEBA?AV?$RefPtr@$$CBVLayout@Pango@@@Glib@@XZ
    ?get_layout_offsets@Entry@Gtk@@QEAAXAEAH0@Z
    ?layout_index_to_text_index@Entry@Gtk@@QEBAHH@Z
    ?text_index_to_layout_index@Entry@Gtk@@QEBAHH@Z
    ?set_cursor_hadjustment@Entry@Gtk@@QEAAXAEBV?$RefPtr@VAdjustment@Gtk@@@Glib@@@Z
    ?get_cursor_hadjustment@Entry@Gtk@@QEAA?AV?$RefPtr@VAdjustment@Gtk@@@Glib@@XZ
    ?get_cursor_hadjustment@Entry@Gtk@@QEBA?AV?$RefPtr@$$CBVAdjustment@Gtk@@@Glib@@XZ
    ?set_alignment@Entry@Gtk@@QEAAXM@Z
    ?set_alignment@Entry@Gtk@@QEAAXW4Align@2@@Z
    ?get_alignment@Entry@Gtk@@QEBAMXZ
    ?set_completion@Entry@Gtk@@QEAAXAEBV?$RefPtr@VEntryCompletion@Gtk@@@Glib@@@Z
    ?get_completion@Entry@Gtk@@QEAA?AV?$RefPtr@VEntryCompletion@Gtk@@@Glib@@XZ
    ?get_completion@Entry@Gtk@@QEBA?AV?$RefPtr@$$CBVEntryCompletion@Gtk@@@Glib@@XZ
    ?set_progress_fraction@Entry@Gtk@@QEAAXN@Z
    ?get_progress_fraction@Entry@Gtk@@QEBANXZ
    ?set_progress_pulse_step@Entry@Gtk@@QEAAXN@Z
    ?get_progress_pulse_step@Entry@Gtk@@QEAANXZ
    ?progress_pulse@Entry@Gtk@@QEAAXXZ
    ?get_placeholder_text@Entry@Gtk@@QEBA?AVustring@Glib@@XZ
    ?set_placeholder_text@Entry@Gtk@@QEAAXAEBVustring@Glib@@@Z
    ?set_icon_from_pixbuf@Entry@Gtk@@QEAAXAEBV?$RefPtr@VPixbuf@Gdk@@@Glib@@W4EntryIconPosition@2@@Z
    ?set_icon_from_stock@Entry@Gtk@@QEAAXAEBVStockID@2@W4EntryIconPosition@2@@Z
    ?set_icon_from_icon_name@Entry@Gtk@@QEAAXAEBVustring@Glib@@W4EntryIconPosition@2@@Z
    ?set_icon_from_gicon@Entry@Gtk@@QEAAXAEBV?$RefPtr@VIcon@Gio@@@Glib@@W4EntryIconPosition@2@@Z
    ?unset_icon@Entry@Gtk@@QEAAXW4EntryIconPosition@2@@Z
    ?get_icon_storage_type@Entry@Gtk@@QEBA?AW4ImageType@2@W4EntryIconPosition@2@@Z
    ?get_icon_pixbuf@Entry@Gtk@@QEAA?AV?$RefPtr@VPixbuf@Gdk@@@Glib@@W4EntryIconPosition@2@@Z
    ?get_icon_pixbuf@Entry@Gtk@@QEBA?AV?$RefPtr@$$CBVPixbuf@Gdk@@@Glib@@W4EntryIconPosition@2@@Z
    ?get_icon_stock@Entry@Gtk@@QEBA?AVStockID@2@W4EntryIconPosition@2@@Z
    ?get_icon_name@Entry@Gtk@@QEBA?AVustring@Glib@@W4EntryIconPosition@2@@Z
    ?get_icon_gicon@Entry@Gtk@@QEAA?AV?$RefPtr@VIcon@Gio@@@Glib@@W4EntryIconPosition@2@@Z
    ?get_icon_gicon@Entry@Gtk@@QEBA?AV?$RefPtr@$$CBVIcon@Gio@@@Glib@@W4EntryIconPosition@2@@Z
    ?set_icon_activatable@Entry@Gtk@@QEAAX_NW4EntryIconPosition@2@@Z
    ?get_icon_activatable@Entry@Gtk@@QEBA_NW4EntryIconPosition@2@@Z
    ?set_icon_sensitive@Entry@Gtk@@QEAAXW4EntryIconPosition@2@_N@Z
    ?get_icon_sensitive@Entry@Gtk@@QEAA_NW4EntryIconPosition@2@@Z
    ?get_icon_at_pos@Entry@Gtk@@QEBAHHH@Z
    ?set_icon_tooltip_text@Entry@Gtk@@QEAAXAEBVustring@Glib@@W4EntryIconPosition@2@@Z
    ?get_icon_tooltip_text@Entry@Gtk@@QEBA?AVustring@Glib@@W4EntryIconPosition@2@@Z
    ?set_icon_tooltip_markup@Entry@Gtk@@QEAAXAEBVustring@Glib@@W4EntryIconPosition@2@@Z
    ?get_icon_tooltip_markup@Entry@Gtk@@QEBA?AVustring@Glib@@W4EntryIconPosition@2@@Z
    ?set_icon_drag_source@Entry@Gtk@@QEAAXAEBV?$RefPtr@VTargetList@Gtk@@@Glib@@W4DragAction@Gdk@@W4EntryIconPosition@2@@Z
    ?get_icon_area@Entry@Gtk@@QEBA?AVRectangle@Gdk@@W4EntryIconPosition@2@@Z
    ?get_current_icon_drag_source@Entry@Gtk@@QEAAHXZ
    ?im_context_filter_keypress@Entry@Gtk@@QEAA_NPEAU_GdkEventKey@@@Z
    ?reset_im_context@Entry@Gtk@@QEAAXXZ
    ?set_input_purpose@Entry@Gtk@@QEAAXW4InputPurpose@2@@Z
    ?get_input_purpose@Entry@Gtk@@QEBA?AW4InputPurpose@2@XZ
    ?set_input_hints@Entry@Gtk@@QEAAXW4InputHints@2@@Z
    ?get_input_hints@Entry@Gtk@@QEBA?AW4InputHints@2@XZ
    ?set_attributes@Entry@Gtk@@QEAAXAEAVAttrList@Pango@@@Z
    ?get_attributes@Entry@Gtk@@QEBA?AVAttrList@Pango@@XZ
    ?set_tabs@Entry@Gtk@@QEAAXAEBVTabArray@Pango@@@Z
    ?get_tabs@Entry@Gtk@@QEBA?AVTabArray@Pango@@XZ
    ?signal_populate_popup@Entry@Gtk@@QEAA?AV?$SignalProxy1@XPEAVMenu@Gtk@@@Glib@@XZ
    ?signal_insert_at_cursor@Entry@Gtk@@QEAA?AV?$SignalProxy1@XAEBVustring@Glib@@@Glib@@XZ
    ?signal_activate@Entry@Gtk@@QEAA?AV?$SignalProxy0@X@Glib@@XZ
    ?signal_icon_release@Entry@Gtk@@QEAA?AV?$SignalProxy2@XW4EntryIconPosition@Gtk@@PEBU_GdkEventButton@@@Glib@@XZ
    ?signal_icon_press@Entry@Gtk@@QEAA?AV?$SignalProxy2@XW4EntryIconPosition@Gtk@@PEBU_GdkEventButton@@@Glib@@XZ
    ?property_buffer@Entry@Gtk@@QEAA?AV?$PropertyProxy@V?$RefPtr@VEntryBuffer@Gtk@@@Glib@@@Glib@@XZ
    ?property_buffer@Entry@Gtk@@QEBA?AV?$PropertyProxy_ReadOnly@V?$RefPtr@VEntryBuffer@Gtk@@@Glib@@@Glib@@XZ
    ?property_cursor_position@Entry@Gtk@@QEBA?AV?$PropertyProxy_ReadOnly@H@Glib@@XZ
    ?property_selection_bound@Entry@Gtk@@QEBA?AV?$PropertyProxy_ReadOnly@H@Glib@@XZ
    ?property_editable@Entry@Gtk@@QEAA?AV?$PropertyProxy@_N@Glib@@XZ
    ?property_editable@Entry@Gtk@@QEBA?AV?$PropertyProxy_ReadOnly@_N@Glib@@XZ
    ?property_max_length@Entry@Gtk@@QEAA?AV?$PropertyProxy@H@Glib@@XZ
    ?property_max_length@Entry@Gtk@@QEBA?AV?$PropertyProxy_ReadOnly@H@Glib@@XZ
    ?property_visibility@Entry@Gtk@@QEAA?AV?$PropertyProxy@_N@Glib@@XZ
    ?property_visibility@Entry@Gtk@@QEBA?AV?$PropertyProxy_ReadOnly@_N@Glib@@XZ
    ?property_has_frame@Entry@Gtk@@QEAA?AV?$PropertyProxy@_N@Glib@@XZ
    ?property_has_frame@Entry@Gtk@@QEBA?AV?$PropertyProxy_ReadOnly@_N@Glib@@XZ
    ?property_inner_border@Entry@Gtk@@QEAA?AV?$PropertyProxy@VBorder@Gtk@@@Glib@@XZ
    ?property_inner_border@Entry@Gtk@@QEBA?AV?$PropertyProxy_ReadOnly@VBorder@Gtk@@@Glib@@XZ
    ?property_invisible_char@Entry@Gtk@@QEAA?AV?$PropertyProxy@I@Glib@@XZ
    ?property_invisible_char@Entry@Gtk@@QEBA?AV?$PropertyProxy_ReadOnly@I@Glib@@XZ
    ?property_invisible_char_set@Entry@Gtk@@QEAA?AV?$PropertyProxy@_N@Glib@@XZ
    ?property_invisible_char_set@Entry@Gtk@@QEBA?AV?$PropertyProxy_ReadOnly@_N@Glib@@XZ
    ?property_activates_default@Entry@Gtk@@QEAA?AV?$PropertyProxy@_N@Glib@@XZ
    ?property_activates_default@Entry@Gtk@@QEBA?AV?$PropertyProxy_ReadOnly@_N@Glib@@XZ
    ?property_width_chars@Entry@Gtk@@QEAA?AV?$PropertyProxy@H@Glib@@XZ
    ?property_width_chars@Entry@Gtk@@QEBA?AV?$PropertyProxy_ReadOnly@H@Glib@@XZ
    ?property_max_width_chars@Entry@Gtk@@QEAA?AV?$PropertyProxy@H@Glib@@XZ
    ?property_max_width_chars@Entry@Gtk@@QEBA?AV?$PropertyProxy_ReadOnly@H@Glib@@XZ
    ?property_scroll_offset@Entry@Gtk@@QEBA?AV?$PropertyProxy_ReadOnly@H@Glib@@XZ
    ?property_shadow_type@Entry@Gtk@@QEAA?AV?$PropertyProxy@W4ShadowType@Gtk@@@Glib@@XZ
    ?property_shadow_type@Entry@Gtk@@QEBA?AV?$PropertyProxy_ReadOnly@W4ShadowType@Gtk@@@Glib@@XZ
    ?property_text@Entry@Gtk@@QEAA?AV?$PropertyProxy@Vustring@Glib@@@Glib@@XZ
    ?property_text@Entry@Gtk@@QEBA?AV?$PropertyProxy_ReadOnly@Vustring@Glib@@@Glib@@XZ
    ?property_xalign@Entry@Gtk@@QEAA?AV?$PropertyProxy@M@Glib@@XZ
    ?property_xalign@Entry@Gtk@@QEBA?AV?$PropertyProxy_ReadOnly@M@Glib@@XZ
    ?property_truncate_multiline@Entry@Gtk@@QEAA?AV?$PropertyProxy@_N@Glib@@XZ
    ?property_truncate_multiline@Entry@Gtk@@QEBA?AV?$PropertyProxy_ReadOnly@_N@Glib@@XZ
    ?property_overwrite_mode@Entry@Gtk@@QEAA?AV?$PropertyProxy@_N@Glib@@XZ
    ?property_overwrite_mode@Entry@Gtk@@QEBA?AV?$PropertyProxy_ReadOnly@_N@Glib@@XZ
    ?property_text_length@Entry@Gtk@@QEBA?AV?$PropertyProxy_ReadOnly@I@Glib@@XZ
    ?property_caps_lock_warning@Entry@Gtk@@QEAA?AV?$PropertyProxy@_N@Glib@@XZ
    ?property_caps_lock_warning@Entry@Gtk@@QEBA?AV?$PropertyProxy_ReadOnly@_N@Glib@@XZ
    ?property_progress_fraction@Entry@Gtk@@QEAA?AV?$PropertyProxy@N@Glib@@XZ
    ?property_progress_fraction@Entry@Gtk@@QEBA?AV?$PropertyProxy_ReadOnly@N@Glib@@XZ
    ?property_progress_pulse_step@Entry@Gtk@@QEAA?AV?$PropertyProxy@N@Glib@@XZ
    ?property_progress_pulse_step@Entry@Gtk@@QEBA?AV?$PropertyProxy_ReadOnly@N@Glib@@XZ
    ?property_primary_icon_pixbuf@Entry@Gtk@@QEAA?AV?$PropertyProxy@V?$RefPtr@VPixbuf@Gdk@@@Glib@@@Glib@@XZ
    ?property_primary_icon_pixbuf@Entry@Gtk@@QEBA?AV?$PropertyProxy_ReadOnly@V?$RefPtr@VPixbuf@Gdk@@@Glib@@@Glib@@XZ
    ?property_secondary_icon_pixbuf@Entry@Gtk@@QEAA?AV?$PropertyProxy@V?$RefPtr@VPixbuf@Gdk@@@Glib@@@Glib@@XZ
    ?property_secondary_icon_pixbuf@Entry@Gtk@@QEBA?AV?$PropertyProxy_ReadOnly@V?$RefPtr@VPixbuf@Gdk@@@Glib@@@Glib@@XZ
    ?property_primary_icon_stock@Entry@Gtk@@QEAA?AV?$PropertyProxy@VStockID@Gtk@@@Glib@@XZ
    ?property_primary_icon_stock@Entry@Gtk@@QEBA?AV?$PropertyProxy_ReadOnly@VStockID@Gtk@@@Glib@@XZ
    ?property_secondary_icon_stock@Entry@Gtk@@QEAA?AV?$PropertyProxy@VStockID@Gtk@@@Glib@@XZ
    ?property_secondary_icon_stock@Entry@Gtk@@QEBA?AV?$PropertyProxy_ReadOnly@VStockID@Gtk@@@Glib@@XZ
    ?property_primary_icon_name@Entry@Gtk@@QEAA?AV?$PropertyProxy@Vustring@Glib@@@Glib@@XZ
    ?property_primary_icon_name@Entry@Gtk@@QEBA?AV?$PropertyProxy_ReadOnly@Vustring@Glib@@@Glib@@XZ
    ?property_secondary_icon_name@Entry@Gtk@@QEAA?AV?$PropertyProxy@Vustring@Glib@@@Glib@@XZ
    ?property_secondary_icon_name@Entry@Gtk@@QEBA?AV?$PropertyProxy_ReadOnly@Vustring@Glib@@@Glib@@XZ
    ?property_primary_icon_gicon@Entry@Gtk@@QEAA?AV?$PropertyProxy@V?$RefPtr@VIcon@Gio@@@Glib@@@Glib@@XZ
    ?property_primary_icon_gicon@Entry@Gtk@@QEBA?AV?$PropertyProxy_ReadOnly@V?$RefPtr@VIcon@Gio@@@Glib@@@Glib@@XZ
    ?property_secondary_icon_gicon@Entry@Gtk@@QEAA?AV?$PropertyProxy@V?$RefPtr@VIcon@Gio@@@Glib@@@Glib@@XZ
    ?property_secondary_icon_gicon@Entry@Gtk@@QEBA?AV?$PropertyProxy_ReadOnly@V?$RefPtr@VIcon@Gio@@@Glib@@@Glib@@XZ
    ?property_primary_icon_storage_type@Entry@Gtk@@QEBA?AV?$PropertyProxy_ReadOnly@W4ImageType@Gtk@@@Glib@@XZ
    ?property_secondary_icon_storage_type@Entry@Gtk@@QEBA?AV?$PropertyProxy_ReadOnly@W4ImageType@Gtk@@@Glib@@XZ
    ?property_primary_icon_activatable@Entry@Gtk@@QEAA?AV?$PropertyProxy@_N@Glib@@XZ
    ?property_primary_icon_activatable@Entry@Gtk@@QEBA?AV?$PropertyProxy_ReadOnly@_N@Glib@@XZ
    ?property_secondary_icon_activatable@Entry@Gtk@@QEAA?AV?$PropertyProxy@_N@Glib@@XZ
    ?property_secondary_icon_activatable@Entry@Gtk@@QEBA?AV?$PropertyProxy_ReadOnly@_N@Glib@@XZ
    ?property_primary_icon_sensitive@Entry@Gtk@@QEAA?AV?$PropertyProxy@_N@Glib@@XZ
    ?property_primary_icon_sensitive@Entry@Gtk@@QEBA?AV?$PropertyProxy_ReadOnly@_N@Glib@@XZ
    ?property_secondary_icon_sensitive@Entry@Gtk@@QEAA?AV?$PropertyProxy@_N@Glib@@XZ
    ?property_secondary_icon_sensitive@Entry@Gtk@@QEBA?AV?$PropertyProxy_ReadOnly@_N@Glib@@XZ
    ?property_primary_icon_tooltip_text@Entry@Gtk@@QEAA?AV?$PropertyProxy@_N@Glib@@XZ
    ?property_primary_icon_tooltip_text@Entry@Gtk@@QEBA?AV?$PropertyProxy_ReadOnly@_N@Glib@@XZ
    ?property_secondary_icon_tooltip_text@Entry@Gtk@@QEAA?AV?$PropertyProxy@_N@Glib@@XZ
    ?property_secondary_icon_tooltip_text@Entry@Gtk@@QEBA?AV?$PropertyProxy_ReadOnly@_N@Glib@@XZ
    ?property_primary_icon_tooltip_markup@Entry@Gtk@@QEAA?AV?$PropertyProxy@_N@Glib@@XZ
    ?property_primary_icon_tooltip_markup@Entry@Gtk@@QEBA?AV?$PropertyProxy_ReadOnly@_N@Glib@@XZ
    ?property_secondary_icon_tooltip_markup@Entry@Gtk@@QEAA?AV?$PropertyProxy@_N@Glib@@XZ
    ?property_secondary_icon_tooltip_markup@Entry@Gtk@@QEBA?AV?$PropertyProxy_ReadOnly@_N@Glib@@XZ
    ?property_im_module@Entry@Gtk@@QEAA?AV?$PropertyProxy@Vustring@Glib@@@Glib@@XZ
    ?property_im_module@Entry@Gtk@@QEBA?AV?$PropertyProxy_ReadOnly@Vustring@Glib@@@Glib@@XZ
    ?property_placeholder_text@Entry@Gtk@@QEAA?AV?$PropertyProxy@Vustring@Glib@@@Glib@@XZ
    ?property_placeholder_text@Entry@Gtk@@QEBA?AV?$PropertyProxy_ReadOnly@Vustring@Glib@@@Glib@@XZ
    ?property_completion@Entry@Gtk@@QEAA?AV?$PropertyProxy@V?$RefPtr@VEntryCompletion@Gtk@@@Glib@@@Glib@@XZ
    ?property_completion@Entry@Gtk@@QEBA?AV?$PropertyProxy_ReadOnly@V?$RefPtr@VEntryCompletion@Gtk@@@Glib@@@Glib@@XZ
    ?property_input_purpose@Entry@Gtk@@QEAA?AV?$PropertyProxy@W4InputPurpose@Gtk@@@Glib@@XZ
    ?property_input_purpose@Entry@Gtk@@QEBA?AV?$PropertyProxy_ReadOnly@W4InputPurpose@Gtk@@@Glib@@XZ
    ?property_input_hints@Entry@Gtk@@QEAA?AV?$PropertyProxy@W4InputHints@Gtk@@@Glib@@XZ
    ?property_input_hints@Entry@Gtk@@QEBA?AV?$PropertyProxy_ReadOnly@W4InputHints@Gtk@@@Glib@@XZ
    ?property_attributes@Entry@Gtk@@QEAA?AV?$PropertyProxy@VAttrList@Pango@@@Glib@@XZ
    ?property_attributes@Entry@Gtk@@QEBA?AV?$PropertyProxy_ReadOnly@VAttrList@Pango@@@Glib@@XZ
    ?property_populate_all@Entry@Gtk@@QEAA?AV?$PropertyProxy@_N@Glib@@XZ
    ?property_populate_all@Entry@Gtk@@QEBA?AV?$PropertyProxy_ReadOnly@_N@Glib@@XZ
    ?property_tabs@Entry@Gtk@@QEAA?AV?$PropertyProxy@VTabArray@Pango@@@Glib@@XZ
    ?property_tabs@Entry@Gtk@@QEBA?AV?$PropertyProxy_ReadOnly@VTabArray@Pango@@@Glib@@XZ
    ?wrap@Glib@@YAPEAVEntry@Gtk@@PEAU_GtkEntry@@_N@Z
    ?init@Entry_Class@Gtk@@QEAAAEBVClass@Glib@@XZ
    ?class_init_function@Entry_Class@Gtk@@SAXPEAX0@Z
    ?wrap_new@Entry_Class@Gtk@@SAPEAVObjectBase@Glib@@PEAU_GObject@@@Z
    ?populate_popup_callback@Entry_Class@Gtk@@KAXPEAU_GtkEntry@@PEAU_GtkWidget@@@Z
    ?insert_at_cursor_callback@Entry_Class@Gtk@@KAXPEAU_GtkEntry@@PEBD@Z
    ?activate_callback@Entry_Class@Gtk@@KAXPEAU_GtkEntry@@@Z
    ??1?$RefPtr@VPixbuf@Gdk@@@Glib@@QEAA@XZ
    ??1?$RefPtr@$$CBVPixbuf@Gdk@@@Glib@@QEAA@XZ
    ??1?$RefPtr@VIcon@Gio@@@Glib@@QEAA@XZ
    ??1?$RefPtr@$$CBVIcon@Gio@@@Glib@@QEAA@XZ
    ??1?$RefPtr@VEntryBuffer@Gtk@@@Glib@@QEAA@XZ
    ??$manage@VEntry@Gtk@@@Gtk@@YAPEAVEntry@0@PEAV10@@Z
    ??1?$RefPtr@$$CBVEntryBuffer@Gtk@@@Glib@@QEAA@XZ
    ??1?$RefPtr@VLayout@Pango@@@Glib@@QEAA@XZ
    ??1?$RefPtr@$$CBVLayout@Pango@@@Glib@@QEAA@XZ
    ??1?$RefPtr@VAdjustment@Gtk@@@Glib@@QEAA@XZ
    ??1?$RefPtr@$$CBVAdjustment@Gtk@@@Glib@@QEAA@XZ
    ??1?$RefPtr@VEntryCompletion@Gtk@@@Glib@@QEAA@XZ
    ??1?$RefPtr@$$CBVEntryCompletion@Gtk@@@Glib@@QEAA@XZ
    ?destroy_notify_@Object@Gtk@@$2PPPPPPPM@CI@EAAXXZ
    ?set_manage@Object@Gtk@@$4PPPPPPPM@CI@EAAXXZ
    ??_7Entry@Gtk@@6BWidget@1@@
    ??_7Entry@Gtk@@6BEditable@1@@
    ??_7Entry@Gtk@@6BCellEditable@1@@
    ??_7Entry@Gtk@@6BObject@1@@
    ??_8Entry@Gtk@@7BObject@Glib@@@
    ??_8Entry@Gtk@@7BInterface@Glib@@Widget@1@@
    ??_8Entry@Gtk@@7BInterface@Glib@@Editable@1@@
    ??_8Entry@Gtk@@7BInterface@Glib@@CellEditable@1@@
    ??_8Entry@Gtk@@7BObjectBase@Glib@@@
    ??_R0?AVObjectBase@Glib@@@8
    ??_R0?AVEntry@Gtk@@@8
    ??_C@_06HOHPNJLC@buffer?$AA@
    ??_C@_0BA@IFJIMPCF@cursor?9position?$AA@
    ??_C@_0BA@LENEHNBJ@selection?9bound?$AA@
    ??_C@_08LJAEALMJ@editable?$AA@
    ??_C@_0L@HCBFHDOF@max?9length?$AA@
    ??_C@_0L@CNKMJODB@visibility?$AA@
    ??_C@_09JPEIIANK@has?9frame?$AA@
    ??_C@_0N@LAAMBJAE@inner?9border?$AA@
    ??_C@_0P@FNIPJLNL@invisible?9char?$AA@
    ??_C@_0BD@OMEGJBLK@invisible?9char?9set?$AA@
    ??_C@_0BC@IHHBGOIM@activates?9default?$AA@
    ??_C@_0M@NAJJGLMC@width?9chars?$AA@
    ??_C@_0BA@KBFNDBNF@max?9width?9chars?$AA@
    ??_C@_0O@NKDFNCIH@scroll?9offset?$AA@
    ??_C@_0M@MPGLLGPO@shadow?9type?$AA@
    ??_C@_04CIMGMMMG@text?$AA@
    ??_C@_06NCLGNLHL@xalign?$AA@
    ??_C@_0BD@FKILPPEK@truncate?9multiline?$AA@
    ??_C@_0P@DNOKJDOO@overwrite?9mode?$AA@
    ??_C@_0M@MCEHAGJO@text?9length?$AA@
    ??_C@_0BC@ELFEFBOJ@caps?9lock?9warning?$AA@
    ??_C@_0BC@IJNOMLON@progress?9fraction?$AA@
    ??_C@_0BE@GAPKLOIP@progress?9pulse?9step?$AA@
    ??_C@_0BE@JEOJAEMA@primary?9icon?9pixbuf?$AA@
    ??_C@_0BG@OENPFEMH@secondary?9icon?9pixbuf?$AA@
    ??_C@_0BD@CPEHJLLH@primary?9icon?9stock?$AA@
    ??_C@_0BF@HDODBDLC@secondary?9icon?9stock?$AA@
    ??_C@_0BC@FIOOAPJK@primary?9icon?9name?$AA@
    ??_C@_0BE@EPAMAOCB@secondary?9icon?9name?$AA@
    ??_C@_0BD@BBMLDKJA@primary?9icon?9gicon?$AA@
    ??_C@_0BF@ENGPLCJF@secondary?9icon?9gicon?$AA@
    ??_C@_0BK@DDDPEOHE@primary?9icon?9storage?9type?$AA@
    ??_C@_0BM@JHJIHOCK@secondary?9icon?9storage?9type?$AA@
    ??_C@_0BJ@IPLDOGJA@primary?9icon?9activatable?$AA@
    ??_C@_0BL@PJEHNFPG@secondary?9icon?9activatable?$AA@
    ??_C@_0BH@DKIHNLEG@primary?9icon?9sensitive?$AA@
    ??_C@_0BJ@EKMJAFHO@secondary?9icon?9sensitive?$AA@
    ??_C@_0BK@ILJPIMGP@primary?9icon?9tooltip?9text?$AA@
    ??_C@_0BM@CPDILMDB@secondary?9icon?9tooltip?9text?$AA@
    ??_C@_0BM@FAHDCENC@primary?9icon?9tooltip?9markup?$AA@
    ??_C@_0BO@FCJCMAAD@secondary?9icon?9tooltip?9markup?$AA@
    ??_C@_09IEAPBFGI@im?9module?$AA@
    ??_C@_0BB@LKJBDCIF@placeholder?9text?$AA@
    ??_C@_0L@JKHIJKHO@completion?$AA@
    ??_C@_0O@FPLJJDEL@input?9purpose?$AA@
    ??_C@_0M@FOIOEIB@input?9hints?$AA@
    ??_C@_0L@HNMJPKNA@attributes?$AA@
    ??_C@_0N@CKLNPPNH@populate?9all?$AA@
    ??_C@_04PJFEOLPA@tabs?$AA@
    ??_R4Entry@Gtk@@6BWidget@1@@
    ??_R3Entry@Gtk@@8
    ??_R2Entry@Gtk@@8
    ??_R1A@?0A@EA@Entry@Gtk@@8
    ??_R1A@?0A@EA@Widget@Gtk@@8
    ??_R0?AVWidget@Gtk@@@8
    ??_R3Widget@Gtk@@8
    ??_R2Widget@Gtk@@8
    ??_R17?0A@EA@Object@Gtk@@8
    ??_R0?AVObject@Gtk@@@8
    ??_R3Object@Gtk@@8
    ??_R2Object@Gtk@@8
    ??_R1A@?0A@EA@Object@Gtk@@8
    ??_R1A@?0A@EA@Object@Glib@@8
    ??_R0?AVObject@Glib@@@8
    ??_R3Object@Glib@@8
    ??_R2Object@Glib@@8
    ??_R1A@A@7FA@ObjectBase@Glib@@8
    ??_R3ObjectBase@Glib@@8
    ??_R2ObjectBase@Glib@@8
    ??_R1A@?0A@EA@ObjectBase@Glib@@8
    ??_R1A@73FA@trackable@sigc@@8
    ??_R0?AUtrackable@sigc@@@8
    ??_R3trackable@sigc@@8
    ??_R2trackable@sigc@@8
    ??_R1A@?0A@EA@trackable@sigc@@8
    ??_R1A@A@3FA@trackable@sigc@@8
    ??_R17?0A@EA@Object@Glib@@8
    ??_R1A@77FA@ObjectBase@Glib@@8
    ??_R1BI@?0A@EA@Buildable@Gtk@@8
    ??_R0?AVBuildable@Gtk@@@8
    ??_R3Buildable@Gtk@@8
    ??_R2Buildable@Gtk@@8
    ??_R1A@?0A@EA@Buildable@Gtk@@8
    ??_R1A@?0A@EA@Interface@Glib@@8
    ??_R0?AVInterface@Glib@@@8
    ??_R3Interface@Glib@@8
    ??_R2Interface@Glib@@8
    ??_R1BI@?0A@EA@Interface@Glib@@8
    ??_R1BI@?0A@EC@Interface@Glib@@8
    ??_R1CA@?0A@EA@Editable@Gtk@@8
    ??_R0?AVEditable@Gtk@@@8
    ??_R3Editable@Gtk@@8
    ??_R2Editable@Gtk@@8
    ??_R1A@?0A@EA@Editable@Gtk@@8
    ??_R17?0A@EA@Interface@Glib@@8
    ??_R1CI@?0A@EC@Interface@Glib@@8
    ??_R1DA@?0A@EA@CellEditable@Gtk@@8
    ??_R0?AVCellEditable@Gtk@@@8
    ??_R3CellEditable@Gtk@@8
    ??_R2CellEditable@Gtk@@8
    ??_R1A@?0A@EA@CellEditable@Gtk@@8
    ??_R1DI@?0A@EC@Interface@Glib@@8
    ??_R4Entry@Gtk@@6BEditable@1@@
    ??_R4Entry@Gtk@@6BCellEditable@1@@
    ??_R4Entry@Gtk@@6BObject@1@@
    ??_C@_0O@JIKFJKFI@inserted?9text?$AA@
    ??_C@_0N@DKEFPFK@deleted?9text?$AA@
    ?entrybuffer_class_@EntryBuffer@Gtk@@0VEntryBuffer_Class@2@A
    ?__empty_global_delete@@YAXPEAX@Z
    ?__empty_global_delete@@YAXPEAX_K@Z
    ?convert_const_gchar_ptr_to_ustring@Glib@@YA?AVustring@1@PEBD@Z
    ??0EntryBuffer@Gtk@@IEAA@AEBVConstructParams@Glib@@@Z
    ??0EntryBuffer@Gtk@@IEAA@PEAU_GtkEntryBuffer@@@Z
    ??1EntryBuffer@Gtk@@UEAA@XZ
    ?get_type@EntryBuffer@Gtk@@SA_KXZ
    ?get_base_type@EntryBuffer@Gtk@@SA_KXZ
    ?gobj_copy@EntryBuffer@Gtk@@QEAAPEAU_GtkEntryBuffer@@XZ
    ??0EntryBuffer@Gtk@@IEAA@XZ
    ??0EntryBuffer@Gtk@@IEAA@AEBVustring@Glib@@@Z
    ?create@EntryBuffer@Gtk@@SA?AV?$RefPtr@VEntryBuffer@Gtk@@@Glib@@XZ
    ?create@EntryBuffer@Gtk@@SA?AV?$RefPtr@VEntryBuffer@Gtk@@@Glib@@AEBVustring@4@@Z
    ?get_bytes@EntryBuffer@Gtk@@QEBA_KXZ
    ?get_length@EntryBuffer@Gtk@@QEBAIXZ
    ?get_text@EntryBuffer@Gtk@@QEBA?AVustring@Glib@@XZ
    ?set_text@EntryBuffer@Gtk@@QEAAXAEBVustring@Glib@@@Z
    ?set_max_length@EntryBuffer@Gtk@@QEAAXH@Z
    ?get_max_length@EntryBuffer@Gtk@@QEBAHXZ
    ?insert_text@EntryBuffer@Gtk@@QEAAIIAEBVustring@Glib@@@Z
    ?delete_text@EntryBuffer@Gtk@@QEAAIIH@Z
    ?emit_inserted_text@EntryBuffer@Gtk@@QEAAXIAEBVustring@Glib@@@Z
    ?emit_deleted_text@EntryBuffer@Gtk@@QEAAXII@Z
    ?signal_inserted_text@EntryBuffer@Gtk@@QEAA?AV?$SignalProxy3@XIPEBDI@Glib@@XZ
    ?signal_deleted_text@EntryBuffer@Gtk@@QEAA?AV?$SignalProxy2@XII@Glib@@XZ
    ?property_text@EntryBuffer@Gtk@@QEAA?AV?$PropertyProxy@Vustring@Glib@@@Glib@@XZ
    ?property_text@EntryBuffer@Gtk@@QEBA?AV?$PropertyProxy_ReadOnly@Vustring@Glib@@@Glib@@XZ
    ?property_length@EntryBuffer@Gtk@@QEBA?AV?$PropertyProxy_ReadOnly@I@Glib@@XZ
    ?property_max_length@EntryBuffer@Gtk@@QEAA?AV?$PropertyProxy@H@Glib@@XZ
    ?property_max_length@EntryBuffer@Gtk@@QEBA?AV?$PropertyProxy_ReadOnly@H@Glib@@XZ
    ?on_inserted_text@EntryBuffer@Gtk@@MEAAXIPEBDI@Z
    ?on_deleted_text@EntryBuffer@Gtk@@MEAAXII@Z
    ?wrap@Glib@@YA?AV?$RefPtr@VEntryBuffer@Gtk@@@1@PEAU_GtkEntryBuffer@@_N@Z
    ?init@EntryBuffer_Class@Gtk@@QEAAAEBVClass@Glib@@XZ
    ?class_init_function@EntryBuffer_Class@Gtk@@SAXPEAX0@Z
    ?wrap_new@EntryBuffer_Class@Gtk@@SAPEAVObjectBase@Glib@@PEAU_GObject@@@Z
    ?inserted_text_callback@EntryBuffer_Class@Gtk@@KAXPEAU_GtkEntryBuffer@@IPEBDI@Z
    ?deleted_text_callback@EntryBuffer_Class@Gtk@@KAXPEAU_GtkEntryBuffer@@II@Z
    ??_7EntryBuffer@Gtk@@6B01@@
    ??_7EntryBuffer@Gtk@@6BObject@Glib@@@
    ??_8EntryBuffer@Gtk@@7BObject@Glib@@@
    ??_8EntryBuffer@Gtk@@7BObjectBase@Glib@@@
    ??_R0?AVObjectBase@Glib@@@8
    ??_R0?AVEntryBuffer@Gtk@@@8
    ??_C@_04CIMGMMMG@text?$AA@
    ??_C@_06IJDLPEM@length?$AA@
    ??_C@_0L@HCBFHDOF@max?9length?$AA@
    ??_R4EntryBuffer@Gtk@@6B01@@
    ??_R3EntryBuffer@Gtk@@8
    ??_R2EntryBuffer@Gtk@@8
    ??_R1A@?0A@EA@EntryBuffer@Gtk@@8
    ??_R17?0A@EA@Object@Glib@@8
    ??_R0?AVObject@Glib@@@8
    ??_R3Object@Glib@@8
    ??_R2Object@Glib@@8
    ??_R1A@?0A@EA@Object@Glib@@8
    ??_R1A@A@7FA@ObjectBase@Glib@@8
    ??_R3ObjectBase@Glib@@8
    ??_R2ObjectBase@Glib@@8
    ??_R1A@?0A@EA@ObjectBase@Glib@@8
    ??_R1A@73FA@trackable@sigc@@8
    ??_R0?AUtrackable@sigc@@@8
    ??_R3trackable@sigc@@8
    ??_R2trackable@sigc@@8
    ??_R1A@?0A@EA@trackable@sigc@@8
    ??_R1A@A@3FA@trackable@sigc@@8
    ??_R1A@77FA@ObjectBase@Glib@@8
    ??_R4EntryBuffer@Gtk@@6BObject@Glib@@@
    ??_C@_0P@DAAPNDHD@match_selected?$AA@
    ??_C@_0BA@OEIMPBC@cursor_on_match?$AA@
    ??_C@_0BB@MANBJJLC@action_activated?$AA@
    ?entrycompletion_class_@EntryCompletion@Gtk@@0VEntryCompletion_Class@2@A
    ??_C@_0O@BMIFEAIF@insert_prefix?$AA@
    ??_C@_0L@IHEPGOBE@no_matches?$AA@
    ?__empty_global_delete@@YAXPEAX@Z
    ?__empty_global_delete@@YAXPEAX_K@Z
    ?convert_const_gchar_ptr_to_ustring@Glib@@YA?AVustring@1@PEBD@Z
    ?convert_return_gchar_ptr_to_ustring@Glib@@YA?AVustring@1@PEAD@Z
    ??1?$ScopedPtr@D@Glib@@QEAA@XZ
    ??0EntryCompletion@Gtk@@IEAA@AEBVConstructParams@Glib@@@Z
    ??0EntryCompletion@Gtk@@IEAA@PEAU_GtkEntryCompletion@@@Z
    ??1EntryCompletion@Gtk@@UEAA@XZ
    ?get_type@EntryCompletion@Gtk@@SA_KXZ
    ?get_base_type@EntryCompletion@Gtk@@SA_KXZ
    ?gobj_copy@EntryCompletion@Gtk@@QEAAPEAU_GtkEntryCompletion@@XZ
    ??0EntryCompletion@Gtk@@IEAA@XZ
    ?create@EntryCompletion@Gtk@@SA?AV?$RefPtr@VEntryCompletion@Gtk@@@Glib@@XZ
    ?get_entry@EntryCompletion@Gtk@@QEAAPEAVEntry@2@XZ
    ?get_entry@EntryCompletion@Gtk@@QEBAPEBVEntry@2@XZ
    ?set_model@EntryCompletion@Gtk@@QEAAXAEBV?$RefPtr@VTreeModel@Gtk@@@Glib@@@Z
    ?get_model@EntryCompletion@Gtk@@QEAA?AV?$RefPtr@VTreeModel@Gtk@@@Glib@@XZ
    ?get_model@EntryCompletion@Gtk@@QEBA?AV?$RefPtr@$$CBVTreeModel@Gtk@@@Glib@@XZ
    ?unset_model@EntryCompletion@Gtk@@QEAAXXZ
    ?set_match_func@EntryCompletion@Gtk@@QEAAXAEBV?$slot@_NAEBVustring@Glib@@AEBVTreeIter@Gtk@@Unil@sigc@@U56@U56@U56@U56@@sigc@@@Z
    ?set_minimum_key_length@EntryCompletion@Gtk@@QEAAXH@Z
    ?get_minimum_key_length@EntryCompletion@Gtk@@QEBAHXZ
    ?compute_prefix@EntryCompletion@Gtk@@QEAA?AVustring@Glib@@AEBV34@@Z
    ?complete@EntryCompletion@Gtk@@QEAAXXZ
    ?insert_prefix@EntryCompletion@Gtk@@QEAAXXZ
    ?insert_action_text@EntryCompletion@Gtk@@QEAAXAEBVustring@Glib@@H@Z
    ?prepend_action_text@EntryCompletion@Gtk@@QEAAXAEBVustring@Glib@@@Z
    ?insert_action_markup@EntryCompletion@Gtk@@QEAAXAEBVustring@Glib@@H@Z
    ?prepend_action_markup@EntryCompletion@Gtk@@QEAAXAEBVustring@Glib@@@Z
    ?delete_action@EntryCompletion@Gtk@@QEAAXH@Z
    ?set_inline_completion@EntryCompletion@Gtk@@QEAAX_N@Z
    ?get_inline_completion@EntryCompletion@Gtk@@QEBA_NXZ
    ?set_inline_selection@EntryCompletion@Gtk@@QEAAX_N@Z
    ?get_inline_selection@EntryCompletion@Gtk@@QEBA_NXZ
    ?set_popup_completion@EntryCompletion@Gtk@@QEAAX_N@Z
    ?get_popup_completion@EntryCompletion@Gtk@@QEBA_NXZ
    ?set_popup_set_width@EntryCompletion@Gtk@@QEAAX_N@Z
    ?get_popup_set_width@EntryCompletion@Gtk@@QEBA_NXZ
    ?set_popup_single_match@EntryCompletion@Gtk@@QEAAX_N@Z
    ?get_popup_single_match@EntryCompletion@Gtk@@QEBA_NXZ
    ?get_completion_prefix@EntryCompletion@Gtk@@QEBA?AVustring@Glib@@XZ
    ?set_text_column@EntryCompletion@Gtk@@QEAAXAEBVTreeModelColumnBase@2@@Z
    ?set_text_column@EntryCompletion@Gtk@@QEAAXH@Z
    ?get_text_column@EntryCompletion@Gtk@@QEBAHXZ
    ?signal_action_activated@EntryCompletion@Gtk@@QEAA?AV?$SignalProxy1@XH@Glib@@XZ
    ?signal_match_selected@EntryCompletion@Gtk@@QEAA?AV?$SignalProxy1@_NAEBVTreeIter@Gtk@@@Glib@@XZ
    ?signal_cursor_on_match@EntryCompletion@Gtk@@QEAA?AV?$SignalProxy1@_NAEBVTreeIter@Gtk@@@Glib@@XZ
    ?signal_insert_prefix@EntryCompletion@Gtk@@QEAA?AV?$SignalProxy1@_NAEBVustring@Glib@@@Glib@@XZ
    ?signal_no_matches@EntryCompletion@Gtk@@QEAA?AV?$SignalProxy0@X@Glib@@XZ
    ?property_model@EntryCompletion@Gtk@@QEAA?AV?$PropertyProxy@V?$RefPtr@VTreeModel@Gtk@@@Glib@@@Glib@@XZ
    ?property_model@EntryCompletion@Gtk@@QEBA?AV?$PropertyProxy_ReadOnly@V?$RefPtr@VTreeModel@Gtk@@@Glib@@@Glib@@XZ
    ?property_minimum_key_length@EntryCompletion@Gtk@@QEAA?AV?$PropertyProxy@H@Glib@@XZ
    ?property_minimum_key_length@EntryCompletion@Gtk@@QEBA?AV?$PropertyProxy_ReadOnly@H@Glib@@XZ
    ?property_text_column@EntryCompletion@Gtk@@QEAA?AV?$PropertyProxy@H@Glib@@XZ
    ?property_text_column@EntryCompletion@Gtk@@QEBA?AV?$PropertyProxy_ReadOnly@H@Glib@@XZ
    ?property_inline_completion@EntryCompletion@Gtk@@QEAA?AV?$PropertyProxy@_N@Glib@@XZ
    ?property_inline_completion@EntryCompletion@Gtk@@QEBA?AV?$PropertyProxy_ReadOnly@_N@Glib@@XZ
    ?property_popup_completion@EntryCompletion@Gtk@@QEAA?AV?$PropertyProxy@_N@Glib@@XZ
    ?property_popup_completion@EntryCompletion@Gtk@@QEBA?AV?$PropertyProxy_ReadOnly@_N@Glib@@XZ
    ?property_popup_set_width@EntryCompletion@Gtk@@QEAA?AV?$PropertyProxy@_N@Glib@@XZ
    ?property_popup_set_width@EntryCompletion@Gtk@@QEBA?AV?$PropertyProxy_ReadOnly@_N@Glib@@XZ
    ?property_popup_single_match@EntryCompletion@Gtk@@QEAA?AV?$PropertyProxy@_N@Glib@@XZ
    ?property_popup_single_match@EntryCompletion@Gtk@@QEBA?AV?$PropertyProxy_ReadOnly@_N@Glib@@XZ
    ?property_inline_selection@EntryCompletion@Gtk@@QEAA?AV?$PropertyProxy@_N@Glib@@XZ
    ?property_inline_selection@EntryCompletion@Gtk@@QEBA?AV?$PropertyProxy_ReadOnly@_N@Glib@@XZ
    ?property_cell_area@EntryCompletion@Gtk@@QEBA?AV?$PropertyProxy_ReadOnly@V?$RefPtr@VCellArea@Gtk@@@Glib@@@Glib@@XZ
    ?on_match_selected@EntryCompletion@Gtk@@MEAA_NAEBVTreeIter@2@@Z
    ?on_action_activated@EntryCompletion@Gtk@@MEAAXH@Z
    ?on_insert_prefix@EntryCompletion@Gtk@@MEAA_NAEBVustring@Glib@@@Z
    ??_DEntryCompletion@Gtk@@QEAAXXZ
    ?wrap@Glib@@YA?AV?$RefPtr@VEntryCompletion@Gtk@@@1@PEAU_GtkEntryCompletion@@_N@Z
    ?init@EntryCompletion_Class@Gtk@@QEAAAEBVClass@Glib@@XZ
    ?class_init_function@EntryCompletion_Class@Gtk@@SAXPEAX0@Z
    ?wrap_new@EntryCompletion_Class@Gtk@@SAPEAVObjectBase@Glib@@PEAU_GObject@@@Z
    ?action_activated_callback@EntryCompletion_Class@Gtk@@KAXPEAU_GtkEntryCompletion@@H@Z
    ?match_selected_callback_custom@EntryCompletion_Class@Gtk@@KAHPEAU_GtkEntryCompletion@@PEAU_GtkTreeModel@@PEAU_GtkTreeIter@@@Z
    ?insert_prefix_callback@EntryCompletion_Class@Gtk@@KAHPEAU_GtkEntryCompletion@@PEBD@Z
    ??1?$RefPtr@VTreeModel@Gtk@@@Glib@@QEAA@XZ
    ??1?$RefPtr@$$CBVTreeModel@Gtk@@@Glib@@QEAA@XZ
    ??_7EntryCompletion@Gtk@@6BCellLayout@1@@
    ??_7EntryCompletion@Gtk@@6B@
    ??_8EntryCompletion@Gtk@@7BObject@Glib@@@
    ??_8EntryCompletion@Gtk@@7BInterface@Glib@@CellLayout@1@@
    ??_8EntryCompletion@Gtk@@7BInterface@Glib@@Buildable@1@@
    ??_8EntryCompletion@Gtk@@7BObjectBase@Glib@@@
    ??_R0?AVObjectBase@Glib@@@8
    ??_R0?AVEntryCompletion@Gtk@@@8
    ??_C@_05NCCFOPHA@model?$AA@
    ??_C@_0BD@LPJGAJJC@minimum?9key?9length?$AA@
    ??_C@_0M@FAOJKGBM@text?9column?$AA@
    ??_C@_0BC@MDMGPOML@inline?9completion?$AA@
    ??_C@_0BB@LPPFFPPH@popup?9completion?$AA@
    ??_C@_0BA@LLAFOKEP@popup?9set?9width?$AA@
    ??_C@_0BD@ONHOAIHO@popup?9single?9match?$AA@
    ??_C@_0BB@DIIFFAHF@inline?9selection?$AA@
    ??_C@_09BHKPAMFL@cell?9area?$AA@
    ??_R4EntryCompletion@Gtk@@6BCellLayout@1@@
    ??_R3EntryCompletion@Gtk@@8
    ??_R2EntryCompletion@Gtk@@8
    ??_R1A@?0A@EA@EntryCompletion@Gtk@@8
    ??_R1BA@?0A@EA@Object@Glib@@8
    ??_R0?AVObject@Glib@@@8
    ??_R3Object@Glib@@8
    ??_R2Object@Glib@@8
    ??_R1A@?0A@EA@Object@Glib@@8
    ??_R1A@A@7FA@ObjectBase@Glib@@8
    ??_R3ObjectBase@Glib@@8
    ??_R2ObjectBase@Glib@@8
    ??_R1A@?0A@EA@ObjectBase@Glib@@8
    ??_R1A@73FA@trackable@sigc@@8
    ??_R0?AUtrackable@sigc@@@8
    ??_R3trackable@sigc@@8
    ??_R2trackable@sigc@@8
    ??_R1A@?0A@EA@trackable@sigc@@8
    ??_R1A@A@3FA@trackable@sigc@@8
    ??_R1A@BA@7FA@ObjectBase@Glib@@8
    ??_R1A@BA@3FA@trackable@sigc@@8
    ??_R1A@?0A@EA@CellLayout@Gtk@@8
    ??_R0?AVCellLayout@Gtk@@@8
    ??_R3CellLayout@Gtk@@8
    ??_R2CellLayout@Gtk@@8
    ??_R17?0A@EA@Interface@Glib@@8
    ??_R0?AVInterface@Glib@@@8
    ??_R3Interface@Glib@@8
    ??_R2Interface@Glib@@8
    ??_R1A@?0A@EA@Interface@Glib@@8
    ??_R1A@77FA@ObjectBase@Glib@@8
    ??_R17?0A@EC@Interface@Glib@@8
    ??_R1BI@?0A@EA@Buildable@Gtk@@8
    ??_R0?AVBuildable@Gtk@@@8
    ??_R3Buildable@Gtk@@8
    ??_R2Buildable@Gtk@@8
    ??_R1A@?0A@EA@Buildable@Gtk@@8
    ??_R1BI@?0A@EC@Interface@Glib@@8
    ??_R4EntryCompletion@Gtk@@6B@
    ?__empty_global_delete@@YAXPEAX@Z
    ?__empty_global_delete@@YAXPEAX_K@Z
    ?value_type@?$Value@W4AccelFlags@Gtk@@@Glib@@SA_KXZ
    ?value_type@?$Value@W4Align@Gtk@@@Glib@@SA_KXZ
    ?value_type@?$Value@W4ArrowType@Gtk@@@Glib@@SA_KXZ
    ?value_type@?$Value@W4AttachOptions@Gtk@@@Glib@@SA_KXZ
    ?value_type@?$Value@W4ButtonBoxStyle@Gtk@@@Glib@@SA_KXZ
    ?value_type@?$Value@W4DeleteType@Gtk@@@Glib@@SA_KXZ
    ?value_type@?$Value@W4DirectionType@Gtk@@@Glib@@SA_KXZ
    ?value_type@?$Value@W4ExpanderStyle@Gtk@@@Glib@@SA_KXZ
    ?value_type@?$Value@W4BuiltinIconSize@Gtk@@@Glib@@SA_KXZ
    ?value_type@?$Value@W4TextDirection@Gtk@@@Glib@@SA_KXZ
    ?value_type@?$Value@W4Justification@Gtk@@@Glib@@SA_KXZ
    ?value_type@?$Value@W4MenuDirectionType@Gtk@@@Glib@@SA_KXZ
    ?value_type@?$Value@W4MessageType@Gtk@@@Glib@@SA_KXZ
    ?value_type@?$Value@W4MovementStep@Gtk@@@Glib@@SA_KXZ
    ?value_type@?$Value@W4Orientation@Gtk@@@Glib@@SA_KXZ
    ?value_type@?$Value@W4CornerType@Gtk@@@Glib@@SA_KXZ
    ?value_type@?$Value@W4PackType@Gtk@@@Glib@@SA_KXZ
    ?value_type@?$Value@W4PathPriorityType@Gtk@@@Glib@@SA_KXZ
    ?value_type@?$Value@W4PathType@Gtk@@@Glib@@SA_KXZ
    ?value_type@?$Value@W4PlacesOpenFlags@Gtk@@@Glib@@SA_KXZ
    ?value_type@?$Value@W4PolicyType@Gtk@@@Glib@@SA_KXZ
    ?value_type@?$Value@W4PositionType@Gtk@@@Glib@@SA_KXZ
    ?value_type@?$Value@W4ReliefStyle@Gtk@@@Glib@@SA_KXZ
    ?value_type@?$Value@W4ResizeMode@Gtk@@@Glib@@SA_KXZ
    ?value_type@?$Value@W4RevealerTransitionType@Gtk@@@Glib@@SA_KXZ
    ?value_type@?$Value@W4ScrollType@Gtk@@@Glib@@SA_KXZ
    ?value_type@?$Value@W4SelectionMode@Gtk@@@Glib@@SA_KXZ
    ?value_type@?$Value@W4ShadowType@Gtk@@@Glib@@SA_KXZ
    ?value_type@?$Value@W4StackTransitionType@Gtk@@@Glib@@SA_KXZ
    ?value_type@?$Value@W4StateType@Gtk@@@Glib@@SA_KXZ
    ?value_type@?$Value@W4TargetFlags@Gtk@@@Glib@@SA_KXZ
    ?value_type@?$Value@W4ToolbarStyle@Gtk@@@Glib@@SA_KXZ
    ?value_type@?$Value@W4WindowPosition@Gtk@@@Glib@@SA_KXZ
    ?value_type@?$Value@W4WindowType@Gtk@@@Glib@@SA_KXZ
    ?value_type@?$Value@W4WrapMode@Gtk@@@Glib@@SA_KXZ
    ?value_type@?$Value@W4SortType@Gtk@@@Glib@@SA_KXZ
    ?value_type@?$Value@W4PageOrientation@Gtk@@@Glib@@SA_KXZ
    ?value_type@?$Value@W4SensitivityType@Gtk@@@Glib@@SA_KXZ
    ?value_type@?$Value@W4SizeRequestMode@Gtk@@@Glib@@SA_KXZ
    ?value_type@?$Value@W4RegionFlags@Gtk@@@Glib@@SA_KXZ
    ?value_type@?$Value@W4JunctionSides@Gtk@@@Glib@@SA_KXZ
    ?value_type@?$Value@W4StateFlags@Gtk@@@Glib@@SA_KXZ
    ?value_type@?$Value@W4InputPurpose@Gtk@@@Glib@@SA_KXZ
    ?value_type@?$Value@W4InputHints@Gtk@@@Glib@@SA_KXZ
    ?value_type@?$Value@W4BaselinePosition@Gtk@@@Glib@@SA_KXZ
    ?lookup@IconSize@Gtk@@SA_NV12@AEAH1@Z
    ?lookup@IconSize@Gtk@@SA_NV12@AEAH1AEBV?$RefPtr@VSettings@Gtk@@@Glib@@@Z
    ?register_new@IconSize@Gtk@@SA?AV12@AEBVustring@Glib@@HH@Z
    ?register_alias@IconSize@Gtk@@SAXAEBVustring@Glib@@V12@@Z
    ?from_name@IconSize@Gtk@@SA?AV12@AEBVustring@Glib@@@Z
    ?get_name@IconSize@Gtk@@SA?AVustring@Glib@@V12@@Z
    ?value_type@?$Value@VIconSize@Gtk@@@Glib@@SA_KXZ
    ?_gtkmm_align_float_from_enum@Gtk@@YAMW4Align@1@@Z
    ?eventbox_class_@EventBox@Gtk@@0VEventBox_Class@2@A
    ?__empty_global_delete@@YAXPEAX@Z
    ?__empty_global_delete@@YAXPEAX_K@Z
    ??1EventBox@Gtk@@UEAA@XZ
    ??0EventBox@Gtk@@IEAA@AEBVConstructParams@Glib@@@Z
    ??0EventBox@Gtk@@IEAA@PEAU_GtkEventBox@@@Z
    ?get_type@EventBox@Gtk@@SA_KXZ
    ?get_base_type@EventBox@Gtk@@SA_KXZ
    ??0EventBox@Gtk@@QEAA@XZ
    ?get_visible_window@EventBox@Gtk@@QEBA_NXZ
    ?set_visible_window@EventBox@Gtk@@QEAAX_N@Z
    ?get_above_child@EventBox@Gtk@@QEBA_NXZ
    ?set_above_child@EventBox@Gtk@@QEAAX_N@Z
    ?property_visible_window@EventBox@Gtk@@QEAA?AV?$PropertyProxy@_N@Glib@@XZ
    ?property_visible_window@EventBox@Gtk@@QEBA?AV?$PropertyProxy_ReadOnly@_N@Glib@@XZ
    ?property_above_child@EventBox@Gtk@@QEAA?AV?$PropertyProxy@_N@Glib@@XZ
    ?property_above_child@EventBox@Gtk@@QEBA?AV?$PropertyProxy_ReadOnly@_N@Glib@@XZ
    ??_DEventBox@Gtk@@QEAAXXZ
    ?wrap@Glib@@YAPEAVEventBox@Gtk@@PEAU_GtkEventBox@@_N@Z
    ?init@EventBox_Class@Gtk@@QEAAAEBVClass@Glib@@XZ
    ?class_init_function@EventBox_Class@Gtk@@SAXPEAX0@Z
    ?wrap_new@EventBox_Class@Gtk@@SAPEAVObjectBase@Glib@@PEAU_GObject@@@Z
    ??$manage@VEventBox@Gtk@@@Gtk@@YAPEAVEventBox@0@PEAV10@@Z
    ?destroy_notify_@Object@Gtk@@$2PPPPPPPM@7EAAXXZ
    ?set_manage@Object@Gtk@@$4PPPPPPPM@7EAAXXZ
    ??_7EventBox@Gtk@@6BWidget@1@@
    ??_7EventBox@Gtk@@6BObject@1@@
    ??_8EventBox@Gtk@@7BObject@Glib@@@
    ??_8EventBox@Gtk@@7BInterface@Glib@@@
    ??_8EventBox@Gtk@@7BObjectBase@Glib@@@
    ??_R0?AVObjectBase@Glib@@@8
    ??_R0?AVEventBox@Gtk@@@8
    ??_C@_0P@JMKHMGPE@visible?9window?$AA@
    ??_C@_0M@ILABEADJ@above?9child?$AA@
    ??_R4EventBox@Gtk@@6BWidget@1@@
    ??_R3EventBox@Gtk@@8
    ??_R2EventBox@Gtk@@8
    ??_R1A@?0A@EA@EventBox@Gtk@@8
    ??_R1A@?0A@EA@Bin@Gtk@@8
    ??_R0?AVBin@Gtk@@@8
    ??_R3Bin@Gtk@@8
    ??_R2Bin@Gtk@@8
    ??_R1A@?0A@EA@Container@Gtk@@8
    ??_R0?AVContainer@Gtk@@@8
    ??_R3Container@Gtk@@8
    ??_R2Container@Gtk@@8
    ??_R1A@?0A@EA@Widget@Gtk@@8
    ??_R0?AVWidget@Gtk@@@8
    ??_R3Widget@Gtk@@8
    ??_R2Widget@Gtk@@8
    ??_R17?0A@EA@Object@Gtk@@8
    ??_R0?AVObject@Gtk@@@8
    ??_R3Object@Gtk@@8
    ??_R2Object@Gtk@@8
    ??_R1A@?0A@EA@Object@Gtk@@8
    ??_R1A@?0A@EA@Object@Glib@@8
    ??_R0?AVObject@Glib@@@8
    ??_R3Object@Glib@@8
    ??_R2Object@Glib@@8
    ??_R1A@A@7FA@ObjectBase@Glib@@8
    ??_R3ObjectBase@Glib@@8
    ??_R2ObjectBase@Glib@@8
    ??_R1A@?0A@EA@ObjectBase@Glib@@8
    ??_R1A@73FA@trackable@sigc@@8
    ??_R0?AUtrackable@sigc@@@8
    ??_R3trackable@sigc@@8
    ??_R2trackable@sigc@@8
    ??_R1A@?0A@EA@trackable@sigc@@8
    ??_R1A@A@3FA@trackable@sigc@@8
    ??_R17?0A@EA@Object@Glib@@8
    ??_R1A@77FA@ObjectBase@Glib@@8
    ??_R1BI@?0A@EA@Buildable@Gtk@@8
    ??_R0?AVBuildable@Gtk@@@8
    ??_R3Buildable@Gtk@@8
    ??_R2Buildable@Gtk@@8
    ??_R1A@?0A@EA@Buildable@Gtk@@8
    ??_R1A@?0A@EA@Interface@Glib@@8
    ??_R0?AVInterface@Glib@@@8
    ??_R3Interface@Glib@@8
    ??_R2Interface@Glib@@8
    ??_R1BI@?0A@EA@Interface@Glib@@8
    ??_R4EventBox@Gtk@@6BObject@1@@
    ?eventcontroller_class_@EventController@Gtk@@0VEventController_Class@2@A
    ?__empty_global_delete@@YAXPEAX@Z
    ?__empty_global_delete@@YAXPEAX_K@Z
    ?value_type@?$Value@W4PropagationPhase@Gtk@@@Glib@@SA_KXZ
    ??0EventController@Gtk@@IEAA@AEBVConstructParams@Glib@@@Z
    ??0EventController@Gtk@@IEAA@PEAU_GtkEventController@@@Z
    ??1EventController@Gtk@@UEAA@XZ
    ?get_type@EventController@Gtk@@SA_KXZ
    ?get_base_type@EventController@Gtk@@SA_KXZ
    ?gobj_copy@EventController@Gtk@@QEAAPEAU_GtkEventController@@XZ
    ??0EventController@Gtk@@IEAA@XZ
    ?get_widget@EventController@Gtk@@QEAAPEAVWidget@2@XZ
    ?get_widget@EventController@Gtk@@QEBAPEBVWidget@2@XZ
    ?handle_event@EventController@Gtk@@QEAA_NPEBT_GdkEvent@@@Z
    ?reset@EventController@Gtk@@QEAAXXZ
    ?get_propagation_phase@EventController@Gtk@@QEBA?AW4PropagationPhase@2@XZ
    ?set_propagation_phase@EventController@Gtk@@QEAAXW4PropagationPhase@2@@Z
    ?property_widget@EventController@Gtk@@QEBA?AV?$PropertyProxy_ReadOnly@PEAVWidget@Gtk@@@Glib@@XZ
    ?property_propagation_phase@EventController@Gtk@@QEAA?AV?$PropertyProxy@W4PropagationPhase@Gtk@@@Glib@@XZ
    ?property_propagation_phase@EventController@Gtk@@QEBA?AV?$PropertyProxy_ReadOnly@W4PropagationPhase@Gtk@@@Glib@@XZ
    ?wrap@Glib@@YA?AV?$RefPtr@VEventController@Gtk@@@1@PEAU_GtkEventController@@_N@Z
    ?init@EventController_Class@Gtk@@QEAAAEBVClass@Glib@@XZ
    ?class_init_function@EventController_Class@Gtk@@SAXPEAX0@Z
    ?wrap_new@EventController_Class@Gtk@@SAPEAVObjectBase@Glib@@PEAU_GObject@@@Z
    ??_7EventController@Gtk@@6B@
    ??_8EventController@Gtk@@7BObject@Glib@@@
    ??_8EventController@Gtk@@7BObjectBase@Glib@@@
    ??_R0?AVObjectBase@Glib@@@8
    ??_R0?AVEventController@Gtk@@@8
    ??_C@_06KLKLDLLI@widget?$AA@
    ??_C@_0BC@GFEJBKMK@propagation?9phase?$AA@
    ??_R4EventController@Gtk@@6B@
    ??_R3EventController@Gtk@@8
    ??_R2EventController@Gtk@@8
    ??_R1A@?0A@EA@EventController@Gtk@@8
    ??_R1A@?0A@EA@Object@Glib@@8
    ??_R0?AVObject@Glib@@@8
    ??_R3Object@Glib@@8
    ??_R2Object@Glib@@8
    ??_R1A@A@7FA@ObjectBase@Glib@@8
    ??_R3ObjectBase@Glib@@8
    ??_R2ObjectBase@Glib@@8
    ??_R1A@?0A@EA@ObjectBase@Glib@@8
    ??_R1A@73FA@trackable@sigc@@8
    ??_R0?AUtrackable@sigc@@@8
    ??_R3trackable@sigc@@8
    ??_R2trackable@sigc@@8
    ??_R1A@?0A@EA@trackable@sigc@@8
    ??_R1A@A@3FA@trackable@sigc@@8
    ?expander_class_@Expander@Gtk@@0VExpander_Class@2@A
    ?__empty_global_delete@@YAXPEAX@Z
    ?__empty_global_delete@@YAXPEAX_K@Z
    ?convert_const_gchar_ptr_to_ustring@Glib@@YA?AVustring@1@PEBD@Z
    ??1Expander@Gtk@@UEAA@XZ
    ??0Expander@Gtk@@IEAA@AEBVConstructParams@Glib@@@Z
    ??0Expander@Gtk@@IEAA@PEAU_GtkExpander@@@Z
    ?get_type@Expander@Gtk@@SA_KXZ
    ?get_base_type@Expander@Gtk@@SA_KXZ
    ??0Expander@Gtk@@QEAA@XZ
    ??0Expander@Gtk@@QEAA@AEBVustring@Glib@@_N@Z
    ?set_expanded@Expander@Gtk@@QEAAX_N@Z
    ?get_expanded@Expander@Gtk@@QEBA_NXZ
    ?set_spacing@Expander@Gtk@@QEAAXH@Z
    ?get_spacing@Expander@Gtk@@QEBAHXZ
    ?set_label@Expander@Gtk@@QEAAXAEBVustring@Glib@@@Z
    ?get_label@Expander@Gtk@@QEBA?AVustring@Glib@@XZ
    ?set_use_underline@Expander@Gtk@@QEAAX_N@Z
    ?get_use_underline@Expander@Gtk@@QEBA_NXZ
    ?set_use_markup@Expander@Gtk@@QEAAX_N@Z
    ?get_use_markup@Expander@Gtk@@QEBA_NXZ
    ?set_label_widget@Expander@Gtk@@QEAAXAEAVWidget@2@@Z
    ?get_label_widget@Expander@Gtk@@QEAAPEAVWidget@2@XZ
    ?get_label_widget@Expander@Gtk@@QEBAPEBVWidget@2@XZ
    ?set_label_fill@Expander@Gtk@@QEAAX_N@Z
    ?get_label_fill@Expander@Gtk@@QEBA_NXZ
    ?set_resize_toplevel@Expander@Gtk@@QEAAX_N@Z
    ?get_resize_toplevel@Expander@Gtk@@QEBA_NXZ
    ?property_expanded@Expander@Gtk@@QEAA?AV?$PropertyProxy@_N@Glib@@XZ
    ?property_expanded@Expander@Gtk@@QEBA?AV?$PropertyProxy_ReadOnly@_N@Glib@@XZ
    ?property_label@Expander@Gtk@@QEAA?AV?$PropertyProxy@Vustring@Glib@@@Glib@@XZ
    ?property_label@Expander@Gtk@@QEBA?AV?$PropertyProxy_ReadOnly@Vustring@Glib@@@Glib@@XZ
    ?property_use_underline@Expander@Gtk@@QEAA?AV?$PropertyProxy@_N@Glib@@XZ
    ?property_use_underline@Expander@Gtk@@QEBA?AV?$PropertyProxy_ReadOnly@_N@Glib@@XZ
    ?property_use_markup@Expander@Gtk@@QEAA?AV?$PropertyProxy@_N@Glib@@XZ
    ?property_use_markup@Expander@Gtk@@QEBA?AV?$PropertyProxy_ReadOnly@_N@Glib@@XZ
    ?property_spacing@Expander@Gtk@@QEAA?AV?$PropertyProxy@H@Glib@@XZ
    ?property_spacing@Expander@Gtk@@QEBA?AV?$PropertyProxy_ReadOnly@H@Glib@@XZ
    ?property_label_widget@Expander@Gtk@@QEAA?AV?$PropertyProxy@PEAVWidget@Gtk@@@Glib@@XZ
    ?property_label_widget@Expander@Gtk@@QEBA?AV?$PropertyProxy_ReadOnly@PEAVWidget@Gtk@@@Glib@@XZ
    ?property_label_fill@Expander@Gtk@@QEAA?AV?$PropertyProxy@_N@Glib@@XZ
    ?property_label_fill@Expander@Gtk@@QEBA?AV?$PropertyProxy_ReadOnly@_N@Glib@@XZ
    ?property_resize_toplevel@Expander@Gtk@@QEAA?AV?$PropertyProxy@_N@Glib@@XZ
    ?property_resize_toplevel@Expander@Gtk@@QEBA?AV?$PropertyProxy_ReadOnly@_N@Glib@@XZ
    ??_DExpander@Gtk@@QEAAXXZ
    ?wrap@Glib@@YAPEAVExpander@Gtk@@PEAU_GtkExpander@@_N@Z
    ?init@Expander_Class@Gtk@@QEAAAEBVClass@Glib@@XZ
    ?class_init_function@Expander_Class@Gtk@@SAXPEAX0@Z
    ?wrap_new@Expander_Class@Gtk@@SAPEAVObjectBase@Glib@@PEAU_GObject@@@Z
    ??$manage@VExpander@Gtk@@@Gtk@@YAPEAVExpander@0@PEAV10@@Z
    ?destroy_notify_@Object@Gtk@@$2PPPPPPPM@7EAAXXZ
    ?set_manage@Object@Gtk@@$4PPPPPPPM@7EAAXXZ
    ??_7Expander@Gtk@@6BWidget@1@@
    ??_7Expander@Gtk@@6BObject@1@@
    ??_8Expander@Gtk@@7BObject@Glib@@@
    ??_8Expander@Gtk@@7BInterface@Glib@@@
    ??_8Expander@Gtk@@7BObjectBase@Glib@@@
    ??_C@_0O@BDCKFHIO@use_underline?$AA@
    ??_C@_05IDCCNNGI@label?$AA@
    ??_R0?AVObjectBase@Glib@@@8
    ??_R0?AVExpander@Gtk@@@8
    ??_C@_08ICLMKHFL@expanded?$AA@
    ??_C@_0O@LFGELMLM@use?9underline?$AA@
    ??_C@_0L@EJANNMGP@use?9markup?$AA@
    ??_C@_07GHILBEGP@spacing?$AA@
    ??_C@_0N@PJFPAEHM@label?9widget?$AA@
    ??_C@_0L@DFPADOKN@label?9fill?$AA@
    ??_C@_0BA@NPAGFBMG@resize?9toplevel?$AA@
    ??_R4Expander@Gtk@@6BWidget@1@@
    ??_R3Expander@Gtk@@8
    ??_R2Expander@Gtk@@8
    ??_R1A@?0A@EA@Expander@Gtk@@8
    ??_R1A@?0A@EA@Bin@Gtk@@8
    ??_R0?AVBin@Gtk@@@8
    ??_R3Bin@Gtk@@8
    ??_R2Bin@Gtk@@8
    ??_R1A@?0A@EA@Container@Gtk@@8
    ??_R0?AVContainer@Gtk@@@8
    ??_R3Container@Gtk@@8
    ??_R2Container@Gtk@@8
    ??_R1A@?0A@EA@Widget@Gtk@@8
    ??_R0?AVWidget@Gtk@@@8
    ??_R3Widget@Gtk@@8
    ??_R2Widget@Gtk@@8
    ??_R17?0A@EA@Object@Gtk@@8
    ??_R0?AVObject@Gtk@@@8
    ??_R3Object@Gtk@@8
    ??_R2Object@Gtk@@8
    ??_R1A@?0A@EA@Object@Gtk@@8
    ??_R1A@?0A@EA@Object@Glib@@8
    ??_R0?AVObject@Glib@@@8
    ??_R3Object@Glib@@8
    ??_R2Object@Glib@@8
    ??_R1A@A@7FA@ObjectBase@Glib@@8
    ??_R3ObjectBase@Glib@@8
    ??_R2ObjectBase@Glib@@8
    ??_R1A@?0A@EA@ObjectBase@Glib@@8
    ??_R1A@73FA@trackable@sigc@@8
    ??_R0?AUtrackable@sigc@@@8
    ??_R3trackable@sigc@@8
    ??_R2trackable@sigc@@8
    ??_R1A@?0A@EA@trackable@sigc@@8
    ??_R1A@A@3FA@trackable@sigc@@8
    ??_R17?0A@EA@Object@Glib@@8
    ??_R1A@77FA@ObjectBase@Glib@@8
    ??_R1BI@?0A@EA@Buildable@Gtk@@8
    ??_R0?AVBuildable@Gtk@@@8
    ??_R3Buildable@Gtk@@8
    ??_R2Buildable@Gtk@@8
    ??_R1A@?0A@EA@Buildable@Gtk@@8
    ??_R1A@?0A@EA@Interface@Glib@@8
    ??_R0?AVInterface@Glib@@@8
    ??_R3Interface@Glib@@8
    ??_R2Interface@Glib@@8
    ??_R1BI@?0A@EA@Interface@Glib@@8
    ??_R4Expander@Gtk@@6BObject@1@@
    ?filechooser_class_@FileChooser@Gtk@@0VFileChooser_Class@2@A
    ??_C@_0BH@POHPIBKF@current_folder_changed?$AA@
    ??_C@_0BC@KHJDINAF@selection_changed?$AA@
    ??_C@_0P@MPLLFOFA@update_preview?$AA@
    ??_C@_0P@BKJLCIMO@file_activated?$AA@
    ??_C@_0BC@ICNPFOLI@confirm?9overwrite?$AA@
    ?__empty_global_delete@@YAXPEAX@Z
    ?__empty_global_delete@@YAXPEAX_K@Z
    ??3@YAXPEAX0@Z
    ?allocate@?$allocator@D@std@@QEAAPEAD_K@Z
    ?deallocate@?$_Wrap_alloc@V?$allocator@D@std@@@std@@QEAAXPEAD_K@Z
    ?_Assign_rv@?$basic_string@DU?$char_traits@D@std@@V?$allocator@D@2@@std@@QEAAX$$QEAV12@@Z
    ?assign@?$basic_string@DU?$char_traits@D@std@@V?$allocator@D@2@@std@@QEAAAEAV12@AEBV12@_K1@Z
    ?assign@?$basic_string@DU?$char_traits@D@std@@V?$allocator@D@2@@std@@QEAAAEAV12@PEBD_K@Z
    ?erase@?$basic_string@DU?$char_traits@D@std@@V?$allocator@D@2@@std@@QEAAAEAV12@_K0@Z
    ?_Copy@?$basic_string@DU?$char_traits@D@std@@V?$allocator@D@2@@std@@QEAAX_K0@Z
    ??0Exception@Glib@@QEAA@AEBV01@@Z
    ?to_cpp_type@?$TypeTraits@Vustring@Glib@@@Container_Helpers@Glib@@SA?AVustring@3@PEBD@Z
    ?to_cpp_type@?$TypeTraits@V?$basic_string@DU?$char_traits@D@std@@V?$allocator@D@2@@std@@@Container_Helpers@Glib@@SA?AV?$basic_string@DU?$char_traits@D@std@@V?$allocator@D@2@@std@@PEBD@Z
    ?convert_return_gchar_ptr_to_ustring@Glib@@YA?AVustring@1@PEAD@Z
    ??1?$ScopedPtr@D@Glib@@QEAA@XZ
    ?convert_return_gchar_ptr_to_stdstring@Glib@@YA?AV?$basic_string@DU?$char_traits@D@std@@V?$allocator@D@2@@std@@PEAD@Z
    ?to_cpp_type@?$TypeTraits@V?$RefPtr@VFile@Gio@@@Glib@@@Container_Helpers@Glib@@SA?AV?$RefPtr@VFile@Gio@@@3@AEBQEAU_GFile@@@Z
    ??1?$RefPtr@$$CBVFile@Gio@@@Glib@@QEAA@XZ
    ?value_type@?$Value@W4FileChooserAction@Gtk@@@Glib@@SA_KXZ
    ?value_type@?$Value@W4FileChooserConfirmation@Gtk@@@Glib@@SA_KXZ
    ??0FileChooserError@Gtk@@QEAA@W4Code@01@AEBVustring@Glib@@@Z
    ??0FileChooserError@Gtk@@QEAA@PEAU_GError@@@Z
    ?code@FileChooserError@Gtk@@QEBA?AW4Code@12@XZ
    ?throw_func@FileChooserError@Gtk@@CAXPEAU_GError@@@Z
    ??1FileChooserError@Gtk@@UEAA@XZ
    ??0FileChooserError@Gtk@@QEAA@AEBV01@@Z
    ?value_type@?$Value@W4Code@FileChooserError@Gtk@@@Glib@@SA_KXZ
    ??0FileChooser@Gtk@@IEAA@XZ
    ??0FileChooser@Gtk@@IEAA@AEBVInterface_Class@Glib@@@Z
    ??0FileChooser@Gtk@@QEAA@PEAU_GtkFileChooser@@@Z
    ??1FileChooser@Gtk@@UEAA@XZ
    ?add_interface@FileChooser@Gtk@@SAX_K@Z
    ?get_type@FileChooser@Gtk@@SA_KXZ
    ?get_base_type@FileChooser@Gtk@@SA_KXZ
    ?set_action@FileChooser@Gtk@@QEAAXW4FileChooserAction@2@@Z
    ?get_action@FileChooser@Gtk@@QEBA?AW4FileChooserAction@2@XZ
    ?set_local_only@FileChooser@Gtk@@QEAAX_N@Z
    ?get_local_only@FileChooser@Gtk@@QEBA_NXZ
    ?set_select_multiple@FileChooser@Gtk@@QEAAX_N@Z
    ?get_select_multiple@FileChooser@Gtk@@QEBA_NXZ
    ?set_show_hidden@FileChooser@Gtk@@QEAAX_N@Z
    ?get_show_hidden@FileChooser@Gtk@@QEBA_NXZ
    ?set_do_overwrite_confirmation@FileChooser@Gtk@@QEAAX_N@Z
    ?get_do_overwrite_confirmation@FileChooser@Gtk@@QEBA_NXZ
    ?set_create_folders@FileChooser@Gtk@@QEAAX_N@Z
    ?get_create_folders@FileChooser@Gtk@@QEBA_NXZ
    ?set_current_name@FileChooser@Gtk@@QEAAXAEBVustring@Glib@@@Z
    ?get_current_name@FileChooser@Gtk@@QEBA?AVustring@Glib@@XZ
    ?get_filename@FileChooser@Gtk@@QEBA?AV?$basic_string@DU?$char_traits@D@std@@V?$allocator@D@2@@std@@XZ
    ?set_filename@FileChooser@Gtk@@QEAA_NAEBV?$basic_string@DU?$char_traits@D@std@@V?$allocator@D@2@@std@@@Z
    ?select_filename@FileChooser@Gtk@@QEAA_NAEBV?$basic_string@DU?$char_traits@D@std@@V?$allocator@D@2@@std@@@Z
    ?unselect_filename@FileChooser@Gtk@@QEAAXAEBV?$basic_string@DU?$char_traits@D@std@@V?$allocator@D@2@@std@@@Z
    ?select_all@FileChooser@Gtk@@QEAAXXZ
    ?unselect_all@FileChooser@Gtk@@QEAAXXZ
    ?get_filenames@FileChooser@Gtk@@QEBA?AV?$vector@V?$basic_string@DU?$char_traits@D@std@@V?$allocator@D@2@@std@@V?$allocator@V?$basic_string@DU?$char_traits@D@std@@V?$allocator@D@2@@std@@@2@@std@@XZ
    ?set_current_folder@FileChooser@Gtk@@QEAA_NAEBV?$basic_string@DU?$char_traits@D@std@@V?$allocator@D@2@@std@@@Z
    ?get_current_folder@FileChooser@Gtk@@QEBA?AV?$basic_string@DU?$char_traits@D@std@@V?$allocator@D@2@@std@@XZ
    ?get_uri@FileChooser@Gtk@@QEBA?AVustring@Glib@@XZ
    ?set_uri@FileChooser@Gtk@@QEAA_NAEBVustring@Glib@@@Z
    ?select_uri@FileChooser@Gtk@@QEAA_NAEBVustring@Glib@@@Z
    ?unselect_uri@FileChooser@Gtk@@QEAAXAEBVustring@Glib@@@Z
    ?get_uris@FileChooser@Gtk@@QEBA?AV?$vector@Vustring@Glib@@V?$allocator@Vustring@Glib@@@std@@@std@@XZ
    ?set_current_folder_uri@FileChooser@Gtk@@QEAA_NAEBVustring@Glib@@@Z
    ?get_current_folder_uri@FileChooser@Gtk@@QEBA?AVustring@Glib@@XZ
    ?set_file@FileChooser@Gtk@@QEAA_NAEBV?$RefPtr@$$CBVFile@Gio@@@Glib@@@Z
    ?select_file@FileChooser@Gtk@@QEAA_NAEBV?$RefPtr@$$CBVFile@Gio@@@Glib@@@Z
    ?unselect_file@FileChooser@Gtk@@QEAAXAEBV?$RefPtr@$$CBVFile@Gio@@@Glib@@@Z
    ?get_files@FileChooser@Gtk@@QEAA?AV?$vector@V?$RefPtr@VFile@Gio@@@Glib@@V?$allocator@V?$RefPtr@VFile@Gio@@@Glib@@@std@@@std@@XZ
    ?set_current_folder_file@FileChooser@Gtk@@QEAA_NAEBV?$RefPtr@$$CBVFile@Gio@@@Glib@@@Z
    ?get_current_folder_file@FileChooser@Gtk@@QEAA?AV?$RefPtr@VFile@Gio@@@Glib@@XZ
    ?get_file@FileChooser@Gtk@@QEAA?AV?$RefPtr@VFile@Gio@@@Glib@@XZ
    ?get_file@FileChooser@Gtk@@QEBA?AV?$RefPtr@$$CBVFile@Gio@@@Glib@@XZ
    ?set_preview_widget@FileChooser@Gtk@@QEAAXAEAVWidget@2@@Z
    ?get_preview_widget@FileChooser@Gtk@@QEAAPEAVWidget@2@XZ
    ?get_preview_widget@FileChooser@Gtk@@QEBAPEBVWidget@2@XZ
    ?set_preview_widget_active@FileChooser@Gtk@@QEAAX_N@Z
    ?get_preview_widget_active@FileChooser@Gtk@@QEBA_NXZ
    ?set_use_preview_label@FileChooser@Gtk@@QEAAX_N@Z
    ?get_use_preview_label@FileChooser@Gtk@@QEBA_NXZ
    ?get_preview_filename@FileChooser@Gtk@@QEBA?AV?$basic_string@DU?$char_traits@D@std@@V?$allocator@D@2@@std@@XZ
    ?get_preview_uri@FileChooser@Gtk@@QEBA?AVustring@Glib@@XZ
    ?get_preview_file@FileChooser@Gtk@@QEAA?AV?$RefPtr@VFile@Gio@@@Glib@@XZ
    ?get_preview_file@FileChooser@Gtk@@QEBA?AV?$RefPtr@$$CBVFile@Gio@@@Glib@@XZ
    ?set_extra_widget@FileChooser@Gtk@@QEAAXAEAVWidget@2@@Z
    ?get_extra_widget@FileChooser@Gtk@@QEAAPEAVWidget@2@XZ
    ?get_extra_widget@FileChooser@Gtk@@QEBAPEBVWidget@2@XZ
    ?add_filter@FileChooser@Gtk@@QEAAXAEBV?$RefPtr@VFileFilter@Gtk@@@Glib@@@Z
    ?remove_filter@FileChooser@Gtk@@QEAAXAEBV?$RefPtr@VFileFilter@Gtk@@@Glib@@@Z
    ?list_filters@FileChooser@Gtk@@QEAA?AV?$vector@V?$RefPtr@VFileFilter@Gtk@@@Glib@@V?$allocator@V?$RefPtr@VFileFilter@Gtk@@@Glib@@@std@@@std@@XZ
    ?list_filters@FileChooser@Gtk@@QEBA?AV?$vector@V?$RefPtr@$$CBVFileFilter@Gtk@@@Glib@@V?$allocator@V?$RefPtr@$$CBVFileFilter@Gtk@@@Glib@@@std@@@std@@XZ
    ?set_filter@FileChooser@Gtk@@QEAAXAEBV?$RefPtr@VFileFilter@Gtk@@@Glib@@@Z
    ?get_filter@FileChooser@Gtk@@QEAA?AV?$RefPtr@VFileFilter@Gtk@@@Glib@@XZ
    ?get_filter@FileChooser@Gtk@@QEBA?AV?$RefPtr@$$CBVFileFilter@Gtk@@@Glib@@XZ
    ?add_shortcut_folder@FileChooser@Gtk@@QEAA_NAEBV?$basic_string@DU?$char_traits@D@std@@V?$allocator@D@2@@std@@@Z
    ?remove_shortcut_folder@FileChooser@Gtk@@QEAA_NAEBV?$basic_string@DU?$char_traits@D@std@@V?$allocator@D@2@@std@@@Z
    ?list_shortcut_folders@FileChooser@Gtk@@QEBA?AV?$vector@V?$basic_string@DU?$char_traits@D@std@@V?$allocator@D@2@@std@@V?$allocator@V?$basic_string@DU?$char_traits@D@std@@V?$allocator@D@2@@std@@@2@@std@@XZ
    ?add_shortcut_folder_uri@FileChooser@Gtk@@QEAA_NAEBVustring@Glib@@@Z
    ?remove_shortcut_folder_uri@FileChooser@Gtk@@QEAA_NAEBVustring@Glib@@@Z
    ?list_shortcut_folder_uris@FileChooser@Gtk@@QEBA?AV?$vector@Vustring@Glib@@V?$allocator@Vustring@Glib@@@std@@@std@@XZ
    ?signal_current_folder_changed@FileChooser@Gtk@@QEAA?AV?$SignalProxy0@X@Glib@@XZ
    ?signal_selection_changed@FileChooser@Gtk@@QEAA?AV?$SignalProxy0@X@Glib@@XZ
    ?signal_update_preview@FileChooser@Gtk@@QEAA?AV?$SignalProxy0@X@Glib@@XZ
    ?signal_file_activated@FileChooser@Gtk@@QEAA?AV?$SignalProxy0@X@Glib@@XZ
    ?signal_confirm_overwrite@FileChooser@Gtk@@QEAA?AV?$SignalProxy0@W4FileChooserConfirmation@Gtk@@@Glib@@XZ
    ?property_action@FileChooser@Gtk@@QEAA?AV?$PropertyProxy@W4FileChooserAction@Gtk@@@Glib@@XZ
    ?property_action@FileChooser@Gtk@@QEBA?AV?$PropertyProxy_ReadOnly@W4FileChooserAction@Gtk@@@Glib@@XZ
    ?property_filter@FileChooser@Gtk@@QEAA?AV?$PropertyProxy@V?$RefPtr@VFileFilter@Gtk@@@Glib@@@Glib@@XZ
    ?property_filter@FileChooser@Gtk@@QEBA?AV?$PropertyProxy_ReadOnly@V?$RefPtr@VFileFilter@Gtk@@@Glib@@@Glib@@XZ
    ?property_local_only@FileChooser@Gtk@@QEAA?AV?$PropertyProxy@_N@Glib@@XZ
    ?property_local_only@FileChooser@Gtk@@QEBA?AV?$PropertyProxy_ReadOnly@_N@Glib@@XZ
    ?property_preview_widget@FileChooser@Gtk@@QEAA?AV?$PropertyProxy@PEAVWidget@Gtk@@@Glib@@XZ
    ?property_preview_widget@FileChooser@Gtk@@QEBA?AV?$PropertyProxy_ReadOnly@PEAVWidget@Gtk@@@Glib@@XZ
    ?property_preview_widget_active@FileChooser@Gtk@@QEAA?AV?$PropertyProxy@_N@Glib@@XZ
    ?property_preview_widget_active@FileChooser@Gtk@@QEBA?AV?$PropertyProxy_ReadOnly@_N@Glib@@XZ
    ?property_use_preview_label@FileChooser@Gtk@@QEAA?AV?$PropertyProxy@_N@Glib@@XZ
    ?property_use_preview_label@FileChooser@Gtk@@QEBA?AV?$PropertyProxy_ReadOnly@_N@Glib@@XZ
    ?property_extra_widget@FileChooser@Gtk@@QEAA?AV?$PropertyProxy@PEAVWidget@Gtk@@@Glib@@XZ
    ?property_extra_widget@FileChooser@Gtk@@QEBA?AV?$PropertyProxy_ReadOnly@PEAVWidget@Gtk@@@Glib@@XZ
    ?property_select_multiple@FileChooser@Gtk@@QEAA?AV?$PropertyProxy@_N@Glib@@XZ
    ?property_select_multiple@FileChooser@Gtk@@QEBA?AV?$PropertyProxy_ReadOnly@_N@Glib@@XZ
    ?property_show_hidden@FileChooser@Gtk@@QEAA?AV?$PropertyProxy@_N@Glib@@XZ
    ?property_show_hidden@FileChooser@Gtk@@QEBA?AV?$PropertyProxy_ReadOnly@_N@Glib@@XZ
    ?property_do_overwrite_confirmation@FileChooser@Gtk@@QEAA?AV?$PropertyProxy@_N@Glib@@XZ
    ?property_do_overwrite_confirmation@FileChooser@Gtk@@QEBA?AV?$PropertyProxy_ReadOnly@_N@Glib@@XZ
    ?property_create_folders@FileChooser@Gtk@@QEAA?AV?$PropertyProxy@_N@Glib@@XZ
    ?property_create_folders@FileChooser@Gtk@@QEBA?AV?$PropertyProxy_ReadOnly@_N@Glib@@XZ
    ?wrap@Glib@@YA?AV?$RefPtr@VFileChooser@Gtk@@@1@PEAU_GtkFileChooser@@_N@Z
    ?init@FileChooser_Class@Gtk@@QEAAAEBVInterface_Class@Glib@@XZ
    ?iface_init_function@FileChooser_Class@Gtk@@SAXPEAX0@Z
    ?wrap_new@FileChooser_Class@Gtk@@SAPEAVObjectBase@Glib@@PEAU_GObject@@@Z
    ??$wrap_auto_interface@VFileChooser@Gtk@@@Glib@@YAPEAVFileChooser@Gtk@@PEAU_GObject@@_N@Z
    ?deallocate@?$allocator@V?$basic_string@DU?$char_traits@D@std@@V?$allocator@D@2@@std@@@std@@QEAAXPEAV?$basic_string@DU?$char_traits@D@std@@V?$allocator@D@2@@2@_K@Z
    ?allocate@?$allocator@V?$basic_string@DU?$char_traits@D@std@@V?$allocator@D@2@@std@@@std@@QEAAPEAV?$basic_string@DU?$char_traits@D@std@@V?$allocator@D@2@@2@_K@Z
    ?slist_to_vector@?$SListHandler@V?$basic_string@DU?$char_traits@D@std@@V?$allocator@D@2@@std@@U?$TypeTraits@V?$basic_string@DU?$char_traits@D@std@@V?$allocator@D@2@@std@@@Container_Helpers@Glib@@@Glib@@SA?AV?$vector@V?$basic_string@DU?$char_traits@D@std@@V?$allocator@D@2@@std@@V?$allocator@V?$basic_string@DU?$char_traits@D@std@@V?$allocator@D@2@@std@@@2@@std@@PEAU_GSList@@W4OwnershipType@2@@Z
    ?deallocate@?$allocator@Vustring@Glib@@@std@@QEAAXPEAVustring@Glib@@_K@Z
    ?allocate@?$allocator@Vustring@Glib@@@std@@QEAAPEAVustring@Glib@@_K@Z
    ?_Tidy@?$vector@Vustring@Glib@@V?$allocator@Vustring@Glib@@@std@@@std@@IEAAXXZ
    ?slist_to_vector@?$SListHandler@Vustring@Glib@@U?$TypeTraits@Vustring@Glib@@@Container_Helpers@2@@Glib@@SA?AV?$vector@Vustring@Glib@@V?$allocator@Vustring@Glib@@@std@@@std@@PEAU_GSList@@W4OwnershipType@2@@Z
    ?allocate@?$allocator@V?$RefPtr@VFile@Gio@@@Glib@@@std@@QEAAPEAV?$RefPtr@VFile@Gio@@@Glib@@_K@Z
    ?_Tidy@?$vector@V?$RefPtr@VFile@Gio@@@Glib@@V?$allocator@V?$RefPtr@VFile@Gio@@@Glib@@@std@@@std@@IEAAXXZ
    ?slist_to_vector@?$SListHandler@V?$RefPtr@VFile@Gio@@@Glib@@U?$TypeTraits@V?$RefPtr@VFile@Gio@@@Glib@@@Container_Helpers@2@@Glib@@SA?AV?$vector@V?$RefPtr@VFile@Gio@@@Glib@@V?$allocator@V?$RefPtr@VFile@Gio@@@Glib@@@std@@@std@@PEAU_GSList@@W4OwnershipType@2@@Z
    ??1?$RefPtr@VFileFilter@Gtk@@@Glib@@QEAA@XZ
    ??1?$RefPtr@$$CBVFileFilter@Gtk@@@Glib@@QEAA@XZ
    ?allocate@?$allocator@V?$RefPtr@VFileFilter@Gtk@@@Glib@@@std@@QEAAPEAV?$RefPtr@VFileFilter@Gtk@@@Glib@@_K@Z
    ?_Tidy@?$vector@V?$RefPtr@VFileFilter@Gtk@@@Glib@@V?$allocator@V?$RefPtr@VFileFilter@Gtk@@@Glib@@@std@@@std@@IEAAXXZ
    ?to_cpp_type@?$TypeTraits@V?$RefPtr@VFileFilter@Gtk@@@Glib@@@Container_Helpers@Glib@@SA?AV?$RefPtr@VFileFilter@Gtk@@@3@PEAU_GtkFileFilter@@@Z
    ?slist_to_vector@?$SListHandler@V?$RefPtr@VFileFilter@Gtk@@@Glib@@U?$TypeTraits@V?$RefPtr@VFileFilter@Gtk@@@Glib@@@Container_Helpers@2@@Glib@@SA?AV?$vector@V?$RefPtr@VFileFilter@Gtk@@@Glib@@V?$allocator@V?$RefPtr@VFileFilter@Gtk@@@Glib@@@std@@@std@@PEAU_GSList@@W4OwnershipType@2@@Z
    ?allocate@?$allocator@V?$RefPtr@$$CBVFileFilter@Gtk@@@Glib@@@std@@QEAAPEAV?$RefPtr@$$CBVFileFilter@Gtk@@@Glib@@_K@Z
    ?_Tidy@?$vector@V?$RefPtr@$$CBVFileFilter@Gtk@@@Glib@@V?$allocator@V?$RefPtr@$$CBVFileFilter@Gtk@@@Glib@@@std@@@std@@IEAAXXZ
    ?to_cpp_type@?$TypeTraits@V?$RefPtr@$$CBVFileFilter@Gtk@@@Glib@@@Container_Helpers@Glib@@SA?AV?$RefPtr@$$CBVFileFilter@Gtk@@@3@PEBU_GtkFileFilter@@@Z
    ?slist_to_vector@?$SListHandler@V?$RefPtr@$$CBVFileFilter@Gtk@@@Glib@@U?$TypeTraits@V?$RefPtr@$$CBVFileFilter@Gtk@@@Glib@@@Container_Helpers@2@@Glib@@SA?AV?$vector@V?$RefPtr@$$CBVFileFilter@Gtk@@@Glib@@V?$allocator@V?$RefPtr@$$CBVFileFilter@Gtk@@@Glib@@@std@@@std@@PEAU_GSList@@W4OwnershipType@2@@Z
    ??$_Deallocate@V?$RefPtr@$$CBVFileFilter@Gtk@@@Glib@@@std@@YAXPEAV?$RefPtr@$$CBVFileFilter@Gtk@@@Glib@@_K@Z
    ??$_Deallocate@V?$RefPtr@VFileFilter@Gtk@@@Glib@@@std@@YAXPEAV?$RefPtr@VFileFilter@Gtk@@@Glib@@_K@Z
    ??$_Deallocate@V?$RefPtr@VFile@Gio@@@Glib@@@std@@YAXPEAV?$RefPtr@VFile@Gio@@@Glib@@_K@Z
    ??1?$GSListKeeper@U?$TypeTraits@V?$basic_string@DU?$char_traits@D@std@@V?$allocator@D@2@@std@@@Container_Helpers@Glib@@@Container_Helpers@Glib@@QEAA@XZ
    ??D?$SListIterator@U?$TypeTraits@V?$basic_string@DU?$char_traits@D@std@@V?$allocator@D@2@@std@@@Container_Helpers@Glib@@@Container_Helpers@Glib@@QEBA?AV?$basic_string@DU?$char_traits@D@std@@V?$allocator@D@2@@std@@XZ
    ??1?$GSListKeeper@U?$TypeTraits@Vustring@Glib@@@Container_Helpers@Glib@@@Container_Helpers@Glib@@QEAA@XZ
    ??D?$SListIterator@U?$TypeTraits@Vustring@Glib@@@Container_Helpers@Glib@@@Container_Helpers@Glib@@QEBA?AVustring@2@XZ
    ??1?$GSListKeeper@U?$TypeTraits@V?$RefPtr@VFile@Gio@@@Glib@@@Container_Helpers@Glib@@@Container_Helpers@Glib@@QEAA@XZ
    ??D?$SListIterator@U?$TypeTraits@V?$RefPtr@VFile@Gio@@@Glib@@@Container_Helpers@Glib@@@Container_Helpers@Glib@@QEBA?AV?$RefPtr@VFile@Gio@@@2@XZ
    ??1?$GSListKeeper@U?$TypeTraits@V?$RefPtr@VFileFilter@Gtk@@@Glib@@@Container_Helpers@Glib@@@Container_Helpers@Glib@@QEAA@XZ
    ??D?$SListIterator@U?$TypeTraits@V?$RefPtr@VFileFilter@Gtk@@@Glib@@@Container_Helpers@Glib@@@Container_Helpers@Glib@@QEBA?AV?$RefPtr@VFileFilter@Gtk@@@2@XZ
    ??1?$GSListKeeper@U?$TypeTraits@V?$RefPtr@$$CBVFileFilter@Gtk@@@Glib@@@Container_Helpers@Glib@@@Container_Helpers@Glib@@QEAA@XZ
    ??D?$SListIterator@U?$TypeTraits@V?$RefPtr@$$CBVFileFilter@Gtk@@@Glib@@@Container_Helpers@Glib@@@Container_Helpers@Glib@@QEBA?AV?$RefPtr@$$CBVFileFilter@Gtk@@@2@XZ
    ??$_Destroy_range@U?$_Wrap_alloc@V?$allocator@V?$basic_string@DU?$char_traits@D@std@@V?$allocator@D@2@@std@@@std@@@std@@@std@@YAXPEAV?$basic_string@DU?$char_traits@D@std@@V?$allocator@D@2@@0@0AEAU?$_Wrap_alloc@V?$allocator@V?$basic_string@DU?$char_traits@D@std@@V?$allocator@D@2@@std@@@std@@@0@U_Nonscalar_ptr_iterator_tag@0@@Z
    ??$destroy@V?$basic_string@DU?$char_traits@D@std@@V?$allocator@D@2@@std@@@?$_Wrap_alloc@V?$allocator@V?$basic_string@DU?$char_traits@D@std@@V?$allocator@D@2@@std@@@std@@@std@@QEAAXPEAV?$basic_string@DU?$char_traits@D@std@@V?$allocator@D@2@@1@@Z
    ??$_Construct@V?$SListIterator@U?$TypeTraits@V?$basic_string@DU?$char_traits@D@std@@V?$allocator@D@2@@std@@@Container_Helpers@Glib@@@Container_Helpers@Glib@@@?$vector@V?$basic_string@DU?$char_traits@D@std@@V?$allocator@D@2@@std@@V?$allocator@V?$basic_string@DU?$char_traits@D@std@@V?$allocator@D@2@@std@@@2@@std@@QEAAXV?$SListIterator@U?$TypeTraits@V?$basic_string@DU?$char_traits@D@std@@V?$allocator@D@2@@std@@@Container_Helpers@Glib@@@Container_Helpers@Glib@@0Uforward_iterator_tag@1@@Z
    ??$_Construct@V?$SListIterator@U?$TypeTraits@Vustring@Glib@@@Container_Helpers@Glib@@@Container_Helpers@Glib@@@?$vector@Vustring@Glib@@V?$allocator@Vustring@Glib@@@std@@@std@@QEAAXV?$SListIterator@U?$TypeTraits@Vustring@Glib@@@Container_Helpers@Glib@@@Container_Helpers@Glib@@0Uforward_iterator_tag@1@@Z
    ??$_Construct@V?$SListIterator@U?$TypeTraits@V?$RefPtr@VFile@Gio@@@Glib@@@Container_Helpers@Glib@@@Container_Helpers@Glib@@@?$vector@V?$RefPtr@VFile@Gio@@@Glib@@V?$allocator@V?$RefPtr@VFile@Gio@@@Glib@@@std@@@std@@QEAAXV?$SListIterator@U?$TypeTraits@V?$RefPtr@VFile@Gio@@@Glib@@@Container_Helpers@Glib@@@Container_Helpers@Glib@@0Uforward_iterator_tag@1@@Z
    ??$_Construct@V?$SListIterator@U?$TypeTraits@V?$RefPtr@VFileFilter@Gtk@@@Glib@@@Container_Helpers@Glib@@@Container_Helpers@Glib@@@?$vector@V?$RefPtr@VFileFilter@Gtk@@@Glib@@V?$allocator@V?$RefPtr@VFileFilter@Gtk@@@Glib@@@std@@@std@@QEAAXV?$SListIterator@U?$TypeTraits@V?$RefPtr@VFileFilter@Gtk@@@Glib@@@Container_Helpers@Glib@@@Container_Helpers@Glib@@0Uforward_iterator_tag@1@@Z
    ??$_Construct@V?$SListIterator@U?$TypeTraits@V?$RefPtr@$$CBVFileFilter@Gtk@@@Glib@@@Container_Helpers@Glib@@@Container_Helpers@Glib@@@?$vector@V?$RefPtr@$$CBVFileFilter@Gtk@@@Glib@@V?$allocator@V?$RefPtr@$$CBVFileFilter@Gtk@@@Glib@@@std@@@std@@QEAAXV?$SListIterator@U?$TypeTraits@V?$RefPtr@$$CBVFileFilter@Gtk@@@Glib@@@Container_Helpers@Glib@@@Container_Helpers@Glib@@0Uforward_iterator_tag@1@@Z
    ??$_Uninit_copy@V?$SListIterator@U?$TypeTraits@V?$basic_string@DU?$char_traits@D@std@@V?$allocator@D@2@@std@@@Container_Helpers@Glib@@@Container_Helpers@Glib@@PEAV?$basic_string@DU?$char_traits@D@std@@V?$allocator@D@2@@std@@V?$allocator@V?$basic_string@DU?$char_traits@D@std@@V?$allocator@D@2@@std@@@5@@std@@YAPEAV?$basic_string@DU?$char_traits@D@std@@V?$allocator@D@2@@0@V?$SListIterator@U?$TypeTraits@V?$basic_string@DU?$char_traits@D@std@@V?$allocator@D@2@@std@@@Container_Helpers@Glib@@@Container_Helpers@Glib@@0PEAV10@AEAU?$_Wrap_alloc@V?$allocator@V?$basic_string@DU?$char_traits@D@std@@V?$allocator@D@2@@std@@@std@@@0@U_Nonscalar_ptr_iterator_tag@0@@Z
    ??$_Uninit_copy@V?$SListIterator@U?$TypeTraits@Vustring@Glib@@@Container_Helpers@Glib@@@Container_Helpers@Glib@@PEAVustring@3@V?$allocator@Vustring@Glib@@@std@@@std@@YAPEAVustring@Glib@@V?$SListIterator@U?$TypeTraits@Vustring@Glib@@@Container_Helpers@Glib@@@Container_Helpers@2@0PEAV12@AEAU?$_Wrap_alloc@V?$allocator@Vustring@Glib@@@std@@@0@U_Nonscalar_ptr_iterator_tag@0@@Z
    ??$_Uninit_copy@V?$SListIterator@U?$TypeTraits@V?$RefPtr@VFile@Gio@@@Glib@@@Container_Helpers@Glib@@@Container_Helpers@Glib@@PEAV?$RefPtr@VFile@Gio@@@3@V?$allocator@V?$RefPtr@VFile@Gio@@@Glib@@@std@@@std@@YAPEAV?$RefPtr@VFile@Gio@@@Glib@@V?$SListIterator@U?$TypeTraits@V?$RefPtr@VFile@Gio@@@Glib@@@Container_Helpers@Glib@@@Container_Helpers@2@0PEAV12@AEAU?$_Wrap_alloc@V?$allocator@V?$RefPtr@VFile@Gio@@@Glib@@@std@@@0@U_Nonscalar_ptr_iterator_tag@0@@Z
    ??$_Uninit_copy@V?$SListIterator@U?$TypeTraits@V?$RefPtr@VFileFilter@Gtk@@@Glib@@@Container_Helpers@Glib@@@Container_Helpers@Glib@@PEAV?$RefPtr@VFileFilter@Gtk@@@3@V?$allocator@V?$RefPtr@VFileFilter@Gtk@@@Glib@@@std@@@std@@YAPEAV?$RefPtr@VFileFilter@Gtk@@@Glib@@V?$SListIterator@U?$TypeTraits@V?$RefPtr@VFileFilter@Gtk@@@Glib@@@Container_Helpers@Glib@@@Container_Helpers@2@0PEAV12@AEAU?$_Wrap_alloc@V?$allocator@V?$RefPtr@VFileFilter@Gtk@@@Glib@@@std@@@0@U_Nonscalar_ptr_iterator_tag@0@@Z
    ??$_Uninit_copy@V?$SListIterator@U?$TypeTraits@V?$RefPtr@$$CBVFileFilter@Gtk@@@Glib@@@Container_Helpers@Glib@@@Container_Helpers@Glib@@PEAV?$RefPtr@$$CBVFileFilter@Gtk@@@3@V?$allocator@V?$RefPtr@$$CBVFileFilter@Gtk@@@Glib@@@std@@@std@@YAPEAV?$RefPtr@$$CBVFileFilter@Gtk@@@Glib@@V?$SListIterator@U?$TypeTraits@V?$RefPtr@$$CBVFileFilter@Gtk@@@Glib@@@Container_Helpers@Glib@@@Container_Helpers@2@0PEAV12@AEAU?$_Wrap_alloc@V?$allocator@V?$RefPtr@$$CBVFileFilter@Gtk@@@Glib@@@std@@@0@U_Nonscalar_ptr_iterator_tag@0@@Z
    ??_7Exception@Glib@@6B@
    ??_7FileChooserError@Gtk@@6B@
    ??_7FileChooser@Gtk@@6B@
    ??_8FileChooser@Gtk@@7BInterface@Glib@@@
    ??_8FileChooser@Gtk@@7BObjectBase@Glib@@@
    ??_R0?AVObjectBase@Glib@@@8
    ??_R0?AVFileChooser@Gtk@@@8
    _TI3?AVFileChooserError@Gtk@@
    _CTA3?AVFileChooserError@Gtk@@
    ??_R0?AVFileChooserError@Gtk@@@8
    _CT??_R0?AVFileChooserError@Gtk@@@8??0FileChooserError@Gtk@@QEAA@AEBV01@@Z16
    ??_R0?AVError@Glib@@@8
    _CT??_R0?AVError@Glib@@@8??0Error@Glib@@QEAA@AEBV01@@Z16
    ??_R0?AVException@Glib@@@8
    _CT??_R0?AVException@Glib@@@8??0Exception@Glib@@QEAA@AEBV01@@Z8
    ??_C@_0L@IGFGCBFO@klass?5?$CB?$DN?50?$AA@
    ??_C@_0CM@OJLEBNFM@Gtk?3?3FileChooser_Class?3?3iface_in@
    ??_C@_0BM@JLAFPMCK@?4?4?2gtk?2gtkmm?2filechooser?4cc?$AA@
    ??_C@_06DDLLCOJG@action?$AA@
    ??_C@_06EOIELIPE@filter?$AA@
    ??_C@_0L@BPHKKIHL@local?9only?$AA@
    ??_C@_0P@NOAELJCO@preview?9widget?$AA@
    ??_C@_0BG@FCBEFALC@preview?9widget?9active?$AA@
    ??_C@_0BC@NNMMBNHL@use?9preview?9label?$AA@
    ??_C@_0N@JNAFKKLH@extra?9widget?$AA@
    ??_C@_0BA@LJFAKAMO@select?9multiple?$AA@
    ??_C@_0M@BBICDJKE@show?9hidden?$AA@
    ??_C@_0BK@BOIMMNA@do?9overwrite?9confirmation?$AA@
    ??_C@_0P@PNKPHMFH@create?9folders?$AA@
    ??_C@_0BI@CFPLBAOH@invalid?5string?5position?$AA@
    ??_C@_0BA@JFNIOLAK@string?5too?5long?$AA@
    ??_C@_0FM@MEPOJGMK@Glib?3?3wrap_auto_interface?$CI?$CJ?3?5The@
    ??_C@_0BD@OLBABOEK@vector?$DMT?$DO?5too?5long?$AA@
    ??_R0?AVFileFilter@Gtk@@@8
    ??_R4Exception@Glib@@6B@
    ??_R3Exception@Glib@@8
    ??_R2Exception@Glib@@8
    ??_R1A@?0A@EA@Exception@Glib@@8
    ??_R4FileChooserError@Gtk@@6B@
    ??_R3FileChooserError@Gtk@@8
    ??_R2FileChooserError@Gtk@@8
    ??_R1A@?0A@EA@FileChooserError@Gtk@@8
    ??_R1A@?0A@EA@Error@Glib@@8
    ??_R3Error@Glib@@8
    ??_R2Error@Glib@@8
    ??_R4FileChooser@Gtk@@6B@
    ??_R3FileChooser@Gtk@@8
    ??_R2FileChooser@Gtk@@8
    ??_R1A@?0A@EA@FileChooser@Gtk@@8
    ??_R1A@?0A@EA@Interface@Glib@@8
    ??_R0?AVInterface@Glib@@@8
    ??_R3Interface@Glib@@8
    ??_R2Interface@Glib@@8
    ??_R1A@A@7FA@ObjectBase@Glib@@8
    ??_R3ObjectBase@Glib@@8
    ??_R2ObjectBase@Glib@@8
    ??_R1A@?0A@EA@ObjectBase@Glib@@8
    ??_R1A@73FA@trackable@sigc@@8
    ??_R0?AUtrackable@sigc@@@8
    ??_R3trackable@sigc@@8
    ??_R2trackable@sigc@@8
    ??_R1A@?0A@EA@trackable@sigc@@8
    ??_R1A@A@3FA@trackable@sigc@@8
    ?filechooserbutton_class_@FileChooserButton@Gtk@@0VFileChooserButton_Class@2@A
    ??_C@_08KIJAEBGJ@file?9set?$AA@
    ?__empty_global_delete@@YAXPEAX@Z
    ?__empty_global_delete@@YAXPEAX_K@Z
    ?convert_const_gchar_ptr_to_ustring@Glib@@YA?AVustring@1@PEBD@Z
    ??1FileChooserButton@Gtk@@UEAA@XZ
    ??0FileChooserButton@Gtk@@IEAA@AEBVConstructParams@Glib@@@Z
    ??0FileChooserButton@Gtk@@IEAA@PEAU_GtkFileChooserButton@@@Z
    ?get_type@FileChooserButton@Gtk@@SA_KXZ
    ?get_base_type@FileChooserButton@Gtk@@SA_KXZ
    ?on_file_set@FileChooserButton@Gtk@@MEAAXXZ
    ??0FileChooserButton@Gtk@@QEAA@W4FileChooserAction@1@@Z
    ??0FileChooserButton@Gtk@@QEAA@AEBVustring@Glib@@W4FileChooserAction@1@@Z
    ??0FileChooserButton@Gtk@@QEAA@AEAVFileChooserDialog@1@@Z
    ?get_title@FileChooserButton@Gtk@@QEBA?AVustring@Glib@@XZ
    ?set_title@FileChooserButton@Gtk@@QEAAXAEBVustring@Glib@@@Z
    ?get_width_chars@FileChooserButton@Gtk@@QEBAHXZ
    ?set_width_chars@FileChooserButton@Gtk@@QEAAXH@Z
    ?get_focus_on_click@FileChooserButton@Gtk@@QEBA_NXZ
    ?set_focus_on_click@FileChooserButton@Gtk@@QEAAXH@Z
    ?signal_file_set@FileChooserButton@Gtk@@QEAA?AV?$SignalProxy0@X@Glib@@XZ
    ?property_focus_on_click@FileChooserButton@Gtk@@QEAA?AV?$PropertyProxy@_N@Glib@@XZ
    ?property_focus_on_click@FileChooserButton@Gtk@@QEBA?AV?$PropertyProxy_ReadOnly@_N@Glib@@XZ
    ?property_title@FileChooserButton@Gtk@@QEAA?AV?$PropertyProxy@Vustring@Glib@@@Glib@@XZ
    ?property_title@FileChooserButton@Gtk@@QEBA?AV?$PropertyProxy_ReadOnly@Vustring@Glib@@@Glib@@XZ
    ?property_width_chars@FileChooserButton@Gtk@@QEAA?AV?$PropertyProxy@H@Glib@@XZ
    ?property_width_chars@FileChooserButton@Gtk@@QEBA?AV?$PropertyProxy_ReadOnly@H@Glib@@XZ
    ??_DFileChooserButton@Gtk@@QEAAXXZ
    ?wrap@Glib@@YAPEAVFileChooserButton@Gtk@@PEAU_GtkFileChooserButton@@_N@Z
    ?init@FileChooserButton_Class@Gtk@@QEAAAEBVClass@Glib@@XZ
    ?class_init_function@FileChooserButton_Class@Gtk@@SAXPEAX0@Z
    ?wrap_new@FileChooserButton_Class@Gtk@@SAPEAVObjectBase@Glib@@PEAU_GObject@@@Z
    ?file_set_callback@FileChooserButton_Class@Gtk@@KAXPEAU_GtkFileChooserButton@@@Z
    ??$manage@VFileChooserButton@Gtk@@@Gtk@@YAPEAVFileChooserButton@0@PEAV10@@Z
    ?destroy_notify_@Object@Gtk@@$2PPPPPPPM@BI@EAAXXZ
    ?set_manage@Object@Gtk@@$4PPPPPPPM@BI@EAAXXZ
    ??_7FileChooserButton@Gtk@@6BWidget@1@@
    ??_7FileChooserButton@Gtk@@6BObject@1@@
    ??_8FileChooserButton@Gtk@@7BObject@Glib@@@
    ??_8FileChooserButton@Gtk@@7BInterface@Glib@@Container@1@@
    ??_8FileChooserButton@Gtk@@7BInterface@Glib@@Orientable@1@@
    ??_8FileChooserButton@Gtk@@7BInterface@Glib@@@
    ??_8FileChooserButton@Gtk@@7BObjectBase@Glib@@@
    ??_C@_06DDLLCOJG@action?$AA@
    ??_R0?AVObjectBase@Glib@@@8
    ??_R0?AVFileChooserButton@Gtk@@@8
    ??_C@_05PHLGJONK@title?$AA@
    ??_C@_06IOAEHBNO@dialog?$AA@
    ??_C@_0P@PANHJGLE@focus?9on?9click?$AA@
    ??_C@_0M@NAJJGLMC@width?9chars?$AA@
    ??_R4FileChooserButton@Gtk@@6BWidget@1@@
    ??_R3FileChooserButton@Gtk@@8
    ??_R2FileChooserButton@Gtk@@8
    ??_R1A@?0A@EA@FileChooserButton@Gtk@@8
    ??_R1A@?0A@EA@HBox@Gtk@@8
    ??_R0?AVHBox@Gtk@@@8
    ??_R3HBox@Gtk@@8
    ??_R2HBox@Gtk@@8
    ??_R1A@?0A@EA@Box@Gtk@@8
    ??_R0?AVBox@Gtk@@@8
    ??_R3Box@Gtk@@8
    ??_R2Box@Gtk@@8
    ??_R1A@?0A@EA@Container@Gtk@@8
    ??_R0?AVContainer@Gtk@@@8
    ??_R3Container@Gtk@@8
    ??_R2Container@Gtk@@8
    ??_R1A@?0A@EA@Widget@Gtk@@8
    ??_R0?AVWidget@Gtk@@@8
    ??_R3Widget@Gtk@@8
    ??_R2Widget@Gtk@@8
    ??_R17?0A@EA@Object@Gtk@@8
    ??_R0?AVObject@Gtk@@@8
    ??_R3Object@Gtk@@8
    ??_R2Object@Gtk@@8
    ??_R1A@?0A@EA@Object@Gtk@@8
    ??_R1A@?0A@EA@Object@Glib@@8
    ??_R0?AVObject@Glib@@@8
    ??_R3Object@Glib@@8
    ??_R2Object@Glib@@8
    ??_R1A@A@7FA@ObjectBase@Glib@@8
    ??_R3ObjectBase@Glib@@8
    ??_R2ObjectBase@Glib@@8
    ??_R1A@?0A@EA@ObjectBase@Glib@@8
    ??_R1A@73FA@trackable@sigc@@8
    ??_R0?AUtrackable@sigc@@@8
    ??_R3trackable@sigc@@8
    ??_R2trackable@sigc@@8
    ??_R1A@?0A@EA@trackable@sigc@@8
    ??_R1A@A@3FA@trackable@sigc@@8
    ??_R17?0A@EA@Object@Glib@@8
    ??_R1A@77FA@ObjectBase@Glib@@8
    ??_R1BI@?0A@EA@Buildable@Gtk@@8
    ??_R0?AVBuildable@Gtk@@@8
    ??_R3Buildable@Gtk@@8
    ??_R2Buildable@Gtk@@8
    ??_R1A@?0A@EA@Buildable@Gtk@@8
    ??_R1A@?0A@EA@Interface@Glib@@8
    ??_R0?AVInterface@Glib@@@8
    ??_R3Interface@Glib@@8
    ??_R2Interface@Glib@@8
    ??_R1BI@?0A@EA@Interface@Glib@@8
    ??_R1BI@?0A@EC@Interface@Glib@@8
    ??_R1CA@?0A@EA@Orientable@Gtk@@8
    ??_R0?AVOrientable@Gtk@@@8
    ??_R3Orientable@Gtk@@8
    ??_R2Orientable@Gtk@@8
    ??_R1A@?0A@EA@Orientable@Gtk@@8
    ??_R1CA@?0A@EC@Interface@Glib@@8
    ??_R1CI@?0A@EA@FileChooser@Gtk@@8
    ??_R0?AVFileChooser@Gtk@@@8
    ??_R3FileChooser@Gtk@@8
    ??_R2FileChooser@Gtk@@8
    ??_R1A@?0A@EA@FileChooser@Gtk@@8
    ??_R1CI@?0A@EC@Interface@Glib@@8
    ??_R4FileChooserButton@Gtk@@6BObject@1@@
    ?filechooserdialog_class_@FileChooserDialog@Gtk@@0VFileChooserDialog_Class@2@A
    ?__empty_global_delete@@YAXPEAX@Z
    ?__empty_global_delete@@YAXPEAX_K@Z
    ??1FileChooserDialog@Gtk@@UEAA@XZ
    ??0FileChooserDialog@Gtk@@IEAA@AEBVConstructParams@Glib@@@Z
    ??0FileChooserDialog@Gtk@@IEAA@PEAU_GtkFileChooserDialog@@@Z
    ?get_type@FileChooserDialog@Gtk@@SA_KXZ
    ?get_base_type@FileChooserDialog@Gtk@@SA_KXZ
    ??0FileChooserDialog@Gtk@@QEAA@AEAVWindow@1@AEBVustring@Glib@@W4FileChooserAction@1@@Z
    ??0FileChooserDialog@Gtk@@QEAA@AEBVustring@Glib@@W4FileChooserAction@1@@Z
    ??0FileChooserDialog@Gtk@@QEAA@AEAVWindow@1@AEBVustring@Glib@@W4FileChooserAction@1@1@Z
    ??0FileChooserDialog@Gtk@@QEAA@AEBVustring@Glib@@W4FileChooserAction@1@0@Z
    ??_DFileChooserDialog@Gtk@@QEAAXXZ
    ?wrap@Glib@@YAPEAVFileChooserDialog@Gtk@@PEAU_GtkFileChooserDialog@@_N@Z
    ?init@FileChooserDialog_Class@Gtk@@QEAAAEBVClass@Glib@@XZ
    ?class_init_function@FileChooserDialog_Class@Gtk@@SAXPEAX0@Z
    ?wrap_new@FileChooserDialog_Class@Gtk@@SAPEAVObjectBase@Glib@@PEAU_GObject@@@Z
    ?destroy_notify_@Object@Gtk@@$2PPPPPPPM@BI@EAAXXZ
    ?set_manage@Window@Gtk@@$4PPPPPPPM@7EAAXXZ
    ??_7FileChooserDialog@Gtk@@6BWidget@1@@
    ??_7FileChooserDialog@Gtk@@6BObject@1@@
    ??_8FileChooserDialog@Gtk@@7BObject@Glib@@@
    ??_8FileChooserDialog@Gtk@@7BInterface@Glib@@Dialog@1@@
    ??_8FileChooserDialog@Gtk@@7BInterface@Glib@@FileChooser@1@@
    ??_8FileChooserDialog@Gtk@@7BObjectBase@Glib@@@
    ??_C@_06DDLLCOJG@action?$AA@
    ??_C@_05PHLGJONK@title?$AA@
    ??_C@_0BE@BJCNCPHP@file?9system?9backend?$AA@
    ??_R0?AVObjectBase@Glib@@@8
    ??_R0?AVFileChooserDialog@Gtk@@@8
    ??_R4FileChooserDialog@Gtk@@6BWidget@1@@
    ??_R3FileChooserDialog@Gtk@@8
    ??_R2FileChooserDialog@Gtk@@8
    ??_R1A@?0A@EA@FileChooserDialog@Gtk@@8
    ??_R1A@?0A@EA@Dialog@Gtk@@8
    ??_R0?AVDialog@Gtk@@@8
    ??_R3Dialog@Gtk@@8
    ??_R2Dialog@Gtk@@8
    ??_R1A@?0A@EA@Window@Gtk@@8
    ??_R0?AVWindow@Gtk@@@8
    ??_R3Window@Gtk@@8
    ??_R2Window@Gtk@@8
    ??_R1A@?0A@EA@Bin@Gtk@@8
    ??_R0?AVBin@Gtk@@@8
    ??_R3Bin@Gtk@@8
    ??_R2Bin@Gtk@@8
    ??_R1A@?0A@EA@Container@Gtk@@8
    ??_R0?AVContainer@Gtk@@@8
    ??_R3Container@Gtk@@8
    ??_R2Container@Gtk@@8
    ??_R1A@?0A@EA@Widget@Gtk@@8
    ??_R0?AVWidget@Gtk@@@8
    ??_R3Widget@Gtk@@8
    ??_R2Widget@Gtk@@8
    ??_R17?0A@EA@Object@Gtk@@8
    ??_R0?AVObject@Gtk@@@8
    ??_R3Object@Gtk@@8
    ??_R2Object@Gtk@@8
    ??_R1A@?0A@EA@Object@Gtk@@8
    ??_R1A@?0A@EA@Object@Glib@@8
    ??_R0?AVObject@Glib@@@8
    ??_R3Object@Glib@@8
    ??_R2Object@Glib@@8
    ??_R1A@A@7FA@ObjectBase@Glib@@8
    ??_R3ObjectBase@Glib@@8
    ??_R2ObjectBase@Glib@@8
    ??_R1A@?0A@EA@ObjectBase@Glib@@8
    ??_R1A@73FA@trackable@sigc@@8
    ??_R0?AUtrackable@sigc@@@8
    ??_R3trackable@sigc@@8
    ??_R2trackable@sigc@@8
    ??_R1A@?0A@EA@trackable@sigc@@8
    ??_R1A@A@3FA@trackable@sigc@@8
    ??_R17?0A@EA@Object@Glib@@8
    ??_R1A@77FA@ObjectBase@Glib@@8
    ??_R1BI@?0A@EA@Buildable@Gtk@@8
    ??_R0?AVBuildable@Gtk@@@8
    ??_R3Buildable@Gtk@@8
    ??_R2Buildable@Gtk@@8
    ??_R1A@?0A@EA@Buildable@Gtk@@8
    ??_R1A@?0A@EA@Interface@Glib@@8
    ??_R0?AVInterface@Glib@@@8
    ??_R3Interface@Glib@@8
    ??_R2Interface@Glib@@8
    ??_R1BI@?0A@EA@Interface@Glib@@8
    ??_R1BI@?0A@EC@Interface@Glib@@8
    ??_R1CI@?0A@EA@FileChooser@Gtk@@8
    ??_R0?AVFileChooser@Gtk@@@8
    ??_R3FileChooser@Gtk@@8
    ??_R2FileChooser@Gtk@@8
    ??_R1A@?0A@EA@FileChooser@Gtk@@8
    ??_R1CI@?0A@EC@Interface@Glib@@8
    ??_R4FileChooserDialog@Gtk@@6BObject@1@@
    ?filechooserwidget_class_@FileChooserWidget@Gtk@@0VFileChooserWidget_Class@2@A
    ?__empty_global_delete@@YAXPEAX@Z
    ?__empty_global_delete@@YAXPEAX_K@Z
    ??1FileChooserWidget@Gtk@@UEAA@XZ
    ??0FileChooserWidget@Gtk@@IEAA@AEBVConstructParams@Glib@@@Z
    ??0FileChooserWidget@Gtk@@IEAA@PEAU_GtkFileChooserWidget@@@Z
    ?get_type@FileChooserWidget@Gtk@@SA_KXZ
    ?get_base_type@FileChooserWidget@Gtk@@SA_KXZ
    ??0FileChooserWidget@Gtk@@QEAA@XZ
    ??0FileChooserWidget@Gtk@@QEAA@W4FileChooserAction@1@@Z
    ??_DFileChooserWidget@Gtk@@QEAAXXZ
    ?wrap@Glib@@YAPEAVFileChooserWidget@Gtk@@PEAU_GtkFileChooserWidget@@_N@Z
    ?init@FileChooserWidget_Class@Gtk@@QEAAAEBVClass@Glib@@XZ
    ?class_init_function@FileChooserWidget_Class@Gtk@@SAXPEAX0@Z
    ?wrap_new@FileChooserWidget_Class@Gtk@@SAPEAVObjectBase@Glib@@PEAU_GObject@@@Z
    ??$manage@VFileChooserWidget@Gtk@@@Gtk@@YAPEAVFileChooserWidget@0@PEAV10@@Z
    ?destroy_notify_@Object@Gtk@@$2PPPPPPPM@BI@EAAXXZ
    ?set_manage@Object@Gtk@@$4PPPPPPPM@BI@EAAXXZ
    ??_7FileChooserWidget@Gtk@@6BWidget@1@@
    ??_7FileChooserWidget@Gtk@@6BObject@1@@
    ??_8FileChooserWidget@Gtk@@7BObject@Glib@@@
    ??_8FileChooserWidget@Gtk@@7BInterface@Glib@@Container@1@@
    ??_8FileChooserWidget@Gtk@@7BInterface@Glib@@Orientable@1@@
    ??_8FileChooserWidget@Gtk@@7BInterface@Glib@@@
    ??_8FileChooserWidget@Gtk@@7BObjectBase@Glib@@@
    ??_R0?AVObjectBase@Glib@@@8
    ??_R0?AVFileChooserWidget@Gtk@@@8
    ??_C@_06DDLLCOJG@action?$AA@
    ??_R4FileChooserWidget@Gtk@@6BWidget@1@@
    ??_R3FileChooserWidget@Gtk@@8
    ??_R2FileChooserWidget@Gtk@@8
    ??_R1A@?0A@EA@FileChooserWidget@Gtk@@8
    ??_R1A@?0A@EA@VBox@Gtk@@8
    ??_R0?AVVBox@Gtk@@@8
    ??_R3VBox@Gtk@@8
    ??_R2VBox@Gtk@@8
    ??_R1A@?0A@EA@Box@Gtk@@8
    ??_R0?AVBox@Gtk@@@8
    ??_R3Box@Gtk@@8
    ??_R2Box@Gtk@@8
    ??_R1A@?0A@EA@Container@Gtk@@8
    ??_R0?AVContainer@Gtk@@@8
    ??_R3Container@Gtk@@8
    ??_R2Container@Gtk@@8
    ??_R1A@?0A@EA@Widget@Gtk@@8
    ??_R0?AVWidget@Gtk@@@8
    ??_R3Widget@Gtk@@8
    ??_R2Widget@Gtk@@8
    ??_R17?0A@EA@Object@Gtk@@8
    ??_R0?AVObject@Gtk@@@8
    ??_R3Object@Gtk@@8
    ??_R2Object@Gtk@@8
    ??_R1A@?0A@EA@Object@Gtk@@8
    ??_R1A@?0A@EA@Object@Glib@@8
    ??_R0?AVObject@Glib@@@8
    ??_R3Object@Glib@@8
    ??_R2Object@Glib@@8
    ??_R1A@A@7FA@ObjectBase@Glib@@8
    ??_R3ObjectBase@Glib@@8
    ??_R2ObjectBase@Glib@@8
    ??_R1A@?0A@EA@ObjectBase@Glib@@8
    ??_R1A@73FA@trackable@sigc@@8
    ??_R0?AUtrackable@sigc@@@8
    ??_R3trackable@sigc@@8
    ??_R2trackable@sigc@@8
    ??_R1A@?0A@EA@trackable@sigc@@8
    ??_R1A@A@3FA@trackable@sigc@@8
    ??_R17?0A@EA@Object@Glib@@8
    ??_R1A@77FA@ObjectBase@Glib@@8
    ??_R1BI@?0A@EA@Buildable@Gtk@@8
    ??_R0?AVBuildable@Gtk@@@8
    ??_R3Buildable@Gtk@@8
    ??_R2Buildable@Gtk@@8
    ??_R1A@?0A@EA@Buildable@Gtk@@8
    ??_R1A@?0A@EA@Interface@Glib@@8
    ??_R0?AVInterface@Glib@@@8
    ??_R3Interface@Glib@@8
    ??_R2Interface@Glib@@8
    ??_R1BI@?0A@EA@Interface@Glib@@8
    ??_R1BI@?0A@EC@Interface@Glib@@8
    ??_R1CA@?0A@EA@Orientable@Gtk@@8
    ??_R0?AVOrientable@Gtk@@@8
    ??_R3Orientable@Gtk@@8
    ??_R2Orientable@Gtk@@8
    ??_R1A@?0A@EA@Orientable@Gtk@@8
    ??_R1CA@?0A@EC@Interface@Glib@@8
    ??_R1CI@?0A@EA@FileChooser@Gtk@@8
    ??_R0?AVFileChooser@Gtk@@@8
    ??_R3FileChooser@Gtk@@8
    ??_R2FileChooser@Gtk@@8
    ??_R1A@?0A@EA@FileChooser@Gtk@@8
    ??_R1CI@?0A@EC@Interface@Glib@@8
    ??_R4FileChooserWidget@Gtk@@6BObject@1@@
    ?filefilter_class_@FileFilter@Gtk@@0VFileFilter_Class@2@A
    ?__empty_global_delete@@YAXPEAX@Z
    ?__empty_global_delete@@YAXPEAX_K@Z
    ?convert_const_gchar_ptr_to_ustring@Glib@@YA?AVustring@1@PEBD@Z
    ?value_type@?$Value@W4FileFilterFlags@Gtk@@@Glib@@SA_KXZ
    ??0FileFilter@Gtk@@IEAA@AEBVConstructParams@Glib@@@Z
    ??0FileFilter@Gtk@@IEAA@PEAU_GtkFileFilter@@@Z
    ??1FileFilter@Gtk@@UEAA@XZ
    ?get_type@FileFilter@Gtk@@SA_KXZ
    ?get_base_type@FileFilter@Gtk@@SA_KXZ
    ?gobj_copy@FileFilter@Gtk@@QEAAPEAU_GtkFileFilter@@XZ
    ??0FileFilter@Gtk@@IEAA@XZ
    ?create@FileFilter@Gtk@@SA?AV?$RefPtr@VFileFilter@Gtk@@@Glib@@XZ
    ?set_name@FileFilter@Gtk@@QEAAXAEBVustring@Glib@@@Z
    ?get_name@FileFilter@Gtk@@QEBA?AVustring@Glib@@XZ
    ?add_mime_type@FileFilter@Gtk@@QEAAXAEBVustring@Glib@@@Z
    ?add_pattern@FileFilter@Gtk@@QEAAXAEBVustring@Glib@@@Z
    ?add_pixbuf_formats@FileFilter@Gtk@@QEAAXXZ
    ??1Info@FileFilter@Gtk@@QEAA@XZ
    ?add_custom@FileFilter@Gtk@@QEAAXW4FileFilterFlags@2@AEBV?$slot@_NAEBVInfo@FileFilter@Gtk@@Unil@sigc@@U45@U45@U45@U45@U45@@sigc@@@Z
    ?get_needed@FileFilter@Gtk@@QEBA?AW4FileFilterFlags@2@XZ
    ?wrap@Glib@@YA?AV?$RefPtr@VFileFilter@Gtk@@@1@PEAU_GtkFileFilter@@_N@Z
    ?init@FileFilter_Class@Gtk@@QEAAAEBVClass@Glib@@XZ
    ?class_init_function@FileFilter_Class@Gtk@@SAXPEAX0@Z
    ?wrap_new@FileFilter_Class@Gtk@@SAPEAVObjectBase@Glib@@PEAU_GObject@@@Z
    ??_7FileFilter@Gtk@@6B@
    ??_8FileFilter@Gtk@@7BObject@Glib@@@
    ??_8FileFilter@Gtk@@7BObjectBase@Glib@@@
    ??_R0?AVObjectBase@Glib@@@8
    ??_R0?AVFileFilter@Gtk@@@8
    ??_R4FileFilter@Gtk@@6B@
    ??_R3FileFilter@Gtk@@8
    ??_R2FileFilter@Gtk@@8
    ??_R1A@?0A@EA@FileFilter@Gtk@@8
    ??_R1A@?0A@EA@Object@Glib@@8
    ??_R0?AVObject@Glib@@@8
    ??_R3Object@Glib@@8
    ??_R2Object@Glib@@8
    ??_R1A@A@7FA@ObjectBase@Glib@@8
    ??_R3ObjectBase@Glib@@8
    ??_R2ObjectBase@Glib@@8
    ??_R1A@?0A@EA@ObjectBase@Glib@@8
    ??_R1A@73FA@trackable@sigc@@8
    ??_R0?AUtrackable@sigc@@@8
    ??_R3trackable@sigc@@8
    ??_R2trackable@sigc@@8
    ??_R1A@?0A@EA@trackable@sigc@@8
    ??_R1A@A@3FA@trackable@sigc@@8
    ?fixed_class_@Fixed@Gtk@@0VFixed_Class@2@A
    ?__empty_global_delete@@YAXPEAX@Z
    ?__empty_global_delete@@YAXPEAX_K@Z
    ??1Fixed@Gtk@@UEAA@XZ
    ??0Fixed@Gtk@@IEAA@AEBVConstructParams@Glib@@@Z
    ??0Fixed@Gtk@@IEAA@PEAU_GtkFixed@@@Z
    ?get_type@Fixed@Gtk@@SA_KXZ
    ?get_base_type@Fixed@Gtk@@SA_KXZ
    ??0Fixed@Gtk@@QEAA@XZ
    ?put@Fixed@Gtk@@QEAAXAEAVWidget@2@HH@Z
    ?move@Fixed@Gtk@@QEAAXAEAVWidget@2@HH@Z
    ?child_property_x@Fixed@Gtk@@QEAA?AV?$ChildPropertyProxy@H@2@AEAVWidget@2@@Z
    ?child_property_x@Fixed@Gtk@@QEBA?AV?$ChildPropertyProxy_ReadOnly@H@2@AEBVWidget@2@@Z
    ?child_property_y@Fixed@Gtk@@QEAA?AV?$ChildPropertyProxy@H@2@AEAVWidget@2@@Z
    ?child_property_y@Fixed@Gtk@@QEBA?AV?$ChildPropertyProxy_ReadOnly@H@2@AEBVWidget@2@@Z
    ??_DFixed@Gtk@@QEAAXXZ
    ?wrap@Glib@@YAPEAVFixed@Gtk@@PEAU_GtkFixed@@_N@Z
    ?init@Fixed_Class@Gtk@@QEAAAEBVClass@Glib@@XZ
    ?class_init_function@Fixed_Class@Gtk@@SAXPEAX0@Z
    ?wrap_new@Fixed_Class@Gtk@@SAPEAVObjectBase@Glib@@PEAU_GObject@@@Z
    ??$manage@VFixed@Gtk@@@Gtk@@YAPEAVFixed@0@PEAV10@@Z
    ?destroy_notify_@Object@Gtk@@$2PPPPPPPM@7EAAXXZ
    ?set_manage@Object@Gtk@@$4PPPPPPPM@7EAAXXZ
    ??_7Fixed@Gtk@@6BWidget@1@@
    ??_7Fixed@Gtk@@6BObject@1@@
    ??_8Fixed@Gtk@@7BObject@Glib@@@
    ??_8Fixed@Gtk@@7BInterface@Glib@@@
    ??_8Fixed@Gtk@@7BObjectBase@Glib@@@
    ??_R0?AVObjectBase@Glib@@@8
    ??_R0?AVFixed@Gtk@@@8
    ??_C@_01FJMABOPO@x?$AA@
    ??_C@_01EANLCPLP@y?$AA@
    ??_R4Fixed@Gtk@@6BWidget@1@@
    ??_R3Fixed@Gtk@@8
    ??_R2Fixed@Gtk@@8
    ??_R1A@?0A@EA@Fixed@Gtk@@8
    ??_R1A@?0A@EA@Container@Gtk@@8
    ??_R0?AVContainer@Gtk@@@8
    ??_R3Container@Gtk@@8
    ??_R2Container@Gtk@@8
    ??_R1A@?0A@EA@Widget@Gtk@@8
    ??_R0?AVWidget@Gtk@@@8
    ??_R3Widget@Gtk@@8
    ??_R2Widget@Gtk@@8
    ??_R17?0A@EA@Object@Gtk@@8
    ??_R0?AVObject@Gtk@@@8
    ??_R3Object@Gtk@@8
    ??_R2Object@Gtk@@8
    ??_R1A@?0A@EA@Object@Gtk@@8
    ??_R1A@?0A@EA@Object@Glib@@8
    ??_R0?AVObject@Glib@@@8
    ??_R3Object@Glib@@8
    ??_R2Object@Glib@@8
    ??_R1A@A@7FA@ObjectBase@Glib@@8
    ??_R3ObjectBase@Glib@@8
    ??_R2ObjectBase@Glib@@8
    ??_R1A@?0A@EA@ObjectBase@Glib@@8
    ??_R1A@73FA@trackable@sigc@@8
    ??_R0?AUtrackable@sigc@@@8
    ??_R3trackable@sigc@@8
    ??_R2trackable@sigc@@8
    ??_R1A@?0A@EA@trackable@sigc@@8
    ??_R1A@A@3FA@trackable@sigc@@8
    ??_R17?0A@EA@Object@Glib@@8
    ??_R1A@77FA@ObjectBase@Glib@@8
    ??_R1BI@?0A@EA@Buildable@Gtk@@8
    ??_R0?AVBuildable@Gtk@@@8
    ??_R3Buildable@Gtk@@8
    ??_R2Buildable@Gtk@@8
    ??_R1A@?0A@EA@Buildable@Gtk@@8
    ??_R1A@?0A@EA@Interface@Glib@@8
    ??_R0?AVInterface@Glib@@@8
    ??_R3Interface@Glib@@8
    ??_R2Interface@Glib@@8
    ??_R1BI@?0A@EA@Interface@Glib@@8
    ??_R4Fixed@Gtk@@6BObject@1@@
    ?flowbox_class_@FlowBox@Gtk@@0VFlowBox_Class@2@A
    ??_C@_0BA@OBOCOGCB@child?9activated?$AA@
    ??_C@_0BK@JLNDLAM@selected?9children?9changed?$AA@
    ?__empty_global_delete@@YAXPEAX@Z
    ?__empty_global_delete@@YAXPEAX_K@Z
    ??1FlowBox@Gtk@@UEAA@XZ
    ??0FlowBox@Gtk@@IEAA@AEBVConstructParams@Glib@@@Z
    ??0FlowBox@Gtk@@IEAA@PEAU_GtkFlowBox@@@Z
    ?get_type@FlowBox@Gtk@@SA_KXZ
    ?get_base_type@FlowBox@Gtk@@SA_KXZ
    ?on_child_activated@FlowBox@Gtk@@MEAAXPEAVFlowBoxChild@2@@Z
    ?on_selected_children_changed@FlowBox@Gtk@@MEAAXXZ
    ??0FlowBox@Gtk@@QEAA@XZ
    ?set_homogeneous@FlowBox@Gtk@@QEAAX_N@Z
    ?get_homogeneous@FlowBox@Gtk@@QEBA_NXZ
    ?set_row_spacing@FlowBox@Gtk@@QEAAXI@Z
    ?get_row_spacing@FlowBox@Gtk@@QEBAIXZ
    ?set_column_spacing@FlowBox@Gtk@@QEAAXI@Z
    ?get_column_spacing@FlowBox@Gtk@@QEBAIXZ
    ?set_min_children_per_line@FlowBox@Gtk@@QEAAXI@Z
    ?get_min_children_per_line@FlowBox@Gtk@@QEBAIXZ
    ?set_max_children_per_line@FlowBox@Gtk@@QEAAXI@Z
    ?get_max_children_per_line@FlowBox@Gtk@@QEBAIXZ
    ?set_activate_on_single_click@FlowBox@Gtk@@QEAAX_N@Z
    ?get_activate_on_single_click@FlowBox@Gtk@@QEBA_NXZ
    ?insert@FlowBox@Gtk@@QEAAXAEAVWidget@2@H@Z
    ?get_child_at_index@FlowBox@Gtk@@QEAAPEAVFlowBoxChild@2@H@Z
    ?get_child_at_index@FlowBox@Gtk@@QEBAPEBVFlowBoxChild@2@H@Z
    ?selected_foreach@FlowBox@Gtk@@QEAAXAEBV?$slot@XPEAVFlowBox@Gtk@@PEAVFlowBoxChild@2@Unil@sigc@@U45@U45@U45@U45@@sigc@@@Z
    ?get_selected_children@FlowBox@Gtk@@QEAA?AV?$vector@PEAVFlowBoxChild@Gtk@@V?$allocator@PEAVFlowBoxChild@Gtk@@@std@@@std@@XZ
    ?get_selected_children@FlowBox@Gtk@@QEBA?AV?$vector@PEBVFlowBoxChild@Gtk@@V?$allocator@PEBVFlowBoxChild@Gtk@@@std@@@std@@XZ
    ?select_child@FlowBox@Gtk@@QEAAXAEAVFlowBoxChild@2@@Z
    ?unselect_child@FlowBox@Gtk@@QEAAXAEAVFlowBoxChild@2@@Z
    ?select_all@FlowBox@Gtk@@QEAAXXZ
    ?unselect_all@FlowBox@Gtk@@QEAAXXZ
    ?set_selection_mode@FlowBox@Gtk@@QEAAXW4SelectionMode@2@@Z
    ?get_selection_mode@FlowBox@Gtk@@QEBA?AW4SelectionMode@2@XZ
    ?set_hadjustment@FlowBox@Gtk@@QEAAXAEBV?$RefPtr@VAdjustment@Gtk@@@Glib@@@Z
    ?set_vadjustment@FlowBox@Gtk@@QEAAXAEBV?$RefPtr@VAdjustment@Gtk@@@Glib@@@Z
    ?set_filter_func@FlowBox@Gtk@@QEAAXAEBV?$slot@_NPEAVFlowBoxChild@Gtk@@Unil@sigc@@U34@U34@U34@U34@U34@@sigc@@@Z
    ?unset_filter_func@FlowBox@Gtk@@QEAAXXZ
    ?invalidate_filter@FlowBox@Gtk@@QEAAXXZ
    ?set_sort_func@FlowBox@Gtk@@QEAAXAEBV?$slot@HPEAVFlowBoxChild@Gtk@@PEAV12@Unil@sigc@@U34@U34@U34@U34@@sigc@@@Z
    ?unset_sort_func@FlowBox@Gtk@@QEAAXXZ
    ?invalidate_sort@FlowBox@Gtk@@QEAAXXZ
    ?property_selection_mode@FlowBox@Gtk@@QEAA?AV?$PropertyProxy@W4SelectionMode@Gtk@@@Glib@@XZ
    ?property_selection_mode@FlowBox@Gtk@@QEBA?AV?$PropertyProxy_ReadOnly@W4SelectionMode@Gtk@@@Glib@@XZ
    ?property_activate_on_single_click@FlowBox@Gtk@@QEAA?AV?$PropertyProxy@_N@Glib@@XZ
    ?property_activate_on_single_click@FlowBox@Gtk@@QEBA?AV?$PropertyProxy_ReadOnly@_N@Glib@@XZ
    ?property_homogeneous@FlowBox@Gtk@@QEAA?AV?$PropertyProxy@_N@Glib@@XZ
    ?property_homogeneous@FlowBox@Gtk@@QEBA?AV?$PropertyProxy_ReadOnly@_N@Glib@@XZ
    ?property_min_children_per_line@FlowBox@Gtk@@QEAA?AV?$PropertyProxy@I@Glib@@XZ
    ?property_min_children_per_line@FlowBox@Gtk@@QEBA?AV?$PropertyProxy_ReadOnly@I@Glib@@XZ
    ?property_max_children_per_line@FlowBox@Gtk@@QEAA?AV?$PropertyProxy@I@Glib@@XZ
    ?property_max_children_per_line@FlowBox@Gtk@@QEBA?AV?$PropertyProxy_ReadOnly@I@Glib@@XZ
    ?property_row_spacing@FlowBox@Gtk@@QEAA?AV?$PropertyProxy@I@Glib@@XZ
    ?property_row_spacing@FlowBox@Gtk@@QEBA?AV?$PropertyProxy_ReadOnly@I@Glib@@XZ
    ?property_column_spacing@FlowBox@Gtk@@QEAA?AV?$PropertyProxy@I@Glib@@XZ
    ?property_column_spacing@FlowBox@Gtk@@QEBA?AV?$PropertyProxy_ReadOnly@I@Glib@@XZ
    ?signal_child_activated@FlowBox@Gtk@@QEAA?AV?$SignalProxy1@XPEAVFlowBoxChild@Gtk@@@Glib@@XZ
    ?signal_selected_children_changed@FlowBox@Gtk@@QEAA?AV?$SignalProxy0@X@Glib@@XZ
    ??_DFlowBox@Gtk@@QEAAXXZ
    ?wrap@Glib@@YAPEAVFlowBox@Gtk@@PEAU_GtkFlowBox@@_N@Z
    ?init@FlowBox_Class@Gtk@@QEAAAEBVClass@Glib@@XZ
    ?class_init_function@FlowBox_Class@Gtk@@SAXPEAX0@Z
    ?wrap_new@FlowBox_Class@Gtk@@SAPEAVObjectBase@Glib@@PEAU_GObject@@@Z
    ?child_activated_callback@FlowBox_Class@Gtk@@KAXPEAU_GtkFlowBox@@PEAU_GtkFlowBoxChild@@@Z
    ?selected_children_changed_callback@FlowBox_Class@Gtk@@KAXPEAU_GtkFlowBox@@@Z
    ??$manage@VFlowBox@Gtk@@@Gtk@@YAPEAVFlowBox@0@PEAV10@@Z
    ?allocate@?$allocator@PEAVFlowBoxChild@Gtk@@@std@@QEAAPEAPEAVFlowBoxChild@Gtk@@_K@Z
    ?list_to_vector@?$ListHandler@PEAVFlowBoxChild@Gtk@@U?$TypeTraits@PEAVFlowBoxChild@Gtk@@@Container_Helpers@Glib@@@Glib@@SA?AV?$vector@PEAVFlowBoxChild@Gtk@@V?$allocator@PEAVFlowBoxChild@Gtk@@@std@@@std@@PEAU_GList@@W4OwnershipType@2@@Z
    ?allocate@?$allocator@PEBVFlowBoxChild@Gtk@@@std@@QEAAPEAPEBVFlowBoxChild@Gtk@@_K@Z
    ?list_to_vector@?$ListHandler@PEBVFlowBoxChild@Gtk@@U?$TypeTraits@PEBVFlowBoxChild@Gtk@@@Container_Helpers@Glib@@@Glib@@SA?AV?$vector@PEBVFlowBoxChild@Gtk@@V?$allocator@PEBVFlowBoxChild@Gtk@@@std@@@std@@PEAU_GList@@W4OwnershipType@2@@Z
    ??$_Deallocate@PEBVFlowBoxChild@Gtk@@@std@@YAXPEAPEBVFlowBoxChild@Gtk@@_K@Z
    ??$_Deallocate@PEAVFlowBoxChild@Gtk@@@std@@YAXPEAPEAVFlowBoxChild@Gtk@@_K@Z
    ??1?$GListKeeper@U?$TypeTraits@PEAVFlowBoxChild@Gtk@@@Container_Helpers@Glib@@@Container_Helpers@Glib@@QEAA@XZ
    ??1?$GListKeeper@U?$TypeTraits@PEBVFlowBoxChild@Gtk@@@Container_Helpers@Glib@@@Container_Helpers@Glib@@QEAA@XZ
    ??$_Construct@V?$ListIterator@U?$TypeTraits@PEAVFlowBoxChild@Gtk@@@Container_Helpers@Glib@@@Container_Helpers@Glib@@@?$vector@PEAVFlowBoxChild@Gtk@@V?$allocator@PEAVFlowBoxChild@Gtk@@@std@@@std@@QEAAXV?$ListIterator@U?$TypeTraits@PEAVFlowBoxChild@Gtk@@@Container_Helpers@Glib@@@Container_Helpers@Glib@@0Uforward_iterator_tag@1@@Z
    ??$_Construct@V?$ListIterator@U?$TypeTraits@PEBVFlowBoxChild@Gtk@@@Container_Helpers@Glib@@@Container_Helpers@Glib@@@?$vector@PEBVFlowBoxChild@Gtk@@V?$allocator@PEBVFlowBoxChild@Gtk@@@std@@@std@@QEAAXV?$ListIterator@U?$TypeTraits@PEBVFlowBoxChild@Gtk@@@Container_Helpers@Glib@@@Container_Helpers@Glib@@0Uforward_iterator_tag@1@@Z
    ??$_Uninit_copy@V?$ListIterator@U?$TypeTraits@PEAVFlowBoxChild@Gtk@@@Container_Helpers@Glib@@@Container_Helpers@Glib@@PEAPEAVFlowBoxChild@Gtk@@V?$allocator@PEAVFlowBoxChild@Gtk@@@std@@@std@@YAPEAPEAVFlowBoxChild@Gtk@@V?$ListIterator@U?$TypeTraits@PEAVFlowBoxChild@Gtk@@@Container_Helpers@Glib@@@Container_Helpers@Glib@@0PEAPEAV12@AEAU?$_Wrap_alloc@V?$allocator@PEAVFlowBoxChild@Gtk@@@std@@@0@U_Nonscalar_ptr_iterator_tag@0@@Z
    ??$_Uninit_copy@V?$ListIterator@U?$TypeTraits@PEBVFlowBoxChild@Gtk@@@Container_Helpers@Glib@@@Container_Helpers@Glib@@PEAPEBVFlowBoxChild@Gtk@@V?$allocator@PEBVFlowBoxChild@Gtk@@@std@@@std@@YAPEAPEBVFlowBoxChild@Gtk@@V?$ListIterator@U?$TypeTraits@PEBVFlowBoxChild@Gtk@@@Container_Helpers@Glib@@@Container_Helpers@Glib@@0PEAPEBV12@AEAU?$_Wrap_alloc@V?$allocator@PEBVFlowBoxChild@Gtk@@@std@@@0@U_Nonscalar_ptr_iterator_tag@0@@Z
    ?destroy_notify_@Object@Gtk@@$2PPPPPPPM@BA@EAAXXZ
    ?set_manage@Object@Gtk@@$4PPPPPPPM@BA@EAAXXZ
    ??_7FlowBox@Gtk@@6BWidget@1@@
    ??_7FlowBox@Gtk@@6BObject@1@@
    ??_8FlowBox@Gtk@@7BObject@Glib@@@
    ??_8FlowBox@Gtk@@7BInterface@Glib@@Container@1@@
    ??_8FlowBox@Gtk@@7BInterface@Glib@@Orientable@1@@
    ??_8FlowBox@Gtk@@7BObjectBase@Glib@@@
    ??_R0?AVObjectBase@Glib@@@8
    ??_R0?AVFlowBox@Gtk@@@8
    ??_C@_0P@OJFMAMOA@selection?9mode?$AA@
    ??_C@_0BJ@NNAILPIH@activate?9on?9single?9click?$AA@
    ??_C@_0M@JLHKLLAB@homogeneous?$AA@
    ??_C@_0BG@MNLNPFOB@min?9children?9per?9line?$AA@
    ??_C@_0BG@IMKKMKGH@max?9children?9per?9line?$AA@
    ??_C@_0M@BFAKILOJ@row?9spacing?$AA@
    ??_C@_0P@FDAAMDON@column?9spacing?$AA@
    ??_C@_0BD@OLBABOEK@vector?$DMT?$DO?5too?5long?$AA@
    ??_R0?AVFlowBoxChild@Gtk@@@8
    ??_R4FlowBox@Gtk@@6BWidget@1@@
    ??_R3FlowBox@Gtk@@8
    ??_R2FlowBox@Gtk@@8
    ??_R1A@?0A@EA@FlowBox@Gtk@@8
    ??_R1A@?0A@EA@Container@Gtk@@8
    ??_R0?AVContainer@Gtk@@@8
    ??_R3Container@Gtk@@8
    ??_R2Container@Gtk@@8
    ??_R1A@?0A@EA@Widget@Gtk@@8
    ??_R0?AVWidget@Gtk@@@8
    ??_R3Widget@Gtk@@8
    ??_R2Widget@Gtk@@8
    ??_R17?0A@EA@Object@Gtk@@8
    ??_R0?AVObject@Gtk@@@8
    ??_R3Object@Gtk@@8
    ??_R2Object@Gtk@@8
    ??_R1A@?0A@EA@Object@Gtk@@8
    ??_R1A@?0A@EA@Object@Glib@@8
    ??_R0?AVObject@Glib@@@8
    ??_R3Object@Glib@@8
    ??_R2Object@Glib@@8
    ??_R1A@A@7FA@ObjectBase@Glib@@8
    ??_R3ObjectBase@Glib@@8
    ??_R2ObjectBase@Glib@@8
    ??_R1A@?0A@EA@ObjectBase@Glib@@8
    ??_R1A@73FA@trackable@sigc@@8
    ??_R0?AUtrackable@sigc@@@8
    ??_R3trackable@sigc@@8
    ??_R2trackable@sigc@@8
    ??_R1A@?0A@EA@trackable@sigc@@8
    ??_R1A@A@3FA@trackable@sigc@@8
    ??_R17?0A@EA@Object@Glib@@8
    ??_R1A@77FA@ObjectBase@Glib@@8
    ??_R1BI@?0A@EA@Buildable@Gtk@@8
    ??_R0?AVBuildable@Gtk@@@8
    ??_R3Buildable@Gtk@@8
    ??_R2Buildable@Gtk@@8
    ??_R1A@?0A@EA@Buildable@Gtk@@8
    ??_R1A@?0A@EA@Interface@Glib@@8
    ??_R0?AVInterface@Glib@@@8
    ??_R3Interface@Glib@@8
    ??_R2Interface@Glib@@8
    ??_R1BI@?0A@EA@Interface@Glib@@8
    ??_R1BI@?0A@EC@Interface@Glib@@8
    ??_R1CA@?0A@EA@Orientable@Gtk@@8
    ??_R0?AVOrientable@Gtk@@@8
    ??_R3Orientable@Gtk@@8
    ??_R2Orientable@Gtk@@8
    ??_R1A@?0A@EA@Orientable@Gtk@@8
    ??_R1CA@?0A@EC@Interface@Glib@@8
    ??_R4FlowBox@Gtk@@6BObject@1@@
    ?flowboxchild_class_@FlowBoxChild@Gtk@@0VFlowBoxChild_Class@2@A
    ??_C@_08IFCMKJCD@activate?$AA@
    ?__empty_global_delete@@YAXPEAX@Z
    ?__empty_global_delete@@YAXPEAX_K@Z
    ??1FlowBoxChild@Gtk@@UEAA@XZ
    ??0FlowBoxChild@Gtk@@IEAA@AEBVConstructParams@Glib@@@Z
    ??0FlowBoxChild@Gtk@@IEAA@PEAU_GtkFlowBoxChild@@@Z
    ?get_type@FlowBoxChild@Gtk@@SA_KXZ
    ?get_base_type@FlowBoxChild@Gtk@@SA_KXZ
    ?on_activate@FlowBoxChild@Gtk@@MEAAXXZ
    ??0FlowBoxChild@Gtk@@QEAA@XZ
    ?get_index@FlowBoxChild@Gtk@@QEBAHXZ
    ?is_selected@FlowBoxChild@Gtk@@QEBA_NXZ
    ?changed@FlowBoxChild@Gtk@@QEAAXXZ
    ?signal_activate@FlowBoxChild@Gtk@@QEAA?AV?$SignalProxy0@X@Glib@@XZ
    ??_DFlowBoxChild@Gtk@@QEAAXXZ
    ?wrap@Glib@@YAPEAVFlowBoxChild@Gtk@@PEAU_GtkFlowBoxChild@@_N@Z
    ?init@FlowBoxChild_Class@Gtk@@QEAAAEBVClass@Glib@@XZ
    ?class_init_function@FlowBoxChild_Class@Gtk@@SAXPEAX0@Z
    ?wrap_new@FlowBoxChild_Class@Gtk@@SAPEAVObjectBase@Glib@@PEAU_GObject@@@Z
    ?activate_callback@FlowBoxChild_Class@Gtk@@KAXPEAU_GtkFlowBoxChild@@@Z
    ??$manage@VFlowBoxChild@Gtk@@@Gtk@@YAPEAVFlowBoxChild@0@PEAV10@@Z
    ?destroy_notify_@Object@Gtk@@$2PPPPPPPM@7EAAXXZ
    ?set_manage@Object@Gtk@@$4PPPPPPPM@7EAAXXZ
    ??_7FlowBoxChild@Gtk@@6BWidget@1@@
    ??_7FlowBoxChild@Gtk@@6BObject@1@@
    ??_8FlowBoxChild@Gtk@@7BObject@Glib@@@
    ??_8FlowBoxChild@Gtk@@7BInterface@Glib@@@
    ??_8FlowBoxChild@Gtk@@7BObjectBase@Glib@@@
    ??_R0?AVObjectBase@Glib@@@8
    ??_R0?AVFlowBoxChild@Gtk@@@8
    ??_R4FlowBoxChild@Gtk@@6BWidget@1@@
    ??_R3FlowBoxChild@Gtk@@8
    ??_R2FlowBoxChild@Gtk@@8
    ??_R1A@?0A@EA@FlowBoxChild@Gtk@@8
    ??_R1A@?0A@EA@Bin@Gtk@@8
    ??_R0?AVBin@Gtk@@@8
    ??_R3Bin@Gtk@@8
    ??_R2Bin@Gtk@@8
    ??_R1A@?0A@EA@Container@Gtk@@8
    ??_R0?AVContainer@Gtk@@@8
    ??_R3Container@Gtk@@8
    ??_R2Container@Gtk@@8
    ??_R1A@?0A@EA@Widget@Gtk@@8
    ??_R0?AVWidget@Gtk@@@8
    ??_R3Widget@Gtk@@8
    ??_R2Widget@Gtk@@8
    ??_R17?0A@EA@Object@Gtk@@8
    ??_R0?AVObject@Gtk@@@8
    ??_R3Object@Gtk@@8
    ??_R2Object@Gtk@@8
    ??_R1A@?0A@EA@Object@Gtk@@8
    ??_R1A@?0A@EA@Object@Glib@@8
    ??_R0?AVObject@Glib@@@8
    ??_R3Object@Glib@@8
    ??_R2Object@Glib@@8
    ??_R1A@A@7FA@ObjectBase@Glib@@8
    ??_R3ObjectBase@Glib@@8
    ??_R2ObjectBase@Glib@@8
    ??_R1A@?0A@EA@ObjectBase@Glib@@8
    ??_R1A@73FA@trackable@sigc@@8
    ??_R0?AUtrackable@sigc@@@8
    ??_R3trackable@sigc@@8
    ??_R2trackable@sigc@@8
    ??_R1A@?0A@EA@trackable@sigc@@8
    ??_R1A@A@3FA@trackable@sigc@@8
    ??_R17?0A@EA@Object@Glib@@8
    ??_R1A@77FA@ObjectBase@Glib@@8
    ??_R1BI@?0A@EA@Buildable@Gtk@@8
    ??_R0?AVBuildable@Gtk@@@8
    ??_R3Buildable@Gtk@@8
    ??_R2Buildable@Gtk@@8
    ??_R1A@?0A@EA@Buildable@Gtk@@8
    ??_R1A@?0A@EA@Interface@Glib@@8
    ??_R0?AVInterface@Glib@@@8
    ??_R3Interface@Glib@@8
    ??_R2Interface@Glib@@8
    ??_R1BI@?0A@EA@Interface@Glib@@8
    ??_R4FlowBoxChild@Gtk@@6BObject@1@@
    ??_C@_08DBOKIIPJ@font?9set?$AA@
    ?fontbutton_class_@FontButton@Gtk@@0VFontButton_Class@2@A
    ?__empty_global_delete@@YAXPEAX@Z
    ?__empty_global_delete@@YAXPEAX_K@Z
    ?convert_const_gchar_ptr_to_ustring@Glib@@YA?AVustring@1@PEBD@Z
    ??1FontButton@Gtk@@UEAA@XZ
    ??0FontButton@Gtk@@IEAA@AEBVConstructParams@Glib@@@Z
    ??0FontButton@Gtk@@IEAA@PEAU_GtkFontButton@@@Z
    ?get_type@FontButton@Gtk@@SA_KXZ
    ?get_base_type@FontButton@Gtk@@SA_KXZ
    ?on_font_set@FontButton@Gtk@@MEAAXXZ
    ??0FontButton@Gtk@@QEAA@XZ
    ??0FontButton@Gtk@@QEAA@AEBVustring@Glib@@@Z
    ?get_title@FontButton@Gtk@@QEBA?AVustring@Glib@@XZ
    ?set_title@FontButton@Gtk@@QEAAXAEBVustring@Glib@@@Z
    ?get_use_font@FontButton@Gtk@@QEBA_NXZ
    ?set_use_font@FontButton@Gtk@@QEAAX_N@Z
    ?get_use_size@FontButton@Gtk@@QEBA_NXZ
    ?set_use_size@FontButton@Gtk@@QEAAX_N@Z
    ?get_font_name@FontButton@Gtk@@QEBA?AVustring@Glib@@XZ
    ?set_font_name@FontButton@Gtk@@QEAA_NAEBVustring@Glib@@@Z
    ?get_show_style@FontButton@Gtk@@QEBA_NXZ
    ?set_show_style@FontButton@Gtk@@QEAAX_N@Z
    ?get_show_size@FontButton@Gtk@@QEBA_NXZ
    ?set_show_size@FontButton@Gtk@@QEAAX_N@Z
    ?property_title@FontButton@Gtk@@QEAA?AV?$PropertyProxy@Vustring@Glib@@@Glib@@XZ
    ?property_title@FontButton@Gtk@@QEBA?AV?$PropertyProxy_ReadOnly@Vustring@Glib@@@Glib@@XZ
    ?property_font_name@FontButton@Gtk@@QEAA?AV?$PropertyProxy@Vustring@Glib@@@Glib@@XZ
    ?property_font_name@FontButton@Gtk@@QEBA?AV?$PropertyProxy_ReadOnly@Vustring@Glib@@@Glib@@XZ
    ?property_use_font@FontButton@Gtk@@QEAA?AV?$PropertyProxy@_N@Glib@@XZ
    ?property_use_font@FontButton@Gtk@@QEBA?AV?$PropertyProxy_ReadOnly@_N@Glib@@XZ
    ?property_use_size@FontButton@Gtk@@QEAA?AV?$PropertyProxy@_N@Glib@@XZ
    ?property_use_size@FontButton@Gtk@@QEBA?AV?$PropertyProxy_ReadOnly@_N@Glib@@XZ
    ?property_show_style@FontButton@Gtk@@QEAA?AV?$PropertyProxy@_N@Glib@@XZ
    ?property_show_style@FontButton@Gtk@@QEBA?AV?$PropertyProxy_ReadOnly@_N@Glib@@XZ
    ?property_show_size@FontButton@Gtk@@QEAA?AV?$PropertyProxy@_N@Glib@@XZ
    ?property_show_size@FontButton@Gtk@@QEBA?AV?$PropertyProxy_ReadOnly@_N@Glib@@XZ
    ?signal_font_set@FontButton@Gtk@@QEAA?AV?$SignalProxy0@X@Glib@@XZ
    ??_DFontButton@Gtk@@QEAAXXZ
    ?wrap@Glib@@YAPEAVFontButton@Gtk@@PEAU_GtkFontButton@@_N@Z
    ?init@FontButton_Class@Gtk@@QEAAAEBVClass@Glib@@XZ
    ?class_init_function@FontButton_Class@Gtk@@SAXPEAX0@Z
    ?wrap_new@FontButton_Class@Gtk@@SAPEAVObjectBase@Glib@@PEAU_GObject@@@Z
    ?font_set_callback@FontButton_Class@Gtk@@KAXPEAU_GtkFontButton@@@Z
    ??$manage@VFontButton@Gtk@@@Gtk@@YAPEAVFontButton@0@PEAV10@@Z
    ?destroy_notify_@Object@Gtk@@$2PPPPPPPM@BI@EAAXXZ
    ?set_manage@Object@Gtk@@$4PPPPPPPM@BI@EAAXXZ
    ??_7FontButton@Gtk@@6BWidget@1@@
    ??_7FontButton@Gtk@@6BActivatable@1@@
    ??_7FontButton@Gtk@@6BObject@1@@
    ??_8FontButton@Gtk@@7BObject@Glib@@@
    ??_8FontButton@Gtk@@7BInterface@Glib@@Bin@1@@
    ??_8FontButton@Gtk@@7BInterface@Glib@@Activatable@1@@
    ??_8FontButton@Gtk@@7BObjectBase@Glib@@@
    ??_R0?AVObjectBase@Glib@@@8
    ??_R0?AVFontButton@Gtk@@@8
    ??_C@_09JONFMPID@font_name?$AA@
    ??_C@_05PHLGJONK@title?$AA@
    ??_C@_09NIDPGDEJ@font?9name?$AA@
    ??_C@_08JPIMLBHC@use?9font?$AA@
    ??_C@_08FKBBNOOA@use?9size?$AA@
    ??_C@_0L@HEDJMLBF@show?9style?$AA@
    ??_C@_09MEDGJAAG@show?9size?$AA@
    ??_R4FontButton@Gtk@@6BWidget@1@@
    ??_R3FontButton@Gtk@@8
    ??_R2FontButton@Gtk@@8
    ??_R1A@?0A@EA@FontButton@Gtk@@8
    ??_R1A@?0A@EA@Button@Gtk@@8
    ??_R0?AVButton@Gtk@@@8
    ??_R3Button@Gtk@@8
    ??_R2Button@Gtk@@8
    ??_R1A@?0A@EA@Bin@Gtk@@8
    ??_R0?AVBin@Gtk@@@8
    ??_R3Bin@Gtk@@8
    ??_R2Bin@Gtk@@8
    ??_R1A@?0A@EA@Container@Gtk@@8
    ??_R0?AVContainer@Gtk@@@8
    ??_R3Container@Gtk@@8
    ??_R2Container@Gtk@@8
    ??_R1A@?0A@EA@Widget@Gtk@@8
    ??_R0?AVWidget@Gtk@@@8
    ??_R3Widget@Gtk@@8
    ??_R2Widget@Gtk@@8
    ??_R17?0A@EA@Object@Gtk@@8
    ??_R0?AVObject@Gtk@@@8
    ??_R3Object@Gtk@@8
    ??_R2Object@Gtk@@8
    ??_R1A@?0A@EA@Object@Gtk@@8
    ??_R1A@?0A@EA@Object@Glib@@8
    ??_R0?AVObject@Glib@@@8
    ??_R3Object@Glib@@8
    ??_R2Object@Glib@@8
    ??_R1A@A@7FA@ObjectBase@Glib@@8
    ??_R3ObjectBase@Glib@@8
    ??_R2ObjectBase@Glib@@8
    ??_R1A@?0A@EA@ObjectBase@Glib@@8
    ??_R1A@73FA@trackable@sigc@@8
    ??_R0?AUtrackable@sigc@@@8
    ??_R3trackable@sigc@@8
    ??_R2trackable@sigc@@8
    ??_R1A@?0A@EA@trackable@sigc@@8
    ??_R1A@A@3FA@trackable@sigc@@8
    ??_R17?0A@EA@Object@Glib@@8
    ??_R1A@77FA@ObjectBase@Glib@@8
    ??_R1BI@?0A@EA@Buildable@Gtk@@8
    ??_R0?AVBuildable@Gtk@@@8
    ??_R3Buildable@Gtk@@8
    ??_R2Buildable@Gtk@@8
    ??_R1A@?0A@EA@Buildable@Gtk@@8
    ??_R1A@?0A@EA@Interface@Glib@@8
    ??_R0?AVInterface@Glib@@@8
    ??_R3Interface@Glib@@8
    ??_R2Interface@Glib@@8
    ??_R1BI@?0A@EA@Interface@Glib@@8
    ??_R1BI@?0A@EC@Interface@Glib@@8
    ??_R1CA@?0A@EA@Activatable@Gtk@@8
    ??_R0?AVActivatable@Gtk@@@8
    ??_R3Activatable@Gtk@@8
    ??_R2Activatable@Gtk@@8
    ??_R1A@?0A@EA@Activatable@Gtk@@8
    ??_R17?0A@EA@Interface@Glib@@8
    ??_R1CI@?0A@EC@Interface@Glib@@8
    ??_R4FontButton@Gtk@@6BActivatable@1@@
    ??_R4FontButton@Gtk@@6BObject@1@@
    ??_C@_0P@LDPGJMJC@font?9activated?$AA@
    ?fontchooser_class_@FontChooser@Gtk@@0VFontChooser_Class@2@A
    ?__empty_global_delete@@YAXPEAX@Z
    ?__empty_global_delete@@YAXPEAX_K@Z
    ?convert_const_gchar_ptr_to_ustring@Glib@@YA?AVustring@1@PEBD@Z
    ?convert_return_gchar_ptr_to_ustring@Glib@@YA?AVustring@1@PEAD@Z
    ??1?$ScopedPtr@D@Glib@@QEAA@XZ
    ??0FontChooser@Gtk@@IEAA@XZ
    ??0FontChooser@Gtk@@IEAA@AEBVInterface_Class@Glib@@@Z
    ??0FontChooser@Gtk@@QEAA@PEAU_GtkFontChooser@@@Z
    ??1FontChooser@Gtk@@UEAA@XZ
    ?add_interface@FontChooser@Gtk@@SAX_K@Z
    ?get_type@FontChooser@Gtk@@SA_KXZ
    ?get_base_type@FontChooser@Gtk@@SA_KXZ
    ?get_font_family@FontChooser@Gtk@@QEAA?AV?$RefPtr@VFontFamily@Pango@@@Glib@@XZ
    ?get_font_family@FontChooser@Gtk@@QEBA?AV?$RefPtr@$$CBVFontFamily@Pango@@@Glib@@XZ
    ?get_font_face@FontChooser@Gtk@@QEAA?AV?$RefPtr@VFontFace@Pango@@@Glib@@XZ
    ?get_font_face@FontChooser@Gtk@@QEBA?AV?$RefPtr@$$CBVFontFace@Pango@@@Glib@@XZ
    ?get_font_size@FontChooser@Gtk@@QEBAHXZ
    ?get_font_desc@FontChooser@Gtk@@QEBA?AVFontDescription@Pango@@XZ
    ?set_font_desc@FontChooser@Gtk@@QEAAXAEBVFontDescription@Pango@@@Z
    ?get_font@FontChooser@Gtk@@QEBA?AVustring@Glib@@XZ
    ?set_font@FontChooser@Gtk@@QEAAXAEBVustring@Glib@@@Z
    ?get_preview_text@FontChooser@Gtk@@QEBA?AVustring@Glib@@XZ
    ?set_preview_text@FontChooser@Gtk@@QEAAXAEBVustring@Glib@@@Z
    ?get_show_preview_entry@FontChooser@Gtk@@QEBA_NXZ
    ?set_show_preview_entry@FontChooser@Gtk@@QEAAX_N@Z
    ?set_filter_func@FontChooser@Gtk@@QEAAXAEBV?$slot@_NAEBV?$RefPtr@$$CBVFontFamily@Pango@@@Glib@@AEBV?$RefPtr@$$CBVFontFace@Pango@@@2@Unil@sigc@@U45@U45@U45@U45@@sigc@@@Z
    ?signal_font_activated@FontChooser@Gtk@@QEAA?AV?$SignalProxy1@XAEBVustring@Glib@@@Glib@@XZ
    ?property_font@FontChooser@Gtk@@QEAA?AV?$PropertyProxy@Vustring@Glib@@@Glib@@XZ
    ?property_font@FontChooser@Gtk@@QEBA?AV?$PropertyProxy_ReadOnly@Vustring@Glib@@@Glib@@XZ
    ?property_font_desc@FontChooser@Gtk@@QEAA?AV?$PropertyProxy@VFontDescription@Pango@@@Glib@@XZ
    ?property_font_desc@FontChooser@Gtk@@QEBA?AV?$PropertyProxy_ReadOnly@VFontDescription@Pango@@@Glib@@XZ
    ?property_preview_text@FontChooser@Gtk@@QEAA?AV?$PropertyProxy@Vustring@Glib@@@Glib@@XZ
    ?property_preview_text@FontChooser@Gtk@@QEBA?AV?$PropertyProxy_ReadOnly@Vustring@Glib@@@Glib@@XZ
    ?property_show_preview_entry@FontChooser@Gtk@@QEAA?AV?$PropertyProxy@_N@Glib@@XZ
    ?property_show_preview_entry@FontChooser@Gtk@@QEBA?AV?$PropertyProxy_ReadOnly@_N@Glib@@XZ
    ?wrap@Glib@@YA?AV?$RefPtr@VFontChooser@Gtk@@@1@PEAU_GtkFontChooser@@_N@Z
    ?init@FontChooser_Class@Gtk@@QEAAAEBVInterface_Class@Glib@@XZ
    ?iface_init_function@FontChooser_Class@Gtk@@SAXPEAX0@Z
    ?wrap_new@FontChooser_Class@Gtk@@SAPEAVObjectBase@Glib@@PEAU_GObject@@@Z
    ??1?$RefPtr@$$CBVFontFamily@Pango@@@Glib@@QEAA@XZ
    ??1?$RefPtr@VFontFamily@Pango@@@Glib@@QEAA@XZ
    ??1?$RefPtr@$$CBVFontFace@Pango@@@Glib@@QEAA@XZ
    ??1?$RefPtr@VFontFace@Pango@@@Glib@@QEAA@XZ
    ??$wrap_auto_interface@VFontChooser@Gtk@@@Glib@@YAPEAVFontChooser@Gtk@@PEAU_GObject@@_N@Z
    ??_7FontChooser@Gtk@@6B@
    ??_8FontChooser@Gtk@@7BInterface@Glib@@@
    ??_8FontChooser@Gtk@@7BObjectBase@Glib@@@
    ??_R0?AVObjectBase@Glib@@@8
    ??_R0?AVFontChooser@Gtk@@@8
    ??_C@_0L@IGFGCBFO@klass?5?$CB?$DN?50?$AA@
    ??_C@_0CM@NMMEIDCE@Gtk?3?3FontChooser_Class?3?3iface_in@
    ??_C@_0BM@JECGKDEE@?4?4?2gtk?2gtkmm?2fontchooser?4cc?$AA@
    ??_C@_04EFPADHIC@font?$AA@
    ??_C@_09FNAPMFED@font?9desc?$AA@
    ??_C@_0N@LDPHLAHO@preview?9text?$AA@
    ??_C@_0BD@HLHANIFP@show?9preview?9entry?$AA@
    ??_C@_0FM@MEPOJGMK@Glib?3?3wrap_auto_interface?$CI?$CJ?3?5The@
    ??_R4FontChooser@Gtk@@6B@
    ??_R3FontChooser@Gtk@@8
    ??_R2FontChooser@Gtk@@8
    ??_R1A@?0A@EA@FontChooser@Gtk@@8
    ??_R1A@?0A@EA@Interface@Glib@@8
    ??_R0?AVInterface@Glib@@@8
    ??_R3Interface@Glib@@8
    ??_R2Interface@Glib@@8
    ??_R1A@A@7FA@ObjectBase@Glib@@8
    ??_R3ObjectBase@Glib@@8
    ??_R2ObjectBase@Glib@@8
    ??_R1A@?0A@EA@ObjectBase@Glib@@8
    ??_R1A@73FA@trackable@sigc@@8
    ??_R0?AUtrackable@sigc@@@8
    ??_R3trackable@sigc@@8
    ??_R2trackable@sigc@@8
    ??_R1A@?0A@EA@trackable@sigc@@8
    ??_R1A@A@3FA@trackable@sigc@@8
    ?fontchooserdialog_class_@FontChooserDialog@Gtk@@0VFontChooserDialog_Class@2@A
    ?__empty_global_delete@@YAXPEAX@Z
    ?__empty_global_delete@@YAXPEAX_K@Z
    ??1FontChooserDialog@Gtk@@UEAA@XZ
    ??0FontChooserDialog@Gtk@@IEAA@AEBVConstructParams@Glib@@@Z
    ??0FontChooserDialog@Gtk@@IEAA@PEAU_GtkFontChooserDialog@@@Z
    ?get_type@FontChooserDialog@Gtk@@SA_KXZ
    ?get_base_type@FontChooserDialog@Gtk@@SA_KXZ
    ??0FontChooserDialog@Gtk@@QEAA@XZ
    ??0FontChooserDialog@Gtk@@QEAA@AEBVustring@Glib@@@Z
    ??0FontChooserDialog@Gtk@@QEAA@AEBVustring@Glib@@AEAVWindow@1@@Z
    ??_DFontChooserDialog@Gtk@@QEAAXXZ
    ?wrap@Glib@@YAPEAVFontChooserDialog@Gtk@@PEAU_GtkFontChooserDialog@@_N@Z
    ?init@FontChooserDialog_Class@Gtk@@QEAAAEBVClass@Glib@@XZ
    ?class_init_function@FontChooserDialog_Class@Gtk@@SAXPEAX0@Z
    ?wrap_new@FontChooserDialog_Class@Gtk@@SAPEAVObjectBase@Glib@@PEAU_GObject@@@Z
    ??$manage@VFontChooserDialog@Gtk@@@Gtk@@YAPEAVFontChooserDialog@0@PEAV10@@Z
    ?destroy_notify_@Object@Gtk@@$2PPPPPPPM@BI@EAAXXZ
    ?set_manage@Window@Gtk@@$4PPPPPPPM@7EAAXXZ
    ??_7FontChooserDialog@Gtk@@6BWidget@1@@
    ??_7FontChooserDialog@Gtk@@6BObject@1@@
    ??_8FontChooserDialog@Gtk@@7BObject@Glib@@@
    ??_8FontChooserDialog@Gtk@@7BInterface@Glib@@Dialog@1@@
    ??_8FontChooserDialog@Gtk@@7BInterface@Glib@@FontChooser@1@@
    ??_8FontChooserDialog@Gtk@@7BObjectBase@Glib@@@
    ??_C@_05PHLGJONK@title?$AA@
    ??_R0?AVObjectBase@Glib@@@8
    ??_R0?AVFontChooserDialog@Gtk@@@8
    ??_C@_0O@HCHJFGII@transient_for?$AA@
    ??_R4FontChooserDialog@Gtk@@6BWidget@1@@
    ??_R3FontChooserDialog@Gtk@@8
    ??_R2FontChooserDialog@Gtk@@8
    ??_R1A@?0A@EA@FontChooserDialog@Gtk@@8
    ??_R1A@?0A@EA@Dialog@Gtk@@8
    ??_R0?AVDialog@Gtk@@@8
    ??_R3Dialog@Gtk@@8
    ??_R2Dialog@Gtk@@8
    ??_R1A@?0A@EA@Window@Gtk@@8
    ??_R0?AVWindow@Gtk@@@8
    ??_R3Window@Gtk@@8
    ??_R2Window@Gtk@@8
    ??_R1A@?0A@EA@Bin@Gtk@@8
    ??_R0?AVBin@Gtk@@@8
    ??_R3Bin@Gtk@@8
    ??_R2Bin@Gtk@@8
    ??_R1A@?0A@EA@Container@Gtk@@8
    ??_R0?AVContainer@Gtk@@@8
    ??_R3Container@Gtk@@8
    ??_R2Container@Gtk@@8
    ??_R1A@?0A@EA@Widget@Gtk@@8
    ??_R0?AVWidget@Gtk@@@8
    ??_R3Widget@Gtk@@8
    ??_R2Widget@Gtk@@8
    ??_R17?0A@EA@Object@Gtk@@8
    ??_R0?AVObject@Gtk@@@8
    ??_R3Object@Gtk@@8
    ??_R2Object@Gtk@@8
    ??_R1A@?0A@EA@Object@Gtk@@8
    ??_R1A@?0A@EA@Object@Glib@@8
    ??_R0?AVObject@Glib@@@8
    ??_R3Object@Glib@@8
    ??_R2Object@Glib@@8
    ??_R1A@A@7FA@ObjectBase@Glib@@8
    ??_R3ObjectBase@Glib@@8
    ??_R2ObjectBase@Glib@@8
    ??_R1A@?0A@EA@ObjectBase@Glib@@8
    ??_R1A@73FA@trackable@sigc@@8
    ??_R0?AUtrackable@sigc@@@8
    ??_R3trackable@sigc@@8
    ??_R2trackable@sigc@@8
    ??_R1A@?0A@EA@trackable@sigc@@8
    ??_R1A@A@3FA@trackable@sigc@@8
    ??_R17?0A@EA@Object@Glib@@8
    ??_R1A@77FA@ObjectBase@Glib@@8
    ??_R1BI@?0A@EA@Buildable@Gtk@@8
    ??_R0?AVBuildable@Gtk@@@8
    ??_R3Buildable@Gtk@@8
    ??_R2Buildable@Gtk@@8
    ??_R1A@?0A@EA@Buildable@Gtk@@8
    ??_R1A@?0A@EA@Interface@Glib@@8
    ??_R0?AVInterface@Glib@@@8
    ??_R3Interface@Glib@@8
    ??_R2Interface@Glib@@8
    ??_R1BI@?0A@EA@Interface@Glib@@8
    ??_R1BI@?0A@EC@Interface@Glib@@8
    ??_R1CI@?0A@EA@FontChooser@Gtk@@8
    ??_R0?AVFontChooser@Gtk@@@8
    ??_R3FontChooser@Gtk@@8
    ??_R2FontChooser@Gtk@@8
    ??_R1A@?0A@EA@FontChooser@Gtk@@8
    ??_R1CI@?0A@EC@Interface@Glib@@8
    ??_R4FontChooserDialog@Gtk@@6BObject@1@@
    ?fontchooserwidget_class_@FontChooserWidget@Gtk@@0VFontChooserWidget_Class@2@A
    ?__empty_global_delete@@YAXPEAX@Z
    ?__empty_global_delete@@YAXPEAX_K@Z
    ??1FontChooserWidget@Gtk@@UEAA@XZ
    ??0FontChooserWidget@Gtk@@IEAA@AEBVConstructParams@Glib@@@Z
    ??0FontChooserWidget@Gtk@@IEAA@PEAU_GtkFontChooserWidget@@@Z
    ?get_type@FontChooserWidget@Gtk@@SA_KXZ
    ?get_base_type@FontChooserWidget@Gtk@@SA_KXZ
    ??0FontChooserWidget@Gtk@@QEAA@XZ
    ??_DFontChooserWidget@Gtk@@QEAAXXZ
    ?wrap@Glib@@YAPEAVFontChooserWidget@Gtk@@PEAU_GtkFontChooserWidget@@_N@Z
    ?init@FontChooserWidget_Class@Gtk@@QEAAAEBVClass@Glib@@XZ
    ?class_init_function@FontChooserWidget_Class@Gtk@@SAXPEAX0@Z
    ?wrap_new@FontChooserWidget_Class@Gtk@@SAPEAVObjectBase@Glib@@PEAU_GObject@@@Z
    ??$manage@VFontChooserWidget@Gtk@@@Gtk@@YAPEAVFontChooserWidget@0@PEAV10@@Z
    ?destroy_notify_@Object@Gtk@@$2PPPPPPPM@BI@EAAXXZ
    ?set_manage@Object@Gtk@@$4PPPPPPPM@BI@EAAXXZ
    ??_7FontChooserWidget@Gtk@@6BWidget@1@@
    ??_7FontChooserWidget@Gtk@@6BObject@1@@
    ??_8FontChooserWidget@Gtk@@7BObject@Glib@@@
    ??_8FontChooserWidget@Gtk@@7BInterface@Glib@@Container@1@@
    ??_8FontChooserWidget@Gtk@@7BInterface@Glib@@Orientable@1@@
    ??_8FontChooserWidget@Gtk@@7BInterface@Glib@@@
    ??_8FontChooserWidget@Gtk@@7BObjectBase@Glib@@@
    ??_R0?AVObjectBase@Glib@@@8
    ??_R0?AVFontChooserWidget@Gtk@@@8
    ??_R4FontChooserWidget@Gtk@@6BWidget@1@@
    ??_R3FontChooserWidget@Gtk@@8
    ??_R2FontChooserWidget@Gtk@@8
    ??_R1A@?0A@EA@FontChooserWidget@Gtk@@8
    ??_R1A@?0A@EA@Box@Gtk@@8
    ??_R0?AVBox@Gtk@@@8
    ??_R3Box@Gtk@@8
    ??_R2Box@Gtk@@8
    ??_R1A@?0A@EA@Container@Gtk@@8
    ??_R0?AVContainer@Gtk@@@8
    ??_R3Container@Gtk@@8
    ??_R2Container@Gtk@@8
    ??_R1A@?0A@EA@Widget@Gtk@@8
    ??_R0?AVWidget@Gtk@@@8
    ??_R3Widget@Gtk@@8
    ??_R2Widget@Gtk@@8
    ??_R17?0A@EA@Object@Gtk@@8
    ??_R0?AVObject@Gtk@@@8
    ??_R3Object@Gtk@@8
    ??_R2Object@Gtk@@8
    ??_R1A@?0A@EA@Object@Gtk@@8
    ??_R1A@?0A@EA@Object@Glib@@8
    ??_R0?AVObject@Glib@@@8
    ??_R3Object@Glib@@8
    ??_R2Object@Glib@@8
    ??_R1A@A@7FA@ObjectBase@Glib@@8
    ??_R3ObjectBase@Glib@@8
    ??_R2ObjectBase@Glib@@8
    ??_R1A@?0A@EA@ObjectBase@Glib@@8
    ??_R1A@73FA@trackable@sigc@@8
    ??_R0?AUtrackable@sigc@@@8
    ??_R3trackable@sigc@@8
    ??_R2trackable@sigc@@8
    ??_R1A@?0A@EA@trackable@sigc@@8
    ??_R1A@A@3FA@trackable@sigc@@8
    ??_R17?0A@EA@Object@Glib@@8
    ??_R1A@77FA@ObjectBase@Glib@@8
    ??_R1BI@?0A@EA@Buildable@Gtk@@8
    ??_R0?AVBuildable@Gtk@@@8
    ??_R3Buildable@Gtk@@8
    ??_R2Buildable@Gtk@@8
    ??_R1A@?0A@EA@Buildable@Gtk@@8
    ??_R1A@?0A@EA@Interface@Glib@@8
    ??_R0?AVInterface@Glib@@@8
    ??_R3Interface@Glib@@8
    ??_R2Interface@Glib@@8
    ??_R1BI@?0A@EA@Interface@Glib@@8
    ??_R1BI@?0A@EC@Interface@Glib@@8
    ??_R1CA@?0A@EA@Orientable@Gtk@@8
    ??_R0?AVOrientable@Gtk@@@8
    ??_R3Orientable@Gtk@@8
    ??_R2Orientable@Gtk@@8
    ??_R1A@?0A@EA@Orientable@Gtk@@8
    ??_R1CA@?0A@EC@Interface@Glib@@8
    ??_R1CI@?0A@EA@FontChooser@Gtk@@8
    ??_R0?AVFontChooser@Gtk@@@8
    ??_R3FontChooser@Gtk@@8
    ??_R2FontChooser@Gtk@@8
    ??_R1A@?0A@EA@FontChooser@Gtk@@8
    ??_R1CI@?0A@EC@Interface@Glib@@8
    ??_R4FontChooserWidget@Gtk@@6BObject@1@@
    ?fontselection_class_@FontSelection@Gtk@@0VFontSelection_Class@2@A
    ?fontselectiondialog_class_@FontSelectionDialog@Gtk@@0VFontSelectionDialog_Class@2@A
    ?__empty_global_delete@@YAXPEAX@Z
    ?__empty_global_delete@@YAXPEAX_K@Z
    ?convert_const_gchar_ptr_to_ustring@Glib@@YA?AVustring@1@PEBD@Z
    ?convert_return_gchar_ptr_to_ustring@Glib@@YA?AVustring@1@PEAD@Z
    ??1?$ScopedPtr@D@Glib@@QEAA@XZ
    ??1FontSelection@Gtk@@UEAA@XZ
    ??0FontSelection@Gtk@@IEAA@AEBVConstructParams@Glib@@@Z
    ??0FontSelection@Gtk@@IEAA@PEAU_GtkFontSelection@@@Z
    ?get_type@FontSelection@Gtk@@SA_KXZ
    ?get_base_type@FontSelection@Gtk@@SA_KXZ
    ??0FontSelection@Gtk@@QEAA@XZ
    ?get_family_list@FontSelection@Gtk@@QEAAPEAVTreeView@2@XZ
    ?get_family_list@FontSelection@Gtk@@QEBAPEBVTreeView@2@XZ
    ?get_face_list@FontSelection@Gtk@@QEAAPEAVTreeView@2@XZ
    ?get_face_list@FontSelection@Gtk@@QEBAPEBVTreeView@2@XZ
    ?get_size_entry@FontSelection@Gtk@@QEAAPEAVEntry@2@XZ
    ?get_size_entry@FontSelection@Gtk@@QEBAPEBVEntry@2@XZ
    ?get_size_list@FontSelection@Gtk@@QEAAPEAVTreeView@2@XZ
    ?get_size_list@FontSelection@Gtk@@QEBAPEBVTreeView@2@XZ
    ?get_preview_entry@FontSelection@Gtk@@QEAAPEAVEntry@2@XZ
    ?get_preview_entry@FontSelection@Gtk@@QEBAPEBVEntry@2@XZ
    ?get_family@FontSelection@Gtk@@QEAA?AV?$RefPtr@VFontFamily@Pango@@@Glib@@XZ
    ?get_family@FontSelection@Gtk@@QEBA?AV?$RefPtr@$$CBVFontFamily@Pango@@@Glib@@XZ
    ?get_face@FontSelection@Gtk@@QEAA?AV?$RefPtr@VFontFace@Pango@@@Glib@@XZ
    ?get_face@FontSelection@Gtk@@QEBA?AV?$RefPtr@$$CBVFontFace@Pango@@@Glib@@XZ
    ?get_size@FontSelection@Gtk@@QEBAHXZ
    ?get_font_name@FontSelection@Gtk@@QEBA?AVustring@Glib@@XZ
    ?set_font_name@FontSelection@Gtk@@QEAA_NAEBVustring@Glib@@@Z
    ?get_preview_text@FontSelection@Gtk@@QEBA?AVustring@Glib@@XZ
    ?set_preview_text@FontSelection@Gtk@@QEAAXAEBVustring@Glib@@@Z
    ?property_font_name@FontSelection@Gtk@@QEAA?AV?$PropertyProxy@Vustring@Glib@@@Glib@@XZ
    ?property_font_name@FontSelection@Gtk@@QEBA?AV?$PropertyProxy_ReadOnly@Vustring@Glib@@@Glib@@XZ
    ?property_preview_text@FontSelection@Gtk@@QEAA?AV?$PropertyProxy@Vustring@Glib@@@Glib@@XZ
    ?property_preview_text@FontSelection@Gtk@@QEBA?AV?$PropertyProxy_ReadOnly@Vustring@Glib@@@Glib@@XZ
    ??_DFontSelection@Gtk@@QEAAXXZ
    ??1FontSelectionDialog@Gtk@@UEAA@XZ
    ??0FontSelectionDialog@Gtk@@IEAA@AEBVConstructParams@Glib@@@Z
    ??0FontSelectionDialog@Gtk@@IEAA@PEAU_GtkFontSelectionDialog@@@Z
    ?get_type@FontSelectionDialog@Gtk@@SA_KXZ
    ?get_base_type@FontSelectionDialog@Gtk@@SA_KXZ
    ??0FontSelectionDialog@Gtk@@QEAA@XZ
    ??0FontSelectionDialog@Gtk@@QEAA@AEBVustring@Glib@@@Z
    ?set_font_name@FontSelectionDialog@Gtk@@QEAA_NAEBVustring@Glib@@@Z
    ?get_font_name@FontSelectionDialog@Gtk@@QEBA?AVustring@Glib@@XZ
    ?get_preview_text@FontSelectionDialog@Gtk@@QEBA?AVustring@Glib@@XZ
    ?set_preview_text@FontSelectionDialog@Gtk@@QEAAXAEBVustring@Glib@@@Z
    ?get_ok_button@FontSelectionDialog@Gtk@@QEAAPEAVButton@2@XZ
    ?get_ok_button@FontSelectionDialog@Gtk@@QEBAPEBVButton@2@XZ
    ?get_cancel_button@FontSelectionDialog@Gtk@@QEAAPEAVButton@2@XZ
    ?get_cancel_button@FontSelectionDialog@Gtk@@QEBAPEBVButton@2@XZ
    ??_DFontSelectionDialog@Gtk@@QEAAXXZ
    ?wrap@Glib@@YAPEAVFontSelection@Gtk@@PEAU_GtkFontSelection@@_N@Z
    ?wrap@Glib@@YAPEAVFontSelectionDialog@Gtk@@PEAU_GtkFontSelectionDialog@@_N@Z
    ?init@FontSelection_Class@Gtk@@QEAAAEBVClass@Glib@@XZ
    ?class_init_function@FontSelection_Class@Gtk@@SAXPEAX0@Z
    ?wrap_new@FontSelection_Class@Gtk@@SAPEAVObjectBase@Glib@@PEAU_GObject@@@Z
    ?init@FontSelectionDialog_Class@Gtk@@QEAAAEBVClass@Glib@@XZ
    ?class_init_function@FontSelectionDialog_Class@Gtk@@SAXPEAX0@Z
    ?wrap_new@FontSelectionDialog_Class@Gtk@@SAPEAVObjectBase@Glib@@PEAU_GObject@@@Z
    ??$manage@VFontSelection@Gtk@@@Gtk@@YAPEAVFontSelection@0@PEAV10@@Z
    ??1?$RefPtr@VFontFamily@Pango@@@Glib@@QEAA@XZ
    ??1?$RefPtr@$$CBVFontFamily@Pango@@@Glib@@QEAA@XZ
    ??1?$RefPtr@VFontFace@Pango@@@Glib@@QEAA@XZ
    ??1?$RefPtr@$$CBVFontFace@Pango@@@Glib@@QEAA@XZ
    ?destroy_notify_@Object@Gtk@@$2PPPPPPPM@BA@EAAXXZ
    ?set_manage@Object@Gtk@@$4PPPPPPPM@BA@EAAXXZ
    ?set_manage@Window@Gtk@@$4PPPPPPPM@A@EAAXXZ
    ??_7FontSelection@Gtk@@6BWidget@1@@
    ??_7FontSelection@Gtk@@6BObject@1@@
    ??_8FontSelection@Gtk@@7BObject@Glib@@@
    ??_8FontSelection@Gtk@@7BInterface@Glib@@Container@1@@
    ??_8FontSelection@Gtk@@7BInterface@Glib@@Orientable@1@@
    ??_8FontSelection@Gtk@@7BObjectBase@Glib@@@
    ??_7FontSelectionDialog@Gtk@@6BWidget@1@@
    ??_7FontSelectionDialog@Gtk@@6BObject@1@@
    ??_8FontSelectionDialog@Gtk@@7BObject@Glib@@@
    ??_8FontSelectionDialog@Gtk@@7BInterface@Glib@@@
    ??_8FontSelectionDialog@Gtk@@7BObjectBase@Glib@@@
    ??_R0?AVObjectBase@Glib@@@8
    ??_R0?AVFontSelection@Gtk@@@8
    ??_C@_09NIDPGDEJ@font?9name?$AA@
    ??_C@_0N@LDPHLAHO@preview?9text?$AA@
    ??_R0?AVFontSelectionDialog@Gtk@@@8
    ??_C@_05PHLGJONK@title?$AA@
    ??_R4FontSelection@Gtk@@6BWidget@1@@
    ??_R3FontSelection@Gtk@@8
    ??_R2FontSelection@Gtk@@8
    ??_R1A@?0A@EA@FontSelection@Gtk@@8
    ??_R1A@?0A@EA@VBox@Gtk@@8
    ??_R0?AVVBox@Gtk@@@8
    ??_R3VBox@Gtk@@8
    ??_R2VBox@Gtk@@8
    ??_R1A@?0A@EA@Box@Gtk@@8
    ??_R0?AVBox@Gtk@@@8
    ??_R3Box@Gtk@@8
    ??_R2Box@Gtk@@8
    ??_R1A@?0A@EA@Container@Gtk@@8
    ??_R0?AVContainer@Gtk@@@8
    ??_R3Container@Gtk@@8
    ??_R2Container@Gtk@@8
    ??_R1A@?0A@EA@Widget@Gtk@@8
    ??_R0?AVWidget@Gtk@@@8
    ??_R3Widget@Gtk@@8
    ??_R2Widget@Gtk@@8
    ??_R17?0A@EA@Object@Gtk@@8
    ??_R0?AVObject@Gtk@@@8
    ??_R3Object@Gtk@@8
    ??_R2Object@Gtk@@8
    ??_R1A@?0A@EA@Object@Gtk@@8
    ??_R1A@?0A@EA@Object@Glib@@8
    ??_R0?AVObject@Glib@@@8
    ??_R3Object@Glib@@8
    ??_R2Object@Glib@@8
    ??_R1A@A@7FA@ObjectBase@Glib@@8
    ??_R3ObjectBase@Glib@@8
    ??_R2ObjectBase@Glib@@8
    ??_R1A@?0A@EA@ObjectBase@Glib@@8
    ??_R1A@73FA@trackable@sigc@@8
    ??_R0?AUtrackable@sigc@@@8
    ??_R3trackable@sigc@@8
    ??_R2trackable@sigc@@8
    ??_R1A@?0A@EA@trackable@sigc@@8
    ??_R1A@A@3FA@trackable@sigc@@8
    ??_R17?0A@EA@Object@Glib@@8
    ??_R1A@77FA@ObjectBase@Glib@@8
    ??_R1BI@?0A@EA@Buildable@Gtk@@8
    ??_R0?AVBuildable@Gtk@@@8
    ??_R3Buildable@Gtk@@8
    ??_R2Buildable@Gtk@@8
    ??_R1A@?0A@EA@Buildable@Gtk@@8
    ??_R1A@?0A@EA@Interface@Glib@@8
    ??_R0?AVInterface@Glib@@@8
    ??_R3Interface@Glib@@8
    ??_R2Interface@Glib@@8
    ??_R1BI@?0A@EA@Interface@Glib@@8
    ??_R1BI@?0A@EC@Interface@Glib@@8
    ??_R1CA@?0A@EA@Orientable@Gtk@@8
    ??_R0?AVOrientable@Gtk@@@8
    ??_R3Orientable@Gtk@@8
    ??_R2Orientable@Gtk@@8
    ??_R1A@?0A@EA@Orientable@Gtk@@8
    ??_R1CA@?0A@EC@Interface@Glib@@8
    ??_R4FontSelection@Gtk@@6BObject@1@@
    ??_R4FontSelectionDialog@Gtk@@6BWidget@1@@
    ??_R3FontSelectionDialog@Gtk@@8
    ??_R2FontSelectionDialog@Gtk@@8
    ??_R1A@?0A@EA@FontSelectionDialog@Gtk@@8
    ??_R1A@?0A@EA@Dialog@Gtk@@8
    ??_R0?AVDialog@Gtk@@@8
    ??_R3Dialog@Gtk@@8
    ??_R2Dialog@Gtk@@8
    ??_R1A@?0A@EA@Window@Gtk@@8
    ??_R0?AVWindow@Gtk@@@8
    ??_R3Window@Gtk@@8
    ??_R2Window@Gtk@@8
    ??_R1A@?0A@EA@Bin@Gtk@@8
    ??_R0?AVBin@Gtk@@@8
    ??_R3Bin@Gtk@@8
    ??_R2Bin@Gtk@@8
    ??_R4FontSelectionDialog@Gtk@@6BObject@1@@
    ?frame_class_@Frame@Gtk@@0VFrame_Class@2@A
    ?__empty_global_delete@@YAXPEAX@Z
    ?__empty_global_delete@@YAXPEAX_K@Z
    ?convert_const_gchar_ptr_to_ustring@Glib@@YA?AVustring@1@PEBD@Z
    ??1Frame@Gtk@@UEAA@XZ
    ??0Frame@Gtk@@IEAA@AEBVConstructParams@Glib@@@Z
    ??0Frame@Gtk@@IEAA@PEAU_GtkFrame@@@Z
    ?get_type@Frame@Gtk@@SA_KXZ
    ?get_base_type@Frame@Gtk@@SA_KXZ
    ??0Frame@Gtk@@QEAA@XZ
    ??0Frame@Gtk@@QEAA@AEBVustring@Glib@@@Z
    ?set_label@Frame@Gtk@@QEAAXAEBVustring@Glib@@@Z
    ?unset_label@Frame@Gtk@@QEAAXXZ
    ?get_label@Frame@Gtk@@QEBA?AVustring@Glib@@XZ
    ?set_label_widget@Frame@Gtk@@QEAAXAEAVWidget@2@@Z
    ?get_label_widget@Frame@Gtk@@QEAAPEAVWidget@2@XZ
    ?get_label_widget@Frame@Gtk@@QEBAPEBVWidget@2@XZ
    ?set_label_align@Frame@Gtk@@QEAAXMM@Z
    ?set_label_align@Frame@Gtk@@QEAAXW4Align@2@0@Z
    ?get_label_align@Frame@Gtk@@QEBAXAEAM0@Z
    ?set_shadow_type@Frame@Gtk@@QEAAXW4ShadowType@2@@Z
    ?get_shadow_type@Frame@Gtk@@QEBA?AW4ShadowType@2@XZ
    ?property_label@Frame@Gtk@@QEAA?AV?$PropertyProxy@Vustring@Glib@@@Glib@@XZ
    ?property_label@Frame@Gtk@@QEBA?AV?$PropertyProxy_ReadOnly@Vustring@Glib@@@Glib@@XZ
    ?property_label_xalign@Frame@Gtk@@QEAA?AV?$PropertyProxy@N@Glib@@XZ
    ?property_label_xalign@Frame@Gtk@@QEBA?AV?$PropertyProxy_ReadOnly@N@Glib@@XZ
    ?property_label_yalign@Frame@Gtk@@QEAA?AV?$PropertyProxy@N@Glib@@XZ
    ?property_label_yalign@Frame@Gtk@@QEBA?AV?$PropertyProxy_ReadOnly@N@Glib@@XZ
    ?property_shadow_type@Frame@Gtk@@QEAA?AV?$PropertyProxy@W4ShadowType@Gtk@@@Glib@@XZ
    ?property_shadow_type@Frame@Gtk@@QEBA?AV?$PropertyProxy_ReadOnly@W4ShadowType@Gtk@@@Glib@@XZ
    ?property_label_widget@Frame@Gtk@@QEAA?AV?$PropertyProxy@PEAVWidget@Gtk@@@Glib@@XZ
    ?property_label_widget@Frame@Gtk@@QEBA?AV?$PropertyProxy_ReadOnly@PEAVWidget@Gtk@@@Glib@@XZ
    ?compute_child_allocation_vfunc@Frame@Gtk@@MEAAXAEAVRectangle@Gdk@@@Z
    ??_DFrame@Gtk@@QEAAXXZ
    ?wrap@Glib@@YAPEAVFrame@Gtk@@PEAU_GtkFrame@@_N@Z
    ?init@Frame_Class@Gtk@@QEAAAEBVClass@Glib@@XZ
    ?class_init_function@Frame_Class@Gtk@@SAXPEAX0@Z
    ?wrap_new@Frame_Class@Gtk@@SAPEAVObjectBase@Glib@@PEAU_GObject@@@Z
    ?compute_child_allocation_vfunc_callback@Frame_Class@Gtk@@KAXPEAU_GtkFrame@@PEAU_cairo_rectangle_int@@@Z
    ??$manage@VFrame@Gtk@@@Gtk@@YAPEAVFrame@0@PEAV10@@Z
    ?destroy_notify_@Object@Gtk@@$2PPPPPPPM@7EAAXXZ
    ?set_manage@Object@Gtk@@$4PPPPPPPM@7EAAXXZ
    ??_7Frame@Gtk@@6BWidget@1@@
    ??_7Frame@Gtk@@6BObject@1@@
    ??_8Frame@Gtk@@7BObject@Glib@@@
    ??_8Frame@Gtk@@7BInterface@Glib@@@
    ??_8Frame@Gtk@@7BObjectBase@Glib@@@
    ??_R0?AVObjectBase@Glib@@@8
    ??_R0?AVFrame@Gtk@@@8
    ??_C@_05IDCCNNGI@label?$AA@
    ??_C@_0N@IAECOELP@label?9xalign?$AA@
    ??_C@_0N@CGDFOPAL@label?9yalign?$AA@
    ??_C@_0M@MPGLLGPO@shadow?9type?$AA@
    ??_C@_0N@PJFPAEHM@label?9widget?$AA@
    ??_R4Frame@Gtk@@6BWidget@1@@
    ??_R3Frame@Gtk@@8
    ??_R2Frame@Gtk@@8
    ??_R1A@?0A@EA@Frame@Gtk@@8
    ??_R1A@?0A@EA@Bin@Gtk@@8
    ??_R0?AVBin@Gtk@@@8
    ??_R3Bin@Gtk@@8
    ??_R2Bin@Gtk@@8
    ??_R1A@?0A@EA@Container@Gtk@@8
    ??_R0?AVContainer@Gtk@@@8
    ??_R3Container@Gtk@@8
    ??_R2Container@Gtk@@8
    ??_R1A@?0A@EA@Widget@Gtk@@8
    ??_R0?AVWidget@Gtk@@@8
    ??_R3Widget@Gtk@@8
    ??_R2Widget@Gtk@@8
    ??_R17?0A@EA@Object@Gtk@@8
    ??_R0?AVObject@Gtk@@@8
    ??_R3Object@Gtk@@8
    ??_R2Object@Gtk@@8
    ??_R1A@?0A@EA@Object@Gtk@@8
    ??_R1A@?0A@EA@Object@Glib@@8
    ??_R0?AVObject@Glib@@@8
    ??_R3Object@Glib@@8
    ??_R2Object@Glib@@8
    ??_R1A@A@7FA@ObjectBase@Glib@@8
    ??_R3ObjectBase@Glib@@8
    ??_R2ObjectBase@Glib@@8
    ??_R1A@?0A@EA@ObjectBase@Glib@@8
    ??_R1A@73FA@trackable@sigc@@8
    ??_R0?AUtrackable@sigc@@@8
    ??_R3trackable@sigc@@8
    ??_R2trackable@sigc@@8
    ??_R1A@?0A@EA@trackable@sigc@@8
    ??_R1A@A@3FA@trackable@sigc@@8
    ??_R17?0A@EA@Object@Glib@@8
    ??_R1A@77FA@ObjectBase@Glib@@8
    ??_R1BI@?0A@EA@Buildable@Gtk@@8
    ??_R0?AVBuildable@Gtk@@@8
    ??_R3Buildable@Gtk@@8
    ??_R2Buildable@Gtk@@8
    ??_R1A@?0A@EA@Buildable@Gtk@@8
    ??_R1A@?0A@EA@Interface@Glib@@8
    ??_R0?AVInterface@Glib@@@8
    ??_R3Interface@Glib@@8
    ??_R2Interface@Glib@@8
    ??_R1BI@?0A@EA@Interface@Glib@@8
    ??_R4Frame@Gtk@@6BObject@1@@
    ??_C@_05EAFKHBAM@begin?$AA@
    ??_C@_03JBJLGPFL@end?$AA@
    ??_C@_06HDLLMMEJ@update?$AA@
    ??_C@_06JDKABGKH@cancel?$AA@
    ??_C@_0BH@NEPHOLOD@sequence_state_changed?$AA@
    ?gesture_class_@Gesture@Gtk@@0VGesture_Class@2@A
    ?__empty_global_delete@@YAXPEAX@Z
    ?__empty_global_delete@@YAXPEAX_K@Z
    ?value_type@?$Value@W4EventSequenceState@Gtk@@@Glib@@SA_KXZ
    ??0Gesture@Gtk@@IEAA@AEBVConstructParams@Glib@@@Z
    ??0Gesture@Gtk@@IEAA@PEAU_GtkGesture@@@Z
    ??1Gesture@Gtk@@UEAA@XZ
    ?get_type@Gesture@Gtk@@SA_KXZ
    ?get_base_type@Gesture@Gtk@@SA_KXZ
    ?gobj_copy@Gesture@Gtk@@QEAAPEAU_GtkGesture@@XZ
    ??0Gesture@Gtk@@IEAA@XZ
    ?get_device@Gesture@Gtk@@QEAA?AV?$RefPtr@VDevice@Gdk@@@Glib@@XZ
    ?get_device@Gesture@Gtk@@QEBA?AV?$RefPtr@$$CBVDevice@Gdk@@@Glib@@XZ
    ?set_state@Gesture@Gtk@@QEAA_NW4EventSequenceState@2@@Z
    ?get_sequence_state@Gesture@Gtk@@QEBA?AW4EventSequenceState@2@PEAU_GdkEventSequence@@@Z
    ?set_sequence_state@Gesture@Gtk@@QEAA_NPEAU_GdkEventSequence@@W4EventSequenceState@2@@Z
    ?get_sequences@Gesture@Gtk@@QEBA?AV?$vector@PEBU_GdkEventSequence@@V?$allocator@PEBU_GdkEventSequence@@@std@@@std@@XZ
    ?get_last_updated_sequence@Gesture@Gtk@@QEAAPEAU_GdkEventSequence@@XZ
    ?get_last_updated_sequence@Gesture@Gtk@@QEBAPEBU_GdkEventSequence@@XZ
    ?handles_sequence@Gesture@Gtk@@QEBA_NPEAU_GdkEventSequence@@@Z
    ?get_last_event@Gesture@Gtk@@QEBAPEBT_GdkEvent@@PEAU_GdkEventSequence@@@Z
    ?get_point@Gesture@Gtk@@QEBA_NPEAU_GdkEventSequence@@AEAN1@Z
    ?get_bounding_box@Gesture@Gtk@@QEBA_NAEAVRectangle@Gdk@@@Z
    ?get_bounding_box_center@Gesture@Gtk@@QEBA_NAEAN0@Z
    ?is_active@Gesture@Gtk@@QEBA_NXZ
    ?is_recognized@Gesture@Gtk@@QEBA_NXZ
    ?get_window@Gesture@Gtk@@QEAA?AV?$RefPtr@VWindow@Gdk@@@Glib@@XZ
    ?get_window@Gesture@Gtk@@QEBA?AV?$RefPtr@$$CBVWindow@Gdk@@@Glib@@XZ
    ?set_window@Gesture@Gtk@@QEAAXAEBV?$RefPtr@VWindow@Gdk@@@Glib@@@Z
    ?unset_window@Gesture@Gtk@@QEAAXXZ
    ?group@Gesture@Gtk@@QEAAXAEBV?$RefPtr@VGesture@Gtk@@@Glib@@@Z
    ?ungroup@Gesture@Gtk@@QEAAXXZ
    ?get_group@Gesture@Gtk@@QEAA?AV?$vector@V?$RefPtr@VGesture@Gtk@@@Glib@@V?$allocator@V?$RefPtr@VGesture@Gtk@@@Glib@@@std@@@std@@XZ
    ?get_group@Gesture@Gtk@@QEBA?AV?$vector@V?$RefPtr@$$CBVGesture@Gtk@@@Glib@@V?$allocator@V?$RefPtr@$$CBVGesture@Gtk@@@Glib@@@std@@@std@@XZ
    ?is_grouped_with@Gesture@Gtk@@QEBA_NAEBV?$RefPtr@VGesture@Gtk@@@Glib@@@Z
    ?signal_begin@Gesture@Gtk@@QEAA?AV?$SignalProxy1@XPEAU_GdkEventSequence@@@Glib@@XZ
    ?signal_end@Gesture@Gtk@@QEAA?AV?$SignalProxy1@XPEAU_GdkEventSequence@@@Glib@@XZ
    ?signal_update@Gesture@Gtk@@QEAA?AV?$SignalProxy1@XPEAU_GdkEventSequence@@@Glib@@XZ
    ?signal_cancel@Gesture@Gtk@@QEAA?AV?$SignalProxy1@XPEAU_GdkEventSequence@@@Glib@@XZ
    ?signal_sequence_state_changed@Gesture@Gtk@@QEAA?AV?$SignalProxy2@XPEAU_GdkEventSequence@@W4EventSequenceState@Gtk@@@Glib@@XZ
    ?property_n_points@Gesture@Gtk@@QEBA?AV?$PropertyProxy_ReadOnly@I@Glib@@XZ
    ?property_window@Gesture@Gtk@@QEAA?AV?$PropertyProxy@V?$RefPtr@VWindow@Gdk@@@Glib@@@Glib@@XZ
    ?property_window@Gesture@Gtk@@QEBA?AV?$PropertyProxy_ReadOnly@V?$RefPtr@VWindow@Gdk@@@Glib@@@Glib@@XZ
    ?wrap@Glib@@YA?AV?$RefPtr@VGesture@Gtk@@@1@PEAU_GtkGesture@@_N@Z
    ?init@Gesture_Class@Gtk@@QEAAAEBVClass@Glib@@XZ
    ?class_init_function@Gesture_Class@Gtk@@SAXPEAX0@Z
    ?wrap_new@Gesture_Class@Gtk@@SAPEAVObjectBase@Glib@@PEAU_GObject@@@Z
    ?allocate@?$allocator@PEBU_GdkEventSequence@@@std@@QEAAPEAPEBU_GdkEventSequence@@_K@Z
    ??1?$vector@PEBU_GdkEventSequence@@V?$allocator@PEBU_GdkEventSequence@@@std@@@std@@QEAA@XZ
    ?_Reallocate@?$vector@PEBU_GdkEventSequence@@V?$allocator@PEBU_GdkEventSequence@@@std@@@std@@IEAAX_K@Z
    ?_Reserve@?$vector@PEBU_GdkEventSequence@@V?$allocator@PEBU_GdkEventSequence@@@std@@@std@@IEAAX_K@Z
    ??1?$RefPtr@VDevice@Gdk@@@Glib@@QEAA@XZ
    ??1?$RefPtr@$$CBVDevice@Gdk@@@Glib@@QEAA@XZ
    ??1?$RefPtr@VWindow@Gdk@@@Glib@@QEAA@XZ
    ??1?$RefPtr@$$CBVWindow@Gdk@@@Glib@@QEAA@XZ
    ?allocate@?$allocator@V?$RefPtr@VGesture@Gtk@@@Glib@@@std@@QEAAPEAV?$RefPtr@VGesture@Gtk@@@Glib@@_K@Z
    ?_Tidy@?$vector@V?$RefPtr@VGesture@Gtk@@@Glib@@V?$allocator@V?$RefPtr@VGesture@Gtk@@@Glib@@@std@@@std@@IEAAXXZ
    ?to_cpp_type@?$TypeTraits@V?$RefPtr@VGesture@Gtk@@@Glib@@@Container_Helpers@Glib@@SA?AV?$RefPtr@VGesture@Gtk@@@3@PEAU_GtkGesture@@@Z
    ?list_to_vector@?$ListHandler@V?$RefPtr@VGesture@Gtk@@@Glib@@U?$TypeTraits@V?$RefPtr@VGesture@Gtk@@@Glib@@@Container_Helpers@2@@Glib@@SA?AV?$vector@V?$RefPtr@VGesture@Gtk@@@Glib@@V?$allocator@V?$RefPtr@VGesture@Gtk@@@Glib@@@std@@@std@@PEAU_GList@@W4OwnershipType@2@@Z
    ?allocate@?$allocator@V?$RefPtr@$$CBVGesture@Gtk@@@Glib@@@std@@QEAAPEAV?$RefPtr@$$CBVGesture@Gtk@@@Glib@@_K@Z
    ?_Tidy@?$vector@V?$RefPtr@$$CBVGesture@Gtk@@@Glib@@V?$allocator@V?$RefPtr@$$CBVGesture@Gtk@@@Glib@@@std@@@std@@IEAAXXZ
    ?to_cpp_type@?$TypeTraits@V?$RefPtr@$$CBVGesture@Gtk@@@Glib@@@Container_Helpers@Glib@@SA?AV?$RefPtr@$$CBVGesture@Gtk@@@3@PEBU_GtkGesture@@@Z
    ?list_to_vector@?$ListHandler@V?$RefPtr@$$CBVGesture@Gtk@@@Glib@@U?$TypeTraits@V?$RefPtr@$$CBVGesture@Gtk@@@Glib@@@Container_Helpers@2@@Glib@@SA?AV?$vector@V?$RefPtr@$$CBVGesture@Gtk@@@Glib@@V?$allocator@V?$RefPtr@$$CBVGesture@Gtk@@@Glib@@@std@@@std@@PEAU_GList@@W4OwnershipType@2@@Z
    ??$_Deallocate@V?$RefPtr@$$CBVGesture@Gtk@@@Glib@@@std@@YAXPEAV?$RefPtr@$$CBVGesture@Gtk@@@Glib@@_K@Z
    ??$_Deallocate@V?$RefPtr@VGesture@Gtk@@@Glib@@@std@@YAXPEAV?$RefPtr@VGesture@Gtk@@@Glib@@_K@Z
    ??$_Deallocate@PEBU_GdkEventSequence@@@std@@YAXPEAPEBU_GdkEventSequence@@_K@Z
    ??1?$GListKeeper@U?$TypeTraits@V?$RefPtr@VGesture@Gtk@@@Glib@@@Container_Helpers@Glib@@@Container_Helpers@Glib@@QEAA@XZ
    ??D?$ListIterator@U?$TypeTraits@V?$RefPtr@VGesture@Gtk@@@Glib@@@Container_Helpers@Glib@@@Container_Helpers@Glib@@QEBA?AV?$RefPtr@VGesture@Gtk@@@2@XZ
    ??1?$GListKeeper@U?$TypeTraits@V?$RefPtr@$$CBVGesture@Gtk@@@Glib@@@Container_Helpers@Glib@@@Container_Helpers@Glib@@QEAA@XZ
    ??D?$ListIterator@U?$TypeTraits@V?$RefPtr@$$CBVGesture@Gtk@@@Glib@@@Container_Helpers@Glib@@@Container_Helpers@Glib@@QEBA?AV?$RefPtr@$$CBVGesture@Gtk@@@2@XZ
    ??$_Construct@V?$ListIterator@U?$TypeTraits@V?$RefPtr@VGesture@Gtk@@@Glib@@@Container_Helpers@Glib@@@Container_Helpers@Glib@@@?$vector@V?$RefPtr@VGesture@Gtk@@@Glib@@V?$allocator@V?$RefPtr@VGesture@Gtk@@@Glib@@@std@@@std@@QEAAXV?$ListIterator@U?$TypeTraits@V?$RefPtr@VGesture@Gtk@@@Glib@@@Container_Helpers@Glib@@@Container_Helpers@Glib@@0Uforward_iterator_tag@1@@Z
    ??$_Construct@V?$ListIterator@U?$TypeTraits@V?$RefPtr@$$CBVGesture@Gtk@@@Glib@@@Container_Helpers@Glib@@@Container_Helpers@Glib@@@?$vector@V?$RefPtr@$$CBVGesture@Gtk@@@Glib@@V?$allocator@V?$RefPtr@$$CBVGesture@Gtk@@@Glib@@@std@@@std@@QEAAXV?$ListIterator@U?$TypeTraits@V?$RefPtr@$$CBVGesture@Gtk@@@Glib@@@Container_Helpers@Glib@@@Container_Helpers@Glib@@0Uforward_iterator_tag@1@@Z
    ??$_Uninit_copy@V?$ListIterator@U?$TypeTraits@V?$RefPtr@VGesture@Gtk@@@Glib@@@Container_Helpers@Glib@@@Container_Helpers@Glib@@PEAV?$RefPtr@VGesture@Gtk@@@3@V?$allocator@V?$RefPtr@VGesture@Gtk@@@Glib@@@std@@@std@@YAPEAV?$RefPtr@VGesture@Gtk@@@Glib@@V?$ListIterator@U?$TypeTraits@V?$RefPtr@VGesture@Gtk@@@Glib@@@Container_Helpers@Glib@@@Container_Helpers@2@0PEAV12@AEAU?$_Wrap_alloc@V?$allocator@V?$RefPtr@VGesture@Gtk@@@Glib@@@std@@@0@U_Nonscalar_ptr_iterator_tag@0@@Z
    ??$_Uninit_copy@V?$ListIterator@U?$TypeTraits@V?$RefPtr@$$CBVGesture@Gtk@@@Glib@@@Container_Helpers@Glib@@@Container_Helpers@Glib@@PEAV?$RefPtr@$$CBVGesture@Gtk@@@3@V?$allocator@V?$RefPtr@$$CBVGesture@Gtk@@@Glib@@@std@@@std@@YAPEAV?$RefPtr@$$CBVGesture@Gtk@@@Glib@@V?$ListIterator@U?$TypeTraits@V?$RefPtr@$$CBVGesture@Gtk@@@Glib@@@Container_Helpers@Glib@@@Container_Helpers@2@0PEAV12@AEAU?$_Wrap_alloc@V?$allocator@V?$RefPtr@$$CBVGesture@Gtk@@@Glib@@@std@@@0@U_Nonscalar_ptr_iterator_tag@0@@Z
    ??_7Gesture@Gtk@@6B@
    ??_8Gesture@Gtk@@7BObject@Glib@@@
    ??_8Gesture@Gtk@@7BObjectBase@Glib@@@
    ??_R0?AVObjectBase@Glib@@@8
    ??_R0?AVGesture@Gtk@@@8
    ??_C@_08OCNPNEPB@n?9points?$AA@
    ??_C@_06NFBEFKOC@window?$AA@
    ??_C@_0BD@OLBABOEK@vector?$DMT?$DO?5too?5long?$AA@
    ??_R4Gesture@Gtk@@6B@
    ??_R3Gesture@Gtk@@8
    ??_R2Gesture@Gtk@@8
    ??_R1A@?0A@EA@Gesture@Gtk@@8
    ??_R1A@?0A@EA@EventController@Gtk@@8
    ??_R0?AVEventController@Gtk@@@8
    ??_R3EventController@Gtk@@8
    ??_R2EventController@Gtk@@8
    ??_R1A@?0A@EA@Object@Glib@@8
    ??_R0?AVObject@Glib@@@8
    ??_R3Object@Glib@@8
    ??_R2Object@Glib@@8
    ??_R1A@A@7FA@ObjectBase@Glib@@8
    ??_R3ObjectBase@Glib@@8
    ??_R2ObjectBase@Glib@@8
    ??_R1A@?0A@EA@ObjectBase@Glib@@8
    ??_R1A@73FA@trackable@sigc@@8
    ??_R0?AUtrackable@sigc@@@8
    ??_R3trackable@sigc@@8
    ??_R2trackable@sigc@@8
    ??_R1A@?0A@EA@trackable@sigc@@8
    ??_R1A@A@3FA@trackable@sigc@@8
    ?gesturedrag_class_@GestureDrag@Gtk@@0VGestureDrag_Class@2@A
    ??_C@_0L@LHPCLFEF@drag?9begin?$AA@
    ??_C@_0M@HMEMJNLJ@drag?9update?$AA@
    ??_C@_08LIENHBKK@drag?9end?$AA@
    ?__empty_global_delete@@YAXPEAX@Z
    ?__empty_global_delete@@YAXPEAX_K@Z
    ??0GestureDrag@Gtk@@IEAA@AEBVConstructParams@Glib@@@Z
    ??0GestureDrag@Gtk@@IEAA@PEAU_GtkGestureDrag@@@Z
    ??1GestureDrag@Gtk@@UEAA@XZ
    ?get_type@GestureDrag@Gtk@@SA_KXZ
    ?get_base_type@GestureDrag@Gtk@@SA_KXZ
    ?gobj_copy@GestureDrag@Gtk@@QEAAPEAU_GtkGestureDrag@@XZ
    ??0GestureDrag@Gtk@@IEAA@XZ
    ??0GestureDrag@Gtk@@IEAA@AEAVWidget@1@@Z
    ?create@GestureDrag@Gtk@@SA?AV?$RefPtr@VGestureDrag@Gtk@@@Glib@@AEAVWidget@2@@Z
    ?get_start_point@GestureDrag@Gtk@@QEBA_NAEAN0@Z
    ?get_offset@GestureDrag@Gtk@@QEBA_NAEAN0@Z
    ?signal_drag_begin@GestureDrag@Gtk@@QEAA?AV?$SignalProxy2@XNN@Glib@@XZ
    ?signal_drag_update@GestureDrag@Gtk@@QEAA?AV?$SignalProxy2@XNN@Glib@@XZ
    ?signal_drag_end@GestureDrag@Gtk@@QEAA?AV?$SignalProxy2@XNN@Glib@@XZ
    ?wrap@Glib@@YA?AV?$RefPtr@VGestureDrag@Gtk@@@1@PEAU_GtkGestureDrag@@_N@Z
    ?init@GestureDrag_Class@Gtk@@QEAAAEBVClass@Glib@@XZ
    ?class_init_function@GestureDrag_Class@Gtk@@SAXPEAX0@Z
    ?wrap_new@GestureDrag_Class@Gtk@@SAPEAVObjectBase@Glib@@PEAU_GObject@@@Z
    ??_7GestureDrag@Gtk@@6B@
    ??_8GestureDrag@Gtk@@7BObject@Glib@@@
    ??_8GestureDrag@Gtk@@7BObjectBase@Glib@@@
    ??_R0?AVObjectBase@Glib@@@8
    ??_R0?AVGestureDrag@Gtk@@@8
    ??_C@_06KLKLDLLI@widget?$AA@
    ??_R4GestureDrag@Gtk@@6B@
    ??_R3GestureDrag@Gtk@@8
    ??_R2GestureDrag@Gtk@@8
    ??_R1A@?0A@EA@GestureDrag@Gtk@@8
    ??_R1A@?0A@EA@GestureSingle@Gtk@@8
    ??_R0?AVGestureSingle@Gtk@@@8
    ??_R3GestureSingle@Gtk@@8
    ??_R2GestureSingle@Gtk@@8
    ??_R1A@?0A@EA@Gesture@Gtk@@8
    ??_R0?AVGesture@Gtk@@@8
    ??_R3Gesture@Gtk@@8
    ??_R2Gesture@Gtk@@8
    ??_R1A@?0A@EA@EventController@Gtk@@8
    ??_R0?AVEventController@Gtk@@@8
    ??_R3EventController@Gtk@@8
    ??_R2EventController@Gtk@@8
    ??_R1A@?0A@EA@Object@Glib@@8
    ??_R0?AVObject@Glib@@@8
    ??_R3Object@Glib@@8
    ??_R2Object@Glib@@8
    ??_R1A@A@7FA@ObjectBase@Glib@@8
    ??_R3ObjectBase@Glib@@8
    ??_R2ObjectBase@Glib@@8
    ??_R1A@?0A@EA@ObjectBase@Glib@@8
    ??_R1A@73FA@trackable@sigc@@8
    ??_R0?AUtrackable@sigc@@@8
    ??_R3trackable@sigc@@8
    ??_R2trackable@sigc@@8
    ??_R1A@?0A@EA@trackable@sigc@@8
    ??_R1A@A@3FA@trackable@sigc@@8
    ?gesturelongpress_class_@GestureLongPress@Gtk@@0VGestureLongPress_Class@2@A
    ??_C@_07JNDGNMOI@pressed?$AA@
    ??_C@_09CIAELCJK@cancelled?$AA@
    ?__empty_global_delete@@YAXPEAX@Z
    ?__empty_global_delete@@YAXPEAX_K@Z
    ??0GestureLongPress@Gtk@@IEAA@AEBVConstructParams@Glib@@@Z
    ??0GestureLongPress@Gtk@@IEAA@PEAU_GtkGestureLongPress@@@Z
    ??1GestureLongPress@Gtk@@UEAA@XZ
    ?get_type@GestureLongPress@Gtk@@SA_KXZ
    ?get_base_type@GestureLongPress@Gtk@@SA_KXZ
    ?gobj_copy@GestureLongPress@Gtk@@QEAAPEAU_GtkGestureLongPress@@XZ
    ??0GestureLongPress@Gtk@@IEAA@XZ
    ??0GestureLongPress@Gtk@@IEAA@AEAVWidget@1@@Z
    ?create@GestureLongPress@Gtk@@SA?AV?$RefPtr@VGestureLongPress@Gtk@@@Glib@@AEAVWidget@2@@Z
    ?signal_pressed@GestureLongPress@Gtk@@QEAA?AV?$SignalProxy2@XNN@Glib@@XZ
    ?signal_cancelled@GestureLongPress@Gtk@@QEAA?AV?$SignalProxy0@X@Glib@@XZ
    ?wrap@Glib@@YA?AV?$RefPtr@VGestureLongPress@Gtk@@@1@PEAU_GtkGestureLongPress@@_N@Z
    ?init@GestureLongPress_Class@Gtk@@QEAAAEBVClass@Glib@@XZ
    ?class_init_function@GestureLongPress_Class@Gtk@@SAXPEAX0@Z
    ?wrap_new@GestureLongPress_Class@Gtk@@SAPEAVObjectBase@Glib@@PEAU_GObject@@@Z
    ??_7GestureLongPress@Gtk@@6B@
    ??_8GestureLongPress@Gtk@@7BObject@Glib@@@
    ??_8GestureLongPress@Gtk@@7BObjectBase@Glib@@@
    ??_R0?AVObjectBase@Glib@@@8
    ??_R0?AVGestureLongPress@Gtk@@@8
    ??_C@_06KLKLDLLI@widget?$AA@
    ??_R4GestureLongPress@Gtk@@6B@
    ??_R3GestureLongPress@Gtk@@8
    ??_R2GestureLongPress@Gtk@@8
    ??_R1A@?0A@EA@GestureLongPress@Gtk@@8
    ??_R1A@?0A@EA@GestureSingle@Gtk@@8
    ??_R0?AVGestureSingle@Gtk@@@8
    ??_R3GestureSingle@Gtk@@8
    ??_R2GestureSingle@Gtk@@8
    ??_R1A@?0A@EA@Gesture@Gtk@@8
    ??_R0?AVGesture@Gtk@@@8
    ??_R3Gesture@Gtk@@8
    ??_R2Gesture@Gtk@@8
    ??_R1A@?0A@EA@EventController@Gtk@@8
    ??_R0?AVEventController@Gtk@@@8
    ??_R3EventController@Gtk@@8
    ??_R2EventController@Gtk@@8
    ??_R1A@?0A@EA@Object@Glib@@8
    ??_R0?AVObject@Glib@@@8
    ??_R3Object@Glib@@8
    ??_R2Object@Glib@@8
    ??_R1A@A@7FA@ObjectBase@Glib@@8
    ??_R3ObjectBase@Glib@@8
    ??_R2ObjectBase@Glib@@8
    ??_R1A@?0A@EA@ObjectBase@Glib@@8
    ??_R1A@73FA@trackable@sigc@@8
    ??_R0?AUtrackable@sigc@@@8
    ??_R3trackable@sigc@@8
    ??_R2trackable@sigc@@8
    ??_R1A@?0A@EA@trackable@sigc@@8
    ??_R1A@A@3FA@trackable@sigc@@8
    ?gesturemultipress_class_@GestureMultiPress@Gtk@@0VGestureMultiPress_Class@2@A
    ??_C@_07JNDGNMOI@pressed?$AA@
    ??_C@_08NJNCOAEC@released?$AA@
    ??_C@_07IEOHBIGJ@stopped?$AA@
    ?__empty_global_delete@@YAXPEAX@Z
    ?__empty_global_delete@@YAXPEAX_K@Z
    ??0GestureMultiPress@Gtk@@IEAA@AEBVConstructParams@Glib@@@Z
    ??0GestureMultiPress@Gtk@@IEAA@PEAU_GtkGestureMultiPress@@@Z
    ??1GestureMultiPress@Gtk@@UEAA@XZ
    ?get_type@GestureMultiPress@Gtk@@SA_KXZ
    ?get_base_type@GestureMultiPress@Gtk@@SA_KXZ
    ?gobj_copy@GestureMultiPress@Gtk@@QEAAPEAU_GtkGestureMultiPress@@XZ
    ??0GestureMultiPress@Gtk@@IEAA@XZ
    ??0GestureMultiPress@Gtk@@IEAA@AEAVWidget@1@@Z
    ?create@GestureMultiPress@Gtk@@SA?AV?$RefPtr@VGestureMultiPress@Gtk@@@Glib@@AEAVWidget@2@@Z
    ?get_area@GestureMultiPress@Gtk@@QEBA_NAEAVRectangle@Gdk@@@Z
    ?set_area@GestureMultiPress@Gtk@@QEAAXAEBVRectangle@Gdk@@@Z
    ?unset_area@GestureMultiPress@Gtk@@QEAAXXZ
    ?signal_pressed@GestureMultiPress@Gtk@@QEAA?AV?$SignalProxy3@XHNN@Glib@@XZ
    ?signal_released@GestureMultiPress@Gtk@@QEAA?AV?$SignalProxy3@XHNN@Glib@@XZ
    ?signal_stopped@GestureMultiPress@Gtk@@QEAA?AV?$SignalProxy0@X@Glib@@XZ
    ?wrap@Glib@@YA?AV?$RefPtr@VGestureMultiPress@Gtk@@@1@PEAU_GtkGestureMultiPress@@_N@Z
    ?init@GestureMultiPress_Class@Gtk@@QEAAAEBVClass@Glib@@XZ
    ?class_init_function@GestureMultiPress_Class@Gtk@@SAXPEAX0@Z
    ?wrap_new@GestureMultiPress_Class@Gtk@@SAPEAVObjectBase@Glib@@PEAU_GObject@@@Z
    ??_7GestureMultiPress@Gtk@@6B@
    ??_8GestureMultiPress@Gtk@@7BObject@Glib@@@
    ??_8GestureMultiPress@Gtk@@7BObjectBase@Glib@@@
    ??_R0?AVObjectBase@Glib@@@8
    ??_R0?AVGestureMultiPress@Gtk@@@8
    ??_C@_06KLKLDLLI@widget?$AA@
    ??_R4GestureMultiPress@Gtk@@6B@
    ??_R3GestureMultiPress@Gtk@@8
    ??_R2GestureMultiPress@Gtk@@8
    ??_R1A@?0A@EA@GestureMultiPress@Gtk@@8
    ??_R1A@?0A@EA@GestureSingle@Gtk@@8
    ??_R0?AVGestureSingle@Gtk@@@8
    ??_R3GestureSingle@Gtk@@8
    ??_R2GestureSingle@Gtk@@8
    ??_R1A@?0A@EA@Gesture@Gtk@@8
    ??_R0?AVGesture@Gtk@@@8
    ??_R3Gesture@Gtk@@8
    ??_R2Gesture@Gtk@@8
    ??_R1A@?0A@EA@EventController@Gtk@@8
    ??_R0?AVEventController@Gtk@@@8
    ??_R3EventController@Gtk@@8
    ??_R2EventController@Gtk@@8
    ??_R1A@?0A@EA@Object@Glib@@8
    ??_R0?AVObject@Glib@@@8
    ??_R3Object@Glib@@8
    ??_R2Object@Glib@@8
    ??_R1A@A@7FA@ObjectBase@Glib@@8
    ??_R3ObjectBase@Glib@@8
    ??_R2ObjectBase@Glib@@8
    ??_R1A@?0A@EA@ObjectBase@Glib@@8
    ??_R1A@73FA@trackable@sigc@@8
    ??_R0?AUtrackable@sigc@@@8
    ??_R3trackable@sigc@@8
    ??_R2trackable@sigc@@8
    ??_R1A@?0A@EA@trackable@sigc@@8
    ??_R1A@A@3FA@trackable@sigc@@8
    ?gesturepan_class_@GesturePan@Gtk@@0VGesturePan_Class@2@A
    ??_C@_03HOPGHEB@pan?$AA@
    ?__empty_global_delete@@YAXPEAX@Z
    ?__empty_global_delete@@YAXPEAX_K@Z
    ?value_type@?$Value@W4PanDirection@Gtk@@@Glib@@SA_KXZ
    ??0GesturePan@Gtk@@IEAA@AEBVConstructParams@Glib@@@Z
    ??0GesturePan@Gtk@@IEAA@PEAU_GtkGesturePan@@@Z
    ??1GesturePan@Gtk@@UEAA@XZ
    ?get_type@GesturePan@Gtk@@SA_KXZ
    ?get_base_type@GesturePan@Gtk@@SA_KXZ
    ?gobj_copy@GesturePan@Gtk@@QEAAPEAU_GtkGesturePan@@XZ
    ??0GesturePan@Gtk@@IEAA@XZ
    ??0GesturePan@Gtk@@IEAA@AEAVWidget@1@W4Orientation@1@@Z
    ?create@GesturePan@Gtk@@SA?AV?$RefPtr@VGesturePan@Gtk@@@Glib@@AEAVWidget@2@W4Orientation@2@@Z
    ?get_orientation@GesturePan@Gtk@@QEBA?AW4Orientation@2@XZ
    ?set_orientation@GesturePan@Gtk@@QEAAXW4Orientation@2@@Z
    ?signal_pan@GesturePan@Gtk@@QEAA?AV?$SignalProxy2@XW4PanDirection@Gtk@@N@Glib@@XZ
    ?property_orientation@GesturePan@Gtk@@QEAA?AV?$PropertyProxy@W4Orientation@Gtk@@@Glib@@XZ
    ?property_orientation@GesturePan@Gtk@@QEBA?AV?$PropertyProxy_ReadOnly@W4Orientation@Gtk@@@Glib@@XZ
    ?wrap@Glib@@YA?AV?$RefPtr@VGesturePan@Gtk@@@1@PEAU_GtkGesturePan@@_N@Z
    ?init@GesturePan_Class@Gtk@@QEAAAEBVClass@Glib@@XZ
    ?class_init_function@GesturePan_Class@Gtk@@SAXPEAX0@Z
    ?wrap_new@GesturePan_Class@Gtk@@SAPEAVObjectBase@Glib@@PEAU_GObject@@@Z
    ??_7GesturePan@Gtk@@6B@
    ??_8GesturePan@Gtk@@7BObject@Glib@@@
    ??_8GesturePan@Gtk@@7BObjectBase@Glib@@@
    ??_R0?AVObjectBase@Glib@@@8
    ??_R0?AVGesturePan@Gtk@@@8
    ??_C@_0M@KPMDGEHG@orientation?$AA@
    ??_C@_06KLKLDLLI@widget?$AA@
    ??_R4GesturePan@Gtk@@6B@
    ??_R3GesturePan@Gtk@@8
    ??_R2GesturePan@Gtk@@8
    ??_R1A@?0A@EA@GesturePan@Gtk@@8
    ??_R1A@?0A@EA@GestureDrag@Gtk@@8
    ??_R0?AVGestureDrag@Gtk@@@8
    ??_R3GestureDrag@Gtk@@8
    ??_R2GestureDrag@Gtk@@8
    ??_R1A@?0A@EA@GestureSingle@Gtk@@8
    ??_R0?AVGestureSingle@Gtk@@@8
    ??_R3GestureSingle@Gtk@@8
    ??_R2GestureSingle@Gtk@@8
    ??_R1A@?0A@EA@Gesture@Gtk@@8
    ??_R0?AVGesture@Gtk@@@8
    ??_R3Gesture@Gtk@@8
    ??_R2Gesture@Gtk@@8
    ??_R1A@?0A@EA@EventController@Gtk@@8
    ??_R0?AVEventController@Gtk@@@8
    ??_R3EventController@Gtk@@8
    ??_R2EventController@Gtk@@8
    ??_R1A@?0A@EA@Object@Glib@@8
    ??_R0?AVObject@Glib@@@8
    ??_R3Object@Glib@@8
    ??_R2Object@Glib@@8
    ??_R1A@A@7FA@ObjectBase@Glib@@8
    ??_R3ObjectBase@Glib@@8
    ??_R2ObjectBase@Glib@@8
    ??_R1A@?0A@EA@ObjectBase@Glib@@8
    ??_R1A@73FA@trackable@sigc@@8
    ??_R0?AUtrackable@sigc@@@8
    ??_R3trackable@sigc@@8
    ??_R2trackable@sigc@@8
    ??_R1A@?0A@EA@trackable@sigc@@8
    ??_R1A@A@3FA@trackable@sigc@@8
    ??_C@_0O@GDBMMNOK@angle?9changed?$AA@
    ?gesturerotate_class_@GestureRotate@Gtk@@0VGestureRotate_Class@2@A
    ?__empty_global_delete@@YAXPEAX@Z
    ?__empty_global_delete@@YAXPEAX_K@Z
    ??0GestureRotate@Gtk@@IEAA@AEBVConstructParams@Glib@@@Z
    ??0GestureRotate@Gtk@@IEAA@PEAU_GtkGestureRotate@@@Z
    ??1GestureRotate@Gtk@@UEAA@XZ
    ?get_type@GestureRotate@Gtk@@SA_KXZ
    ?get_base_type@GestureRotate@Gtk@@SA_KXZ
    ?gobj_copy@GestureRotate@Gtk@@QEAAPEAU_GtkGestureRotate@@XZ
    ??0GestureRotate@Gtk@@IEAA@XZ
    ??0GestureRotate@Gtk@@IEAA@AEAVWidget@1@@Z
    ?create@GestureRotate@Gtk@@SA?AV?$RefPtr@VGestureRotate@Gtk@@@Glib@@AEAVWidget@2@@Z
    ?get_angle_delta@GestureRotate@Gtk@@QEBANXZ
    ?signal_angle_changed@GestureRotate@Gtk@@QEAA?AV?$SignalProxy2@XNN@Glib@@XZ
    ?wrap@Glib@@YA?AV?$RefPtr@VGestureRotate@Gtk@@@1@PEAU_GtkGestureRotate@@_N@Z
    ?init@GestureRotate_Class@Gtk@@QEAAAEBVClass@Glib@@XZ
    ?class_init_function@GestureRotate_Class@Gtk@@SAXPEAX0@Z
    ?wrap_new@GestureRotate_Class@Gtk@@SAPEAVObjectBase@Glib@@PEAU_GObject@@@Z
    ??_7GestureRotate@Gtk@@6B@
    ??_8GestureRotate@Gtk@@7BObject@Glib@@@
    ??_8GestureRotate@Gtk@@7BObjectBase@Glib@@@
    ??_R0?AVObjectBase@Glib@@@8
    ??_R0?AVGestureRotate@Gtk@@@8
    ??_C@_06KLKLDLLI@widget?$AA@
    ??_R4GestureRotate@Gtk@@6B@
    ??_R3GestureRotate@Gtk@@8
    ??_R2GestureRotate@Gtk@@8
    ??_R1A@?0A@EA@GestureRotate@Gtk@@8
    ??_R1A@?0A@EA@Gesture@Gtk@@8
    ??_R0?AVGesture@Gtk@@@8
    ??_R3Gesture@Gtk@@8
    ??_R2Gesture@Gtk@@8
    ??_R1A@?0A@EA@EventController@Gtk@@8
    ??_R0?AVEventController@Gtk@@@8
    ??_R3EventController@Gtk@@8
    ??_R2EventController@Gtk@@8
    ??_R1A@?0A@EA@Object@Glib@@8
    ??_R0?AVObject@Glib@@@8
    ??_R3Object@Glib@@8
    ??_R2Object@Glib@@8
    ??_R1A@A@7FA@ObjectBase@Glib@@8
    ??_R3ObjectBase@Glib@@8
    ??_R2ObjectBase@Glib@@8
    ??_R1A@?0A@EA@ObjectBase@Glib@@8
    ??_R1A@73FA@trackable@sigc@@8
    ??_R0?AUtrackable@sigc@@@8
    ??_R3trackable@sigc@@8
    ??_R2trackable@sigc@@8
    ??_R1A@?0A@EA@trackable@sigc@@8
    ??_R1A@A@3FA@trackable@sigc@@8
    ?gesturesingle_class_@GestureSingle@Gtk@@0VGestureSingle_Class@2@A
    ?__empty_global_delete@@YAXPEAX@Z
    ?__empty_global_delete@@YAXPEAX_K@Z
    ??0GestureSingle@Gtk@@IEAA@AEBVConstructParams@Glib@@@Z
    ??0GestureSingle@Gtk@@IEAA@PEAU_GtkGestureSingle@@@Z
    ??1GestureSingle@Gtk@@UEAA@XZ
    ?get_type@GestureSingle@Gtk@@SA_KXZ
    ?get_base_type@GestureSingle@Gtk@@SA_KXZ
    ?gobj_copy@GestureSingle@Gtk@@QEAAPEAU_GtkGestureSingle@@XZ
    ??0GestureSingle@Gtk@@IEAA@XZ
    ?get_touch_only@GestureSingle@Gtk@@QEBA_NXZ
    ?set_touch_only@GestureSingle@Gtk@@QEAAX_N@Z
    ?get_exclusive@GestureSingle@Gtk@@QEBA_NXZ
    ?set_exclusive@GestureSingle@Gtk@@QEBAX_N@Z
    ?get_button@GestureSingle@Gtk@@QEBAIXZ
    ?set_button@GestureSingle@Gtk@@QEAAXI@Z
    ?get_current_button@GestureSingle@Gtk@@QEBAIXZ
    ?get_current_sequence@GestureSingle@Gtk@@QEAAPEAU_GdkEventSequence@@XZ
    ?get_current_sequence@GestureSingle@Gtk@@QEBAPEBU_GdkEventSequence@@XZ
    ?property_touch_only@GestureSingle@Gtk@@QEAA?AV?$PropertyProxy@_N@Glib@@XZ
    ?property_touch_only@GestureSingle@Gtk@@QEBA?AV?$PropertyProxy_ReadOnly@_N@Glib@@XZ
    ?property_exclusive@GestureSingle@Gtk@@QEAA?AV?$PropertyProxy@_N@Glib@@XZ
    ?property_exclusive@GestureSingle@Gtk@@QEBA?AV?$PropertyProxy_ReadOnly@_N@Glib@@XZ
    ?property_button@GestureSingle@Gtk@@QEAA?AV?$PropertyProxy@I@Glib@@XZ
    ?property_button@GestureSingle@Gtk@@QEBA?AV?$PropertyProxy_ReadOnly@I@Glib@@XZ
    ?wrap@Glib@@YA?AV?$RefPtr@VGestureSingle@Gtk@@@1@PEAU_GtkGestureSingle@@_N@Z
    ?init@GestureSingle_Class@Gtk@@QEAAAEBVClass@Glib@@XZ
    ?class_init_function@GestureSingle_Class@Gtk@@SAXPEAX0@Z
    ?wrap_new@GestureSingle_Class@Gtk@@SAPEAVObjectBase@Glib@@PEAU_GObject@@@Z
    ??_7GestureSingle@Gtk@@6B@
    ??_8GestureSingle@Gtk@@7BObject@Glib@@@
    ??_8GestureSingle@Gtk@@7BObjectBase@Glib@@@
    ??_R0?AVObjectBase@Glib@@@8
    ??_R0?AVGestureSingle@Gtk@@@8
    ??_C@_0L@GCPPJFGA@touch?9only?$AA@
    ??_C@_09JJPHINFN@exclusive?$AA@
    ??_C@_06HFKPFKMP@button?$AA@
    ??_R4GestureSingle@Gtk@@6B@
    ??_R3GestureSingle@Gtk@@8
    ??_R2GestureSingle@Gtk@@8
    ??_R1A@?0A@EA@GestureSingle@Gtk@@8
    ??_R1A@?0A@EA@Gesture@Gtk@@8
    ??_R0?AVGesture@Gtk@@@8
    ??_R3Gesture@Gtk@@8
    ??_R2Gesture@Gtk@@8
    ??_R1A@?0A@EA@EventController@Gtk@@8
    ??_R0?AVEventController@Gtk@@@8
    ??_R3EventController@Gtk@@8
    ??_R2EventController@Gtk@@8
    ??_R1A@?0A@EA@Object@Glib@@8
    ??_R0?AVObject@Glib@@@8
    ??_R3Object@Glib@@8
    ??_R2Object@Glib@@8
    ??_R1A@A@7FA@ObjectBase@Glib@@8
    ??_R3ObjectBase@Glib@@8
    ??_R2ObjectBase@Glib@@8
    ??_R1A@?0A@EA@ObjectBase@Glib@@8
    ??_R1A@73FA@trackable@sigc@@8
    ??_R0?AUtrackable@sigc@@@8
    ??_R3trackable@sigc@@8
    ??_R2trackable@sigc@@8
    ??_R1A@?0A@EA@trackable@sigc@@8
    ??_R1A@A@3FA@trackable@sigc@@8
    ?gestureswipe_class_@GestureSwipe@Gtk@@0VGestureSwipe_Class@2@A
    ??_C@_05ICCMFCNH@swipe?$AA@
    ?__empty_global_delete@@YAXPEAX@Z
    ?__empty_global_delete@@YAXPEAX_K@Z
    ??0GestureSwipe@Gtk@@IEAA@AEBVConstructParams@Glib@@@Z
    ??0GestureSwipe@Gtk@@IEAA@PEAU_GtkGestureSwipe@@@Z
    ??1GestureSwipe@Gtk@@UEAA@XZ
    ?get_type@GestureSwipe@Gtk@@SA_KXZ
    ?get_base_type@GestureSwipe@Gtk@@SA_KXZ
    ?gobj_copy@GestureSwipe@Gtk@@QEAAPEAU_GtkGestureSwipe@@XZ
    ??0GestureSwipe@Gtk@@IEAA@XZ
    ??0GestureSwipe@Gtk@@IEAA@AEAVWidget@1@@Z
    ?create@GestureSwipe@Gtk@@SA?AV?$RefPtr@VGestureSwipe@Gtk@@@Glib@@AEAVWidget@2@@Z
    ?get_velocity@GestureSwipe@Gtk@@QEBA_NAEAN0@Z
    ?signal_swipe@GestureSwipe@Gtk@@QEAA?AV?$SignalProxy2@XNN@Glib@@XZ
    ?wrap@Glib@@YA?AV?$RefPtr@VGestureSwipe@Gtk@@@1@PEAU_GtkGestureSwipe@@_N@Z
    ?init@GestureSwipe_Class@Gtk@@QEAAAEBVClass@Glib@@XZ
    ?class_init_function@GestureSwipe_Class@Gtk@@SAXPEAX0@Z
    ?wrap_new@GestureSwipe_Class@Gtk@@SAPEAVObjectBase@Glib@@PEAU_GObject@@@Z
    ??_7GestureSwipe@Gtk@@6B@
    ??_8GestureSwipe@Gtk@@7BObject@Glib@@@
    ??_8GestureSwipe@Gtk@@7BObjectBase@Glib@@@
    ??_R0?AVObjectBase@Glib@@@8
    ??_R0?AVGestureSwipe@Gtk@@@8
    ??_C@_06KLKLDLLI@widget?$AA@
    ??_R4GestureSwipe@Gtk@@6B@
    ??_R3GestureSwipe@Gtk@@8
    ??_R2GestureSwipe@Gtk@@8
    ??_R1A@?0A@EA@GestureSwipe@Gtk@@8
    ??_R1A@?0A@EA@GestureSingle@Gtk@@8
    ??_R0?AVGestureSingle@Gtk@@@8
    ??_R3GestureSingle@Gtk@@8
    ??_R2GestureSingle@Gtk@@8
    ??_R1A@?0A@EA@Gesture@Gtk@@8
    ??_R0?AVGesture@Gtk@@@8
    ??_R3Gesture@Gtk@@8
    ??_R2Gesture@Gtk@@8
    ??_R1A@?0A@EA@EventController@Gtk@@8
    ??_R0?AVEventController@Gtk@@@8
    ??_R3EventController@Gtk@@8
    ??_R2EventController@Gtk@@8
    ??_R1A@?0A@EA@Object@Glib@@8
    ??_R0?AVObject@Glib@@@8
    ??_R3Object@Glib@@8
    ??_R2Object@Glib@@8
    ??_R1A@A@7FA@ObjectBase@Glib@@8
    ??_R3ObjectBase@Glib@@8
    ??_R2ObjectBase@Glib@@8
    ??_R1A@?0A@EA@ObjectBase@Glib@@8
    ??_R1A@73FA@trackable@sigc@@8
    ??_R0?AUtrackable@sigc@@@8
    ??_R3trackable@sigc@@8
    ??_R2trackable@sigc@@8
    ??_R1A@?0A@EA@trackable@sigc@@8
    ??_R1A@A@3FA@trackable@sigc@@8
    ??_C@_0O@EMNBPALF@scale?9changed?$AA@
    ?gesturezoom_class_@GestureZoom@Gtk@@0VGestureZoom_Class@2@A
    ?__empty_global_delete@@YAXPEAX@Z
    ?__empty_global_delete@@YAXPEAX_K@Z
    ??0GestureZoom@Gtk@@IEAA@AEBVConstructParams@Glib@@@Z
    ??0GestureZoom@Gtk@@IEAA@PEAU_GtkGestureZoom@@@Z
    ??1GestureZoom@Gtk@@UEAA@XZ
    ?get_type@GestureZoom@Gtk@@SA_KXZ
    ?get_base_type@GestureZoom@Gtk@@SA_KXZ
    ?gobj_copy@GestureZoom@Gtk@@QEAAPEAU_GtkGestureZoom@@XZ
    ??0GestureZoom@Gtk@@IEAA@XZ
    ??0GestureZoom@Gtk@@IEAA@AEAVWidget@1@@Z
    ?create@GestureZoom@Gtk@@SA?AV?$RefPtr@VGestureZoom@Gtk@@@Glib@@AEAVWidget@2@@Z
    ?get_scale_delta@GestureZoom@Gtk@@QEBANXZ
    ?signal_scale_changed@GestureZoom@Gtk@@QEAA?AV?$SignalProxy1@XN@Glib@@XZ
    ?wrap@Glib@@YA?AV?$RefPtr@VGestureZoom@Gtk@@@1@PEAU_GtkGestureZoom@@_N@Z
    ?init@GestureZoom_Class@Gtk@@QEAAAEBVClass@Glib@@XZ
    ?class_init_function@GestureZoom_Class@Gtk@@SAXPEAX0@Z
    ?wrap_new@GestureZoom_Class@Gtk@@SAPEAVObjectBase@Glib@@PEAU_GObject@@@Z
    ??_7GestureZoom@Gtk@@6B@
    ??_8GestureZoom@Gtk@@7BObject@Glib@@@
    ??_8GestureZoom@Gtk@@7BObjectBase@Glib@@@
    ??_R0?AVObjectBase@Glib@@@8
    ??_R0?AVGestureZoom@Gtk@@@8
    ??_C@_06KLKLDLLI@widget?$AA@
    ??_R4GestureZoom@Gtk@@6B@
    ??_R3GestureZoom@Gtk@@8
    ??_R2GestureZoom@Gtk@@8
    ??_R1A@?0A@EA@GestureZoom@Gtk@@8
    ??_R1A@?0A@EA@Gesture@Gtk@@8
    ??_R0?AVGesture@Gtk@@@8
    ??_R3Gesture@Gtk@@8
    ??_R2Gesture@Gtk@@8
    ??_R1A@?0A@EA@EventController@Gtk@@8
    ??_R0?AVEventController@Gtk@@@8
    ??_R3EventController@Gtk@@8
    ??_R2EventController@Gtk@@8
    ??_R1A@?0A@EA@Object@Glib@@8
    ??_R0?AVObject@Glib@@@8
    ??_R3Object@Glib@@8
    ??_R2Object@Glib@@8
    ??_R1A@A@7FA@ObjectBase@Glib@@8
    ??_R3ObjectBase@Glib@@8
    ??_R2ObjectBase@Glib@@8
    ??_R1A@?0A@EA@ObjectBase@Glib@@8
    ??_R1A@73FA@trackable@sigc@@8
    ??_R0?AUtrackable@sigc@@@8
    ??_R3trackable@sigc@@8
    ??_R2trackable@sigc@@8
    ??_R1A@?0A@EA@trackable@sigc@@8
    ??_R1A@A@3FA@trackable@sigc@@8
    ?grid_class_@Grid@Gtk@@0VGrid_Class@2@A
    ?__empty_global_delete@@YAXPEAX@Z
    ?__empty_global_delete@@YAXPEAX_K@Z
    ??1Grid@Gtk@@UEAA@XZ
    ??0Grid@Gtk@@IEAA@AEBVConstructParams@Glib@@@Z
    ??0Grid@Gtk@@IEAA@PEAU_GtkGrid@@@Z
    ?get_type@Grid@Gtk@@SA_KXZ
    ?get_base_type@Grid@Gtk@@SA_KXZ
    ??0Grid@Gtk@@QEAA@XZ
    ?attach@Grid@Gtk@@QEAAXAEAVWidget@2@HHHH@Z
    ?attach_next_to@Grid@Gtk@@QEAAXAEAVWidget@2@0W4PositionType@2@HH@Z
    ?attach_next_to@Grid@Gtk@@QEAAXAEAVWidget@2@W4PositionType@2@HH@Z
    ?get_child_at@Grid@Gtk@@QEAAPEAVWidget@2@HH@Z
    ?get_child_at@Grid@Gtk@@QEBAPEBVWidget@2@HH@Z
    ?insert_row@Grid@Gtk@@QEAAXH@Z
    ?insert_column@Grid@Gtk@@QEAAXH@Z
    ?remove_row@Grid@Gtk@@QEAAXH@Z
    ?remove_column@Grid@Gtk@@QEAAXH@Z
    ?insert_next_to@Grid@Gtk@@QEAAXAEAVWidget@2@W4PositionType@2@@Z
    ?set_row_homogeneous@Grid@Gtk@@QEAAX_N@Z
    ?get_row_homogeneous@Grid@Gtk@@QEBA_NXZ
    ?set_row_spacing@Grid@Gtk@@QEAAXI@Z
    ?get_row_spacing@Grid@Gtk@@QEBAIXZ
    ?set_column_homogeneous@Grid@Gtk@@QEAAX_N@Z
    ?get_column_homogeneous@Grid@Gtk@@QEBA_NXZ
    ?set_column_spacing@Grid@Gtk@@QEAAXI@Z
    ?get_column_spacing@Grid@Gtk@@QEBAIXZ
    ?set_row_baseline_position@Grid@Gtk@@QEAAXHW4BaselinePosition@2@@Z
    ?get_row_baseline_position@Grid@Gtk@@QEBA?AW4BaselinePosition@2@H@Z
    ?set_baseline_row@Grid@Gtk@@QEAAXH@Z
    ?get_baseline_row@Grid@Gtk@@QEBAHXZ
    ?property_row_spacing@Grid@Gtk@@QEAA?AV?$PropertyProxy@I@Glib@@XZ
    ?property_row_spacing@Grid@Gtk@@QEBA?AV?$PropertyProxy_ReadOnly@I@Glib@@XZ
    ?property_column_spacing@Grid@Gtk@@QEAA?AV?$PropertyProxy@I@Glib@@XZ
    ?property_column_spacing@Grid@Gtk@@QEBA?AV?$PropertyProxy_ReadOnly@I@Glib@@XZ
    ?property_row_homogeneous@Grid@Gtk@@QEAA?AV?$PropertyProxy@_N@Glib@@XZ
    ?property_row_homogeneous@Grid@Gtk@@QEBA?AV?$PropertyProxy_ReadOnly@_N@Glib@@XZ
    ?property_column_homogeneous@Grid@Gtk@@QEAA?AV?$PropertyProxy@_N@Glib@@XZ
    ?property_column_homogeneous@Grid@Gtk@@QEBA?AV?$PropertyProxy_ReadOnly@_N@Glib@@XZ
    ?property_baseline_row@Grid@Gtk@@QEAA?AV?$PropertyProxy@H@Glib@@XZ
    ?property_baseline_row@Grid@Gtk@@QEBA?AV?$PropertyProxy_ReadOnly@H@Glib@@XZ
    ?child_property_left_attach@Grid@Gtk@@QEAA?AV?$ChildPropertyProxy@H@2@AEAVWidget@2@@Z
    ?child_property_left_attach@Grid@Gtk@@QEBA?AV?$ChildPropertyProxy_ReadOnly@H@2@AEBVWidget@2@@Z
    ?child_property_top_attach@Grid@Gtk@@QEAA?AV?$ChildPropertyProxy@H@2@AEAVWidget@2@@Z
    ?child_property_top_attach@Grid@Gtk@@QEBA?AV?$ChildPropertyProxy_ReadOnly@H@2@AEBVWidget@2@@Z
    ?child_property_width@Grid@Gtk@@QEAA?AV?$ChildPropertyProxy@H@2@AEAVWidget@2@@Z
    ?child_property_width@Grid@Gtk@@QEBA?AV?$ChildPropertyProxy_ReadOnly@H@2@AEBVWidget@2@@Z
    ?child_property_height@Grid@Gtk@@QEAA?AV?$ChildPropertyProxy@H@2@AEAVWidget@2@@Z
    ?child_property_height@Grid@Gtk@@QEBA?AV?$ChildPropertyProxy_ReadOnly@H@2@AEBVWidget@2@@Z
    ??_DGrid@Gtk@@QEAAXXZ
    ?wrap@Glib@@YAPEAVGrid@Gtk@@PEAU_GtkGrid@@_N@Z
    ?init@Grid_Class@Gtk@@QEAAAEBVClass@Glib@@XZ
    ?class_init_function@Grid_Class@Gtk@@SAXPEAX0@Z
    ?wrap_new@Grid_Class@Gtk@@SAPEAVObjectBase@Glib@@PEAU_GObject@@@Z
    ??$manage@VGrid@Gtk@@@Gtk@@YAPEAVGrid@0@PEAV10@@Z
    ?destroy_notify_@Object@Gtk@@$2PPPPPPPM@BA@EAAXXZ
    ?set_manage@Object@Gtk@@$4PPPPPPPM@BA@EAAXXZ
    ??_7Grid@Gtk@@6BWidget@1@@
    ??_7Grid@Gtk@@6BObject@1@@
    ??_8Grid@Gtk@@7BObject@Glib@@@
    ??_8Grid@Gtk@@7BInterface@Glib@@Container@1@@
    ??_8Grid@Gtk@@7BInterface@Glib@@Orientable@1@@
    ??_8Grid@Gtk@@7BObjectBase@Glib@@@
    ??_R0?AVObjectBase@Glib@@@8
    ??_R0?AVGrid@Gtk@@@8
    ??_C@_0M@BFAKILOJ@row?9spacing?$AA@
    ??_C@_0P@FDAAMDON@column?9spacing?$AA@
    ??_C@_0BA@DJJEBEDB@row?9homogeneous?$AA@
    ??_C@_0BD@KNCPFDDB@column?9homogeneous?$AA@
    ??_C@_0N@FAAMINDG@baseline?9row?$AA@
    ??_C@_0M@EODLPJDD@left?9attach?$AA@
    ??_C@_0L@LNLAMOPE@top?9attach?$AA@
    ??_C@_05IGKADHGO@width?$AA@
    ??_C@_06LNLHEAAG@height?$AA@
    ??_R4Grid@Gtk@@6BWidget@1@@
    ??_R3Grid@Gtk@@8
    ??_R2Grid@Gtk@@8
    ??_R1A@?0A@EA@Grid@Gtk@@8
    ??_R1A@?0A@EA@Container@Gtk@@8
    ??_R0?AVContainer@Gtk@@@8
    ??_R3Container@Gtk@@8
    ??_R2Container@Gtk@@8
    ??_R1A@?0A@EA@Widget@Gtk@@8
    ??_R0?AVWidget@Gtk@@@8
    ??_R3Widget@Gtk@@8
    ??_R2Widget@Gtk@@8
    ??_R17?0A@EA@Object@Gtk@@8
    ??_R0?AVObject@Gtk@@@8
    ??_R3Object@Gtk@@8
    ??_R2Object@Gtk@@8
    ??_R1A@?0A@EA@Object@Gtk@@8
    ??_R1A@?0A@EA@Object@Glib@@8
    ??_R0?AVObject@Glib@@@8
    ??_R3Object@Glib@@8
    ??_R2Object@Glib@@8
    ??_R1A@A@7FA@ObjectBase@Glib@@8
    ??_R3ObjectBase@Glib@@8
    ??_R2ObjectBase@Glib@@8
    ??_R1A@?0A@EA@ObjectBase@Glib@@8
    ??_R1A@73FA@trackable@sigc@@8
    ??_R0?AUtrackable@sigc@@@8
    ??_R3trackable@sigc@@8
    ??_R2trackable@sigc@@8
    ??_R1A@?0A@EA@trackable@sigc@@8
    ??_R1A@A@3FA@trackable@sigc@@8
    ??_R17?0A@EA@Object@Glib@@8
    ??_R1A@77FA@ObjectBase@Glib@@8
    ??_R1BI@?0A@EA@Buildable@Gtk@@8
    ??_R0?AVBuildable@Gtk@@@8
    ??_R3Buildable@Gtk@@8
    ??_R2Buildable@Gtk@@8
    ??_R1A@?0A@EA@Buildable@Gtk@@8
    ??_R1A@?0A@EA@Interface@Glib@@8
    ??_R0?AVInterface@Glib@@@8
    ??_R3Interface@Glib@@8
    ??_R2Interface@Glib@@8
    ??_R1BI@?0A@EA@Interface@Glib@@8
    ??_R1BI@?0A@EC@Interface@Glib@@8
    ??_R1CA@?0A@EA@Orientable@Gtk@@8
    ??_R0?AVOrientable@Gtk@@@8
    ??_R3Orientable@Gtk@@8
    ??_R2Orientable@Gtk@@8
    ??_R1A@?0A@EA@Orientable@Gtk@@8
    ??_R1CA@?0A@EC@Interface@Glib@@8
    ??_R4Grid@Gtk@@6BObject@1@@
    ?handlebox_class_@HandleBox@Gtk@@0VHandleBox_Class@2@A
    ??_C@_0P@BPMHNMIO@child_attached?$AA@
    ??_C@_0P@OFEBKIHE@child_detached?$AA@
    ?__empty_global_delete@@YAXPEAX@Z
    ?__empty_global_delete@@YAXPEAX_K@Z
    ??1HandleBox@Gtk@@UEAA@XZ
    ??0HandleBox@Gtk@@IEAA@AEBVConstructParams@Glib@@@Z
    ??0HandleBox@Gtk@@IEAA@PEAU_GtkHandleBox@@@Z
    ?get_type@HandleBox@Gtk@@SA_KXZ
    ?get_base_type@HandleBox@Gtk@@SA_KXZ
    ?on_child_attached@HandleBox@Gtk@@MEAAXPEAVWidget@2@@Z
    ?on_child_detached@HandleBox@Gtk@@MEAAXPEAVWidget@2@@Z
    ??0HandleBox@Gtk@@QEAA@XZ
    ?set_shadow_type@HandleBox@Gtk@@QEAAXW4ShadowType@2@@Z
    ?get_shadow_type@HandleBox@Gtk@@QEBA?AW4ShadowType@2@XZ
    ?set_handle_position@HandleBox@Gtk@@QEAAXW4PositionType@2@@Z
    ?get_handle_position@HandleBox@Gtk@@QEBA?AW4PositionType@2@XZ
    ?set_snap_edge@HandleBox@Gtk@@QEAAXW4PositionType@2@@Z
    ?get_snap_edge@HandleBox@Gtk@@QEBA?AW4PositionType@2@XZ
    ?is_child_detached@HandleBox@Gtk@@QEBA_NXZ
    ?signal_child_attached@HandleBox@Gtk@@QEAA?AV?$SignalProxy1@XPEAVWidget@Gtk@@@Glib@@XZ
    ?signal_child_detached@HandleBox@Gtk@@QEAA?AV?$SignalProxy1@XPEAVWidget@Gtk@@@Glib@@XZ
    ?property_shadow_type@HandleBox@Gtk@@QEAA?AV?$PropertyProxy@W4ShadowType@Gtk@@@Glib@@XZ
    ?property_shadow_type@HandleBox@Gtk@@QEBA?AV?$PropertyProxy_ReadOnly@W4ShadowType@Gtk@@@Glib@@XZ
    ?property_handle_position@HandleBox@Gtk@@QEAA?AV?$PropertyProxy@W4PositionType@Gtk@@@Glib@@XZ
    ?property_handle_position@HandleBox@Gtk@@QEBA?AV?$PropertyProxy_ReadOnly@W4PositionType@Gtk@@@Glib@@XZ
    ?property_snap_edge@HandleBox@Gtk@@QEAA?AV?$PropertyProxy@W4PositionType@Gtk@@@Glib@@XZ
    ?property_snap_edge@HandleBox@Gtk@@QEBA?AV?$PropertyProxy_ReadOnly@W4PositionType@Gtk@@@Glib@@XZ
    ?property_snap_edge_set@HandleBox@Gtk@@QEAA?AV?$PropertyProxy@_N@Glib@@XZ
    ?property_snap_edge_set@HandleBox@Gtk@@QEBA?AV?$PropertyProxy_ReadOnly@_N@Glib@@XZ
    ?property_child_detached@HandleBox@Gtk@@QEBA?AV?$PropertyProxy_ReadOnly@_N@Glib@@XZ
    ??_DHandleBox@Gtk@@QEAAXXZ
    ?wrap@Glib@@YAPEAVHandleBox@Gtk@@PEAU_GtkHandleBox@@_N@Z
    ?init@HandleBox_Class@Gtk@@QEAAAEBVClass@Glib@@XZ
    ?class_init_function@HandleBox_Class@Gtk@@SAXPEAX0@Z
    ?wrap_new@HandleBox_Class@Gtk@@SAPEAVObjectBase@Glib@@PEAU_GObject@@@Z
    ?child_attached_callback@HandleBox_Class@Gtk@@KAXPEAU_GtkHandleBox@@PEAU_GtkWidget@@@Z
    ?child_detached_callback@HandleBox_Class@Gtk@@KAXPEAU_GtkHandleBox@@PEAU_GtkWidget@@@Z
    ??$manage@VHandleBox@Gtk@@@Gtk@@YAPEAVHandleBox@0@PEAV10@@Z
    ?destroy_notify_@Object@Gtk@@$2PPPPPPPM@7EAAXXZ
    ?set_manage@Object@Gtk@@$4PPPPPPPM@7EAAXXZ
    ??_7HandleBox@Gtk@@6BWidget@1@@
    ??_7HandleBox@Gtk@@6BObject@1@@
    ??_8HandleBox@Gtk@@7BObject@Glib@@@
    ??_8HandleBox@Gtk@@7BInterface@Glib@@@
    ??_8HandleBox@Gtk@@7BObjectBase@Glib@@@
    ??_R0?AVObjectBase@Glib@@@8
    ??_R0?AVHandleBox@Gtk@@@8
    ??_C@_0M@MPGLLGPO@shadow?9type?$AA@
    ??_C@_0BA@GEDNBAMP@handle?9position?$AA@
    ??_C@_09GODFEPOM@snap?9edge?$AA@
    ??_C@_0O@KKMAOLGK@snap?9edge?9set?$AA@
    ??_C@_0P@BHPNPNNB@child?9detached?$AA@
    ??_R4HandleBox@Gtk@@6BWidget@1@@
    ??_R3HandleBox@Gtk@@8
    ??_R2HandleBox@Gtk@@8
    ??_R1A@?0A@EA@HandleBox@Gtk@@8
    ??_R1A@?0A@EA@Bin@Gtk@@8
    ??_R0?AVBin@Gtk@@@8
    ??_R3Bin@Gtk@@8
    ??_R2Bin@Gtk@@8
    ??_R1A@?0A@EA@Container@Gtk@@8
    ??_R0?AVContainer@Gtk@@@8
    ??_R3Container@Gtk@@8
    ??_R2Container@Gtk@@8
    ??_R1A@?0A@EA@Widget@Gtk@@8
    ??_R0?AVWidget@Gtk@@@8
    ??_R3Widget@Gtk@@8
    ??_R2Widget@Gtk@@8
    ??_R17?0A@EA@Object@Gtk@@8
    ??_R0?AVObject@Gtk@@@8
    ??_R3Object@Gtk@@8
    ??_R2Object@Gtk@@8
    ??_R1A@?0A@EA@Object@Gtk@@8
    ??_R1A@?0A@EA@Object@Glib@@8
    ??_R0?AVObject@Glib@@@8
    ??_R3Object@Glib@@8
    ??_R2Object@Glib@@8
    ??_R1A@A@7FA@ObjectBase@Glib@@8
    ??_R3ObjectBase@Glib@@8
    ??_R2ObjectBase@Glib@@8
    ??_R1A@?0A@EA@ObjectBase@Glib@@8
    ??_R1A@73FA@trackable@sigc@@8
    ??_R0?AUtrackable@sigc@@@8
    ??_R3trackable@sigc@@8
    ??_R2trackable@sigc@@8
    ??_R1A@?0A@EA@trackable@sigc@@8
    ??_R1A@A@3FA@trackable@sigc@@8
    ??_R17?0A@EA@Object@Glib@@8
    ??_R1A@77FA@ObjectBase@Glib@@8
    ??_R1BI@?0A@EA@Buildable@Gtk@@8
    ??_R0?AVBuildable@Gtk@@@8
    ??_R3Buildable@Gtk@@8
    ??_R2Buildable@Gtk@@8
    ??_R1A@?0A@EA@Buildable@Gtk@@8
    ??_R1A@?0A@EA@Interface@Glib@@8
    ??_R0?AVInterface@Glib@@@8
    ??_R3Interface@Glib@@8
    ??_R2Interface@Glib@@8
    ??_R1BI@?0A@EA@Interface@Glib@@8
    ??_R4HandleBox@Gtk@@6BObject@1@@
    ?headerbar_class_@HeaderBar@Gtk@@0VHeaderBar_Class@2@A
    ?__empty_global_delete@@YAXPEAX@Z
    ?__empty_global_delete@@YAXPEAX_K@Z
    ?convert_const_gchar_ptr_to_ustring@Glib@@YA?AVustring@1@PEBD@Z
    ??1HeaderBar@Gtk@@UEAA@XZ
    ??0HeaderBar@Gtk@@IEAA@AEBVConstructParams@Glib@@@Z
    ??0HeaderBar@Gtk@@IEAA@PEAU_GtkHeaderBar@@@Z
    ?get_type@HeaderBar@Gtk@@SA_KXZ
    ?get_base_type@HeaderBar@Gtk@@SA_KXZ
    ??0HeaderBar@Gtk@@QEAA@XZ
    ?set_title@HeaderBar@Gtk@@QEAAXAEBVustring@Glib@@@Z
    ?get_title@HeaderBar@Gtk@@QEBA?AVustring@Glib@@XZ
    ?set_subtitle@HeaderBar@Gtk@@QEAAXAEBVustring@Glib@@@Z
    ?get_subtitle@HeaderBar@Gtk@@QEBA?AVustring@Glib@@XZ
    ?set_has_subtitle@HeaderBar@Gtk@@QEAAX_N@Z
    ?get_has_subtitle@HeaderBar@Gtk@@QEBA_NXZ
    ?set_custom_title@HeaderBar@Gtk@@QEAAXAEAVWidget@2@@Z
    ?get_custom_title@HeaderBar@Gtk@@QEAAPEAVWidget@2@XZ
    ?get_custom_title@HeaderBar@Gtk@@QEBAPEBVWidget@2@XZ
    ?pack_start@HeaderBar@Gtk@@QEAAXAEAVWidget@2@@Z
    ?pack_end@HeaderBar@Gtk@@QEAAXAEAVWidget@2@@Z
    ?set_show_close_button@HeaderBar@Gtk@@QEAAX_N@Z
    ?get_show_close_button@HeaderBar@Gtk@@QEBA_NXZ
    ?set_decoration_layout@HeaderBar@Gtk@@QEAAXAEBVustring@Glib@@@Z
    ?unset_decoration_layout@HeaderBar@Gtk@@QEAAXXZ
    ?get_decoration_layout@HeaderBar@Gtk@@QEBA?AVustring@Glib@@XZ
    ?property_custom_title@HeaderBar@Gtk@@QEAA?AV?$PropertyProxy@PEAVWidget@Gtk@@@Glib@@XZ
    ?property_custom_title@HeaderBar@Gtk@@QEBA?AV?$PropertyProxy_ReadOnly@PEAVWidget@Gtk@@@Glib@@XZ
    ?property_show_close_button@HeaderBar@Gtk@@QEAA?AV?$PropertyProxy@_N@Glib@@XZ
    ?property_show_close_button@HeaderBar@Gtk@@QEBA?AV?$PropertyProxy_ReadOnly@_N@Glib@@XZ
    ?property_spacing@HeaderBar@Gtk@@QEAA?AV?$PropertyProxy@H@Glib@@XZ
    ?property_spacing@HeaderBar@Gtk@@QEBA?AV?$PropertyProxy_ReadOnly@H@Glib@@XZ
    ?property_subtitle@HeaderBar@Gtk@@QEAA?AV?$PropertyProxy@Vustring@Glib@@@Glib@@XZ
    ?property_subtitle@HeaderBar@Gtk@@QEBA?AV?$PropertyProxy_ReadOnly@Vustring@Glib@@@Glib@@XZ
    ?property_title@HeaderBar@Gtk@@QEAA?AV?$PropertyProxy@Vustring@Glib@@@Glib@@XZ
    ?property_title@HeaderBar@Gtk@@QEBA?AV?$PropertyProxy_ReadOnly@Vustring@Glib@@@Glib@@XZ
    ?property_decoration_layout@HeaderBar@Gtk@@QEAA?AV?$PropertyProxy@Vustring@Glib@@@Glib@@XZ
    ?property_decoration_layout@HeaderBar@Gtk@@QEBA?AV?$PropertyProxy_ReadOnly@Vustring@Glib@@@Glib@@XZ
    ?property_decoration_layout_set@HeaderBar@Gtk@@QEAA?AV?$PropertyProxy@_N@Glib@@XZ
    ?property_decoration_layout_set@HeaderBar@Gtk@@QEBA?AV?$PropertyProxy_ReadOnly@_N@Glib@@XZ
    ?property_has_subtitle@HeaderBar@Gtk@@QEAA?AV?$PropertyProxy@_N@Glib@@XZ
    ?property_has_subtitle@HeaderBar@Gtk@@QEBA?AV?$PropertyProxy_ReadOnly@_N@Glib@@XZ
    ?child_property_pack_type@HeaderBar@Gtk@@QEAA?AV?$ChildPropertyProxy@W4PackType@Gtk@@@2@AEAVWidget@2@@Z
    ?child_property_pack_type@HeaderBar@Gtk@@QEBA?AV?$ChildPropertyProxy_ReadOnly@W4PackType@Gtk@@@2@AEBVWidget@2@@Z
    ?child_property_position@HeaderBar@Gtk@@QEAA?AV?$ChildPropertyProxy@H@2@AEAVWidget@2@@Z
    ?child_property_position@HeaderBar@Gtk@@QEBA?AV?$ChildPropertyProxy_ReadOnly@H@2@AEBVWidget@2@@Z
    ??_DHeaderBar@Gtk@@QEAAXXZ
    ?wrap@Glib@@YAPEAVHeaderBar@Gtk@@PEAU_GtkHeaderBar@@_N@Z
    ?init@HeaderBar_Class@Gtk@@QEAAAEBVClass@Glib@@XZ
    ?class_init_function@HeaderBar_Class@Gtk@@SAXPEAX0@Z
    ?wrap_new@HeaderBar_Class@Gtk@@SAPEAVObjectBase@Glib@@PEAU_GObject@@@Z
    ??$manage@VHeaderBar@Gtk@@@Gtk@@YAPEAVHeaderBar@0@PEAV10@@Z
    ?destroy_notify_@Object@Gtk@@$2PPPPPPPM@7EAAXXZ
    ?set_manage@Object@Gtk@@$4PPPPPPPM@7EAAXXZ
    ??_7HeaderBar@Gtk@@6BWidget@1@@
    ??_7HeaderBar@Gtk@@6BObject@1@@
    ??_8HeaderBar@Gtk@@7BObject@Glib@@@
    ??_8HeaderBar@Gtk@@7BInterface@Glib@@@
    ??_8HeaderBar@Gtk@@7BObjectBase@Glib@@@
    ??_R0?AVObjectBase@Glib@@@8
    ??_R0?AVHeaderBar@Gtk@@@8
    ??_C@_0N@LIOMILNM@custom?9title?$AA@
    ??_C@_0BC@FNBPFENO@show?9close?9button?$AA@
    ??_C@_07GHILBEGP@spacing?$AA@
    ??_C@_08JBMKBGPP@subtitle?$AA@
    ??_C@_05PHLGJONK@title?$AA@
    ??_C@_0BC@PGCMLGOI@decoration?9layout?$AA@
    ??_C@_0BG@PKGDIGAM@decoration?9layout?9set?$AA@
    ??_C@_0N@ECNDNBBF@has?9subtitle?$AA@
    ??_C@_09JLNNHAPC@pack?9type?$AA@
    ??_C@_08OAGMDKAF@position?$AA@
    ??_R4HeaderBar@Gtk@@6BWidget@1@@
    ??_R3HeaderBar@Gtk@@8
    ??_R2HeaderBar@Gtk@@8
    ??_R1A@?0A@EA@HeaderBar@Gtk@@8
    ??_R1A@?0A@EA@Container@Gtk@@8
    ??_R0?AVContainer@Gtk@@@8
    ??_R3Container@Gtk@@8
    ??_R2Container@Gtk@@8
    ??_R1A@?0A@EA@Widget@Gtk@@8
    ??_R0?AVWidget@Gtk@@@8
    ??_R3Widget@Gtk@@8
    ??_R2Widget@Gtk@@8
    ??_R17?0A@EA@Object@Gtk@@8
    ??_R0?AVObject@Gtk@@@8
    ??_R3Object@Gtk@@8
    ??_R2Object@Gtk@@8
    ??_R1A@?0A@EA@Object@Gtk@@8
    ??_R1A@?0A@EA@Object@Glib@@8
    ??_R0?AVObject@Glib@@@8
    ??_R3Object@Glib@@8
    ??_R2Object@Glib@@8
    ??_R1A@A@7FA@ObjectBase@Glib@@8
    ??_R3ObjectBase@Glib@@8
    ??_R2ObjectBase@Glib@@8
    ??_R1A@?0A@EA@ObjectBase@Glib@@8
    ??_R1A@73FA@trackable@sigc@@8
    ??_R0?AUtrackable@sigc@@@8
    ??_R3trackable@sigc@@8
    ??_R2trackable@sigc@@8
    ??_R1A@?0A@EA@trackable@sigc@@8
    ??_R1A@A@3FA@trackable@sigc@@8
    ??_R17?0A@EA@Object@Glib@@8
    ??_R1A@77FA@ObjectBase@Glib@@8
    ??_R1BI@?0A@EA@Buildable@Gtk@@8
    ??_R0?AVBuildable@Gtk@@@8
    ??_R3Buildable@Gtk@@8
    ??_R2Buildable@Gtk@@8
    ??_R1A@?0A@EA@Buildable@Gtk@@8
    ??_R1A@?0A@EA@Interface@Glib@@8
    ??_R0?AVInterface@Glib@@@8
    ??_R3Interface@Glib@@8
    ??_R2Interface@Glib@@8
    ??_R1BI@?0A@EA@Interface@Glib@@8
    ??_R4HeaderBar@Gtk@@6BObject@1@@
    ?vbox_class_@VBox@Gtk@@0VVBox_Class@2@A
